
EugenioProyect.elf:     file format elf32-littlearm

Sections:
Idx Name          Size      VMA       LMA       File off  Algn
  0 .isr_vector   00000198  08000000  08000000  00010000  2**0
                  CONTENTS, ALLOC, LOAD, READONLY, DATA
  1 .text         00008eb0  08000198  08000198  00010198  2**2
                  CONTENTS, ALLOC, LOAD, READONLY, CODE
  2 .rodata       00001aac  08009048  08009048  00019048  2**2
                  CONTENTS, ALLOC, LOAD, READONLY, DATA
  3 .ARM.extab    00000000  0800aaf4  0800aaf4  000200fc  2**0
                  CONTENTS
  4 .ARM          00000008  0800aaf4  0800aaf4  0001aaf4  2**2
                  CONTENTS, ALLOC, LOAD, READONLY, DATA
  5 .preinit_array 00000000  0800aafc  0800aafc  000200fc  2**0
                  CONTENTS, ALLOC, LOAD, DATA
  6 .init_array   00000004  0800aafc  0800aafc  0001aafc  2**2
                  CONTENTS, ALLOC, LOAD, DATA
  7 .fini_array   00000004  0800ab00  0800ab00  0001ab00  2**2
                  CONTENTS, ALLOC, LOAD, DATA
  8 .data         000000fc  20000000  0800ab04  00020000  2**2
                  CONTENTS, ALLOC, LOAD, DATA
  9 .bss          00002e28  200000fc  0800ac00  000200fc  2**2
                  ALLOC
 10 ._user_heap_stack 00000604  20002f24  0800ac00  00022f24  2**0
                  ALLOC
 11 .ARM.attributes 00000030  00000000  00000000  000200fc  2**0
                  CONTENTS, READONLY
 12 .comment      00000043  00000000  00000000  0002012c  2**0
                  CONTENTS, READONLY
 13 .debug_frame  00000458  00000000  00000000  00020170  2**2
                  CONTENTS, READONLY, DEBUGGING, OCTETS

Disassembly of section .text:

08000198 <__do_global_dtors_aux>:
 8000198:	b510      	push	{r4, lr}
 800019a:	4c05      	ldr	r4, [pc, #20]	; (80001b0 <__do_global_dtors_aux+0x18>)
 800019c:	7823      	ldrb	r3, [r4, #0]
 800019e:	b933      	cbnz	r3, 80001ae <__do_global_dtors_aux+0x16>
 80001a0:	4b04      	ldr	r3, [pc, #16]	; (80001b4 <__do_global_dtors_aux+0x1c>)
 80001a2:	b113      	cbz	r3, 80001aa <__do_global_dtors_aux+0x12>
 80001a4:	4804      	ldr	r0, [pc, #16]	; (80001b8 <__do_global_dtors_aux+0x20>)
 80001a6:	f3af 8000 	nop.w
 80001aa:	2301      	movs	r3, #1
 80001ac:	7023      	strb	r3, [r4, #0]
 80001ae:	bd10      	pop	{r4, pc}
 80001b0:	200000fc 	.word	0x200000fc
 80001b4:	00000000 	.word	0x00000000
 80001b8:	08009030 	.word	0x08009030

080001bc <frame_dummy>:
 80001bc:	b508      	push	{r3, lr}
 80001be:	4b03      	ldr	r3, [pc, #12]	; (80001cc <frame_dummy+0x10>)
 80001c0:	b11b      	cbz	r3, 80001ca <frame_dummy+0xe>
 80001c2:	4903      	ldr	r1, [pc, #12]	; (80001d0 <frame_dummy+0x14>)
 80001c4:	4803      	ldr	r0, [pc, #12]	; (80001d4 <frame_dummy+0x18>)
 80001c6:	f3af 8000 	nop.w
 80001ca:	bd08      	pop	{r3, pc}
 80001cc:	00000000 	.word	0x00000000
 80001d0:	20000100 	.word	0x20000100
 80001d4:	08009030 	.word	0x08009030

080001d8 <__aeabi_uldivmod>:
 80001d8:	b953      	cbnz	r3, 80001f0 <__aeabi_uldivmod+0x18>
 80001da:	b94a      	cbnz	r2, 80001f0 <__aeabi_uldivmod+0x18>
 80001dc:	2900      	cmp	r1, #0
 80001de:	bf08      	it	eq
 80001e0:	2800      	cmpeq	r0, #0
 80001e2:	bf1c      	itt	ne
 80001e4:	f04f 31ff 	movne.w	r1, #4294967295
 80001e8:	f04f 30ff 	movne.w	r0, #4294967295
 80001ec:	f000 b970 	b.w	80004d0 <__aeabi_idiv0>
 80001f0:	f1ad 0c08 	sub.w	ip, sp, #8
 80001f4:	e96d ce04 	strd	ip, lr, [sp, #-16]!
 80001f8:	f000 f806 	bl	8000208 <__udivmoddi4>
 80001fc:	f8dd e004 	ldr.w	lr, [sp, #4]
 8000200:	e9dd 2302 	ldrd	r2, r3, [sp, #8]
 8000204:	b004      	add	sp, #16
 8000206:	4770      	bx	lr

08000208 <__udivmoddi4>:
 8000208:	e92d 47f0 	stmdb	sp!, {r4, r5, r6, r7, r8, r9, sl, lr}
 800020c:	9e08      	ldr	r6, [sp, #32]
 800020e:	460d      	mov	r5, r1
 8000210:	4604      	mov	r4, r0
 8000212:	460f      	mov	r7, r1
 8000214:	2b00      	cmp	r3, #0
 8000216:	d14a      	bne.n	80002ae <__udivmoddi4+0xa6>
 8000218:	428a      	cmp	r2, r1
 800021a:	4694      	mov	ip, r2
 800021c:	d965      	bls.n	80002ea <__udivmoddi4+0xe2>
 800021e:	fab2 f382 	clz	r3, r2
 8000222:	b143      	cbz	r3, 8000236 <__udivmoddi4+0x2e>
 8000224:	fa02 fc03 	lsl.w	ip, r2, r3
 8000228:	f1c3 0220 	rsb	r2, r3, #32
 800022c:	409f      	lsls	r7, r3
 800022e:	fa20 f202 	lsr.w	r2, r0, r2
 8000232:	4317      	orrs	r7, r2
 8000234:	409c      	lsls	r4, r3
 8000236:	ea4f 4e1c 	mov.w	lr, ip, lsr #16
 800023a:	fa1f f58c 	uxth.w	r5, ip
 800023e:	fbb7 f1fe 	udiv	r1, r7, lr
 8000242:	0c22      	lsrs	r2, r4, #16
 8000244:	fb0e 7711 	mls	r7, lr, r1, r7
 8000248:	ea42 4207 	orr.w	r2, r2, r7, lsl #16
 800024c:	fb01 f005 	mul.w	r0, r1, r5
 8000250:	4290      	cmp	r0, r2
 8000252:	d90a      	bls.n	800026a <__udivmoddi4+0x62>
 8000254:	eb1c 0202 	adds.w	r2, ip, r2
 8000258:	f101 37ff 	add.w	r7, r1, #4294967295
 800025c:	f080 811c 	bcs.w	8000498 <__udivmoddi4+0x290>
 8000260:	4290      	cmp	r0, r2
 8000262:	f240 8119 	bls.w	8000498 <__udivmoddi4+0x290>
 8000266:	3902      	subs	r1, #2
 8000268:	4462      	add	r2, ip
 800026a:	1a12      	subs	r2, r2, r0
 800026c:	b2a4      	uxth	r4, r4
 800026e:	fbb2 f0fe 	udiv	r0, r2, lr
 8000272:	fb0e 2210 	mls	r2, lr, r0, r2
 8000276:	ea44 4402 	orr.w	r4, r4, r2, lsl #16
 800027a:	fb00 f505 	mul.w	r5, r0, r5
 800027e:	42a5      	cmp	r5, r4
 8000280:	d90a      	bls.n	8000298 <__udivmoddi4+0x90>
 8000282:	eb1c 0404 	adds.w	r4, ip, r4
 8000286:	f100 32ff 	add.w	r2, r0, #4294967295
 800028a:	f080 8107 	bcs.w	800049c <__udivmoddi4+0x294>
 800028e:	42a5      	cmp	r5, r4
 8000290:	f240 8104 	bls.w	800049c <__udivmoddi4+0x294>
 8000294:	4464      	add	r4, ip
 8000296:	3802      	subs	r0, #2
 8000298:	ea40 4001 	orr.w	r0, r0, r1, lsl #16
 800029c:	1b64      	subs	r4, r4, r5
 800029e:	2100      	movs	r1, #0
 80002a0:	b11e      	cbz	r6, 80002aa <__udivmoddi4+0xa2>
 80002a2:	40dc      	lsrs	r4, r3
 80002a4:	2300      	movs	r3, #0
 80002a6:	e9c6 4300 	strd	r4, r3, [r6]
 80002aa:	e8bd 87f0 	ldmia.w	sp!, {r4, r5, r6, r7, r8, r9, sl, pc}
 80002ae:	428b      	cmp	r3, r1
 80002b0:	d908      	bls.n	80002c4 <__udivmoddi4+0xbc>
 80002b2:	2e00      	cmp	r6, #0
 80002b4:	f000 80ed 	beq.w	8000492 <__udivmoddi4+0x28a>
 80002b8:	2100      	movs	r1, #0
 80002ba:	e9c6 0500 	strd	r0, r5, [r6]
 80002be:	4608      	mov	r0, r1
 80002c0:	e8bd 87f0 	ldmia.w	sp!, {r4, r5, r6, r7, r8, r9, sl, pc}
 80002c4:	fab3 f183 	clz	r1, r3
 80002c8:	2900      	cmp	r1, #0
 80002ca:	d149      	bne.n	8000360 <__udivmoddi4+0x158>
 80002cc:	42ab      	cmp	r3, r5
 80002ce:	d302      	bcc.n	80002d6 <__udivmoddi4+0xce>
 80002d0:	4282      	cmp	r2, r0
 80002d2:	f200 80f8 	bhi.w	80004c6 <__udivmoddi4+0x2be>
 80002d6:	1a84      	subs	r4, r0, r2
 80002d8:	eb65 0203 	sbc.w	r2, r5, r3
 80002dc:	2001      	movs	r0, #1
 80002de:	4617      	mov	r7, r2
 80002e0:	2e00      	cmp	r6, #0
 80002e2:	d0e2      	beq.n	80002aa <__udivmoddi4+0xa2>
 80002e4:	e9c6 4700 	strd	r4, r7, [r6]
 80002e8:	e7df      	b.n	80002aa <__udivmoddi4+0xa2>
 80002ea:	b902      	cbnz	r2, 80002ee <__udivmoddi4+0xe6>
 80002ec:	deff      	udf	#255	; 0xff
 80002ee:	fab2 f382 	clz	r3, r2
 80002f2:	2b00      	cmp	r3, #0
 80002f4:	f040 8090 	bne.w	8000418 <__udivmoddi4+0x210>
 80002f8:	1a8a      	subs	r2, r1, r2
 80002fa:	ea4f 471c 	mov.w	r7, ip, lsr #16
 80002fe:	fa1f fe8c 	uxth.w	lr, ip
 8000302:	2101      	movs	r1, #1
 8000304:	fbb2 f5f7 	udiv	r5, r2, r7
 8000308:	fb07 2015 	mls	r0, r7, r5, r2
 800030c:	0c22      	lsrs	r2, r4, #16
 800030e:	ea42 4200 	orr.w	r2, r2, r0, lsl #16
 8000312:	fb0e f005 	mul.w	r0, lr, r5
 8000316:	4290      	cmp	r0, r2
 8000318:	d908      	bls.n	800032c <__udivmoddi4+0x124>
 800031a:	eb1c 0202 	adds.w	r2, ip, r2
 800031e:	f105 38ff 	add.w	r8, r5, #4294967295
 8000322:	d202      	bcs.n	800032a <__udivmoddi4+0x122>
 8000324:	4290      	cmp	r0, r2
 8000326:	f200 80cb 	bhi.w	80004c0 <__udivmoddi4+0x2b8>
 800032a:	4645      	mov	r5, r8
 800032c:	1a12      	subs	r2, r2, r0
 800032e:	b2a4      	uxth	r4, r4
 8000330:	fbb2 f0f7 	udiv	r0, r2, r7
 8000334:	fb07 2210 	mls	r2, r7, r0, r2
 8000338:	ea44 4402 	orr.w	r4, r4, r2, lsl #16
 800033c:	fb0e fe00 	mul.w	lr, lr, r0
 8000340:	45a6      	cmp	lr, r4
 8000342:	d908      	bls.n	8000356 <__udivmoddi4+0x14e>
 8000344:	eb1c 0404 	adds.w	r4, ip, r4
 8000348:	f100 32ff 	add.w	r2, r0, #4294967295
 800034c:	d202      	bcs.n	8000354 <__udivmoddi4+0x14c>
 800034e:	45a6      	cmp	lr, r4
 8000350:	f200 80bb 	bhi.w	80004ca <__udivmoddi4+0x2c2>
 8000354:	4610      	mov	r0, r2
 8000356:	eba4 040e 	sub.w	r4, r4, lr
 800035a:	ea40 4005 	orr.w	r0, r0, r5, lsl #16
 800035e:	e79f      	b.n	80002a0 <__udivmoddi4+0x98>
 8000360:	f1c1 0720 	rsb	r7, r1, #32
 8000364:	408b      	lsls	r3, r1
 8000366:	fa22 fc07 	lsr.w	ip, r2, r7
 800036a:	ea4c 0c03 	orr.w	ip, ip, r3
 800036e:	fa05 f401 	lsl.w	r4, r5, r1
 8000372:	fa20 f307 	lsr.w	r3, r0, r7
 8000376:	40fd      	lsrs	r5, r7
 8000378:	ea4f 491c 	mov.w	r9, ip, lsr #16
 800037c:	4323      	orrs	r3, r4
 800037e:	fbb5 f8f9 	udiv	r8, r5, r9
 8000382:	fa1f fe8c 	uxth.w	lr, ip
 8000386:	fb09 5518 	mls	r5, r9, r8, r5
 800038a:	0c1c      	lsrs	r4, r3, #16
 800038c:	ea44 4405 	orr.w	r4, r4, r5, lsl #16
 8000390:	fb08 f50e 	mul.w	r5, r8, lr
 8000394:	42a5      	cmp	r5, r4
 8000396:	fa02 f201 	lsl.w	r2, r2, r1
 800039a:	fa00 f001 	lsl.w	r0, r0, r1
 800039e:	d90b      	bls.n	80003b8 <__udivmoddi4+0x1b0>
 80003a0:	eb1c 0404 	adds.w	r4, ip, r4
 80003a4:	f108 3aff 	add.w	sl, r8, #4294967295
 80003a8:	f080 8088 	bcs.w	80004bc <__udivmoddi4+0x2b4>
 80003ac:	42a5      	cmp	r5, r4
 80003ae:	f240 8085 	bls.w	80004bc <__udivmoddi4+0x2b4>
 80003b2:	f1a8 0802 	sub.w	r8, r8, #2
 80003b6:	4464      	add	r4, ip
 80003b8:	1b64      	subs	r4, r4, r5
 80003ba:	b29d      	uxth	r5, r3
 80003bc:	fbb4 f3f9 	udiv	r3, r4, r9
 80003c0:	fb09 4413 	mls	r4, r9, r3, r4
 80003c4:	ea45 4404 	orr.w	r4, r5, r4, lsl #16
 80003c8:	fb03 fe0e 	mul.w	lr, r3, lr
 80003cc:	45a6      	cmp	lr, r4
 80003ce:	d908      	bls.n	80003e2 <__udivmoddi4+0x1da>
 80003d0:	eb1c 0404 	adds.w	r4, ip, r4
 80003d4:	f103 35ff 	add.w	r5, r3, #4294967295
 80003d8:	d26c      	bcs.n	80004b4 <__udivmoddi4+0x2ac>
 80003da:	45a6      	cmp	lr, r4
 80003dc:	d96a      	bls.n	80004b4 <__udivmoddi4+0x2ac>
 80003de:	3b02      	subs	r3, #2
 80003e0:	4464      	add	r4, ip
 80003e2:	ea43 4308 	orr.w	r3, r3, r8, lsl #16
 80003e6:	fba3 9502 	umull	r9, r5, r3, r2
 80003ea:	eba4 040e 	sub.w	r4, r4, lr
 80003ee:	42ac      	cmp	r4, r5
 80003f0:	46c8      	mov	r8, r9
 80003f2:	46ae      	mov	lr, r5
 80003f4:	d356      	bcc.n	80004a4 <__udivmoddi4+0x29c>
 80003f6:	d053      	beq.n	80004a0 <__udivmoddi4+0x298>
 80003f8:	b156      	cbz	r6, 8000410 <__udivmoddi4+0x208>
 80003fa:	ebb0 0208 	subs.w	r2, r0, r8
 80003fe:	eb64 040e 	sbc.w	r4, r4, lr
 8000402:	fa04 f707 	lsl.w	r7, r4, r7
 8000406:	40ca      	lsrs	r2, r1
 8000408:	40cc      	lsrs	r4, r1
 800040a:	4317      	orrs	r7, r2
 800040c:	e9c6 7400 	strd	r7, r4, [r6]
 8000410:	4618      	mov	r0, r3
 8000412:	2100      	movs	r1, #0
 8000414:	e8bd 87f0 	ldmia.w	sp!, {r4, r5, r6, r7, r8, r9, sl, pc}
 8000418:	f1c3 0120 	rsb	r1, r3, #32
 800041c:	fa02 fc03 	lsl.w	ip, r2, r3
 8000420:	fa20 f201 	lsr.w	r2, r0, r1
 8000424:	fa25 f101 	lsr.w	r1, r5, r1
 8000428:	409d      	lsls	r5, r3
 800042a:	432a      	orrs	r2, r5
 800042c:	ea4f 471c 	mov.w	r7, ip, lsr #16
 8000430:	fa1f fe8c 	uxth.w	lr, ip
 8000434:	fbb1 f0f7 	udiv	r0, r1, r7
 8000438:	fb07 1510 	mls	r5, r7, r0, r1
 800043c:	0c11      	lsrs	r1, r2, #16
 800043e:	ea41 4105 	orr.w	r1, r1, r5, lsl #16
 8000442:	fb00 f50e 	mul.w	r5, r0, lr
 8000446:	428d      	cmp	r5, r1
 8000448:	fa04 f403 	lsl.w	r4, r4, r3
 800044c:	d908      	bls.n	8000460 <__udivmoddi4+0x258>
 800044e:	eb1c 0101 	adds.w	r1, ip, r1
 8000452:	f100 38ff 	add.w	r8, r0, #4294967295
 8000456:	d22f      	bcs.n	80004b8 <__udivmoddi4+0x2b0>
 8000458:	428d      	cmp	r5, r1
 800045a:	d92d      	bls.n	80004b8 <__udivmoddi4+0x2b0>
 800045c:	3802      	subs	r0, #2
 800045e:	4461      	add	r1, ip
 8000460:	1b49      	subs	r1, r1, r5
 8000462:	b292      	uxth	r2, r2
 8000464:	fbb1 f5f7 	udiv	r5, r1, r7
 8000468:	fb07 1115 	mls	r1, r7, r5, r1
 800046c:	ea42 4201 	orr.w	r2, r2, r1, lsl #16
 8000470:	fb05 f10e 	mul.w	r1, r5, lr
 8000474:	4291      	cmp	r1, r2
 8000476:	d908      	bls.n	800048a <__udivmoddi4+0x282>
 8000478:	eb1c 0202 	adds.w	r2, ip, r2
 800047c:	f105 38ff 	add.w	r8, r5, #4294967295
 8000480:	d216      	bcs.n	80004b0 <__udivmoddi4+0x2a8>
 8000482:	4291      	cmp	r1, r2
 8000484:	d914      	bls.n	80004b0 <__udivmoddi4+0x2a8>
 8000486:	3d02      	subs	r5, #2
 8000488:	4462      	add	r2, ip
 800048a:	1a52      	subs	r2, r2, r1
 800048c:	ea45 4100 	orr.w	r1, r5, r0, lsl #16
 8000490:	e738      	b.n	8000304 <__udivmoddi4+0xfc>
 8000492:	4631      	mov	r1, r6
 8000494:	4630      	mov	r0, r6
 8000496:	e708      	b.n	80002aa <__udivmoddi4+0xa2>
 8000498:	4639      	mov	r1, r7
 800049a:	e6e6      	b.n	800026a <__udivmoddi4+0x62>
 800049c:	4610      	mov	r0, r2
 800049e:	e6fb      	b.n	8000298 <__udivmoddi4+0x90>
 80004a0:	4548      	cmp	r0, r9
 80004a2:	d2a9      	bcs.n	80003f8 <__udivmoddi4+0x1f0>
 80004a4:	ebb9 0802 	subs.w	r8, r9, r2
 80004a8:	eb65 0e0c 	sbc.w	lr, r5, ip
 80004ac:	3b01      	subs	r3, #1
 80004ae:	e7a3      	b.n	80003f8 <__udivmoddi4+0x1f0>
 80004b0:	4645      	mov	r5, r8
 80004b2:	e7ea      	b.n	800048a <__udivmoddi4+0x282>
 80004b4:	462b      	mov	r3, r5
 80004b6:	e794      	b.n	80003e2 <__udivmoddi4+0x1da>
 80004b8:	4640      	mov	r0, r8
 80004ba:	e7d1      	b.n	8000460 <__udivmoddi4+0x258>
 80004bc:	46d0      	mov	r8, sl
 80004be:	e77b      	b.n	80003b8 <__udivmoddi4+0x1b0>
 80004c0:	3d02      	subs	r5, #2
 80004c2:	4462      	add	r2, ip
 80004c4:	e732      	b.n	800032c <__udivmoddi4+0x124>
 80004c6:	4608      	mov	r0, r1
 80004c8:	e70a      	b.n	80002e0 <__udivmoddi4+0xd8>
 80004ca:	4464      	add	r4, ip
 80004cc:	3802      	subs	r0, #2
 80004ce:	e742      	b.n	8000356 <__udivmoddi4+0x14e>

080004d0 <__aeabi_idiv0>:
 80004d0:	4770      	bx	lr
 80004d2:	bf00      	nop

080004d4 <I2S3_Init>:
 80004d4:	4a0c      	ldr	r2, [pc, #48]	; (8000508 <I2S3_Init+0x34>)
 80004d6:	69d1      	ldr	r1, [r2, #28]
 80004d8:	b508      	push	{r3, lr}
 80004da:	4b0c      	ldr	r3, [pc, #48]	; (800050c <I2S3_Init+0x38>)
 80004dc:	f421 6180 	bic.w	r1, r1, #1024	; 0x400
 80004e0:	601a      	str	r2, [r3, #0]
 80004e2:	61d1      	str	r1, [r2, #28]
 80004e4:	2200      	movs	r2, #0
 80004e6:	f44f 7100 	mov.w	r1, #512	; 0x200
 80004ea:	6158      	str	r0, [r3, #20]
 80004ec:	4618      	mov	r0, r3
 80004ee:	e9c3 2206 	strd	r2, r2, [r3, #24]
 80004f2:	e9c3 1201 	strd	r1, r2, [r3, #4]
 80004f6:	60da      	str	r2, [r3, #12]
 80004f8:	6119      	str	r1, [r3, #16]
 80004fa:	f003 fb07 	bl	8003b0c <HAL_I2S_Init>
 80004fe:	3800      	subs	r0, #0
 8000500:	bf18      	it	ne
 8000502:	2001      	movne	r0, #1
 8000504:	bd08      	pop	{r3, pc}
 8000506:	bf00      	nop
 8000508:	40003c00 	.word	0x40003c00
 800050c:	20000118 	.word	0x20000118

08000510 <AUDIO_OUT_Play>:
 8000510:	b538      	push	{r3, r4, r5, lr}
 8000512:	4b0c      	ldr	r3, [pc, #48]	; (8000544 <AUDIO_OUT_Play+0x34>)
 8000514:	681b      	ldr	r3, [r3, #0]
 8000516:	4605      	mov	r5, r0
 8000518:	460c      	mov	r4, r1
 800051a:	b28a      	uxth	r2, r1
 800051c:	68db      	ldr	r3, [r3, #12]
 800051e:	4601      	mov	r1, r0
 8000520:	2094      	movs	r0, #148	; 0x94
 8000522:	4798      	blx	r3
 8000524:	b960      	cbnz	r0, 8000540 <AUDIO_OUT_Play+0x30>
 8000526:	f5b4 3f00 	cmp.w	r4, #131072	; 0x20000
 800052a:	4807      	ldr	r0, [pc, #28]	; (8000548 <AUDIO_OUT_Play+0x38>)
 800052c:	bf34      	ite	cc
 800052e:	f3c4 024f 	ubfxcc	r2, r4, #1, #16
 8000532:	f64f 72ff 	movwcs	r2, #65535	; 0xffff
 8000536:	4629      	mov	r1, r5
 8000538:	f003 fb88 	bl	8003c4c <HAL_I2S_Transmit_DMA>
 800053c:	2000      	movs	r0, #0
 800053e:	bd38      	pop	{r3, r4, r5, pc}
 8000540:	2001      	movs	r0, #1
 8000542:	e7fc      	b.n	800053e <AUDIO_OUT_Play+0x2e>
 8000544:	200001c0 	.word	0x200001c0
 8000548:	20000118 	.word	0x20000118

0800054c <AUDIO_OUT_Pause>:
 800054c:	4b07      	ldr	r3, [pc, #28]	; (800056c <AUDIO_OUT_Pause+0x20>)
 800054e:	681b      	ldr	r3, [r3, #0]
 8000550:	b510      	push	{r4, lr}
 8000552:	691b      	ldr	r3, [r3, #16]
 8000554:	2094      	movs	r0, #148	; 0x94
 8000556:	4798      	blx	r3
 8000558:	4604      	mov	r4, r0
 800055a:	b920      	cbnz	r0, 8000566 <AUDIO_OUT_Pause+0x1a>
 800055c:	4804      	ldr	r0, [pc, #16]	; (8000570 <AUDIO_OUT_Pause+0x24>)
 800055e:	f003 fbd9 	bl	8003d14 <HAL_I2S_DMAPause>
 8000562:	4620      	mov	r0, r4
 8000564:	bd10      	pop	{r4, pc}
 8000566:	2001      	movs	r0, #1
 8000568:	e7fc      	b.n	8000564 <AUDIO_OUT_Pause+0x18>
 800056a:	bf00      	nop
 800056c:	200001c0 	.word	0x200001c0
 8000570:	20000118 	.word	0x20000118

08000574 <AUDIO_OUT_Resume>:
 8000574:	4b07      	ldr	r3, [pc, #28]	; (8000594 <AUDIO_OUT_Resume+0x20>)
 8000576:	681b      	ldr	r3, [r3, #0]
 8000578:	b510      	push	{r4, lr}
 800057a:	695b      	ldr	r3, [r3, #20]
 800057c:	2094      	movs	r0, #148	; 0x94
 800057e:	4798      	blx	r3
 8000580:	4604      	mov	r4, r0
 8000582:	b920      	cbnz	r0, 800058e <AUDIO_OUT_Resume+0x1a>
 8000584:	4804      	ldr	r0, [pc, #16]	; (8000598 <AUDIO_OUT_Resume+0x24>)
 8000586:	f003 fbfd 	bl	8003d84 <HAL_I2S_DMAResume>
 800058a:	4620      	mov	r0, r4
 800058c:	bd10      	pop	{r4, pc}
 800058e:	2001      	movs	r0, #1
 8000590:	e7fc      	b.n	800058c <AUDIO_OUT_Resume+0x18>
 8000592:	bf00      	nop
 8000594:	200001c0 	.word	0x200001c0
 8000598:	20000118 	.word	0x20000118

0800059c <AUDIO_OUT_Stop>:
 800059c:	b538      	push	{r3, r4, r5, lr}
 800059e:	4605      	mov	r5, r0
 80005a0:	480c      	ldr	r0, [pc, #48]	; (80005d4 <AUDIO_OUT_Stop+0x38>)
 80005a2:	f003 fc33 	bl	8003e0c <HAL_I2S_DMAStop>
 80005a6:	4b0c      	ldr	r3, [pc, #48]	; (80005d8 <AUDIO_OUT_Stop+0x3c>)
 80005a8:	681b      	ldr	r3, [r3, #0]
 80005aa:	4629      	mov	r1, r5
 80005ac:	699b      	ldr	r3, [r3, #24]
 80005ae:	2094      	movs	r0, #148	; 0x94
 80005b0:	4798      	blx	r3
 80005b2:	4604      	mov	r4, r0
 80005b4:	b958      	cbnz	r0, 80005ce <AUDIO_OUT_Stop+0x32>
 80005b6:	2d01      	cmp	r5, #1
 80005b8:	d107      	bne.n	80005ca <AUDIO_OUT_Stop+0x2e>
 80005ba:	4628      	mov	r0, r5
 80005bc:	f001 fc8e 	bl	8001edc <HAL_Delay>
 80005c0:	4806      	ldr	r0, [pc, #24]	; (80005dc <AUDIO_OUT_Stop+0x40>)
 80005c2:	4622      	mov	r2, r4
 80005c4:	2110      	movs	r1, #16
 80005c6:	f002 f84f 	bl	8002668 <HAL_GPIO_WritePin>
 80005ca:	4620      	mov	r0, r4
 80005cc:	e000      	b.n	80005d0 <AUDIO_OUT_Stop+0x34>
 80005ce:	2001      	movs	r0, #1
 80005d0:	bd38      	pop	{r3, r4, r5, pc}
 80005d2:	bf00      	nop
 80005d4:	20000118 	.word	0x20000118
 80005d8:	200001c0 	.word	0x200001c0
 80005dc:	40020c00 	.word	0x40020c00

080005e0 <AUDIO_OUT_SetVolume>:
 80005e0:	b508      	push	{r3, lr}
 80005e2:	4b05      	ldr	r3, [pc, #20]	; (80005f8 <AUDIO_OUT_SetVolume+0x18>)
 80005e4:	681b      	ldr	r3, [r3, #0]
 80005e6:	4601      	mov	r1, r0
 80005e8:	6a1b      	ldr	r3, [r3, #32]
 80005ea:	2094      	movs	r0, #148	; 0x94
 80005ec:	4798      	blx	r3
 80005ee:	3800      	subs	r0, #0
 80005f0:	bf18      	it	ne
 80005f2:	2001      	movne	r0, #1
 80005f4:	bd08      	pop	{r3, pc}
 80005f6:	bf00      	nop
 80005f8:	200001c0 	.word	0x200001c0

080005fc <AUDIO_OUT_ClockConfig>:
 80005fc:	b530      	push	{r4, r5, lr}
 80005fe:	4b14      	ldr	r3, [pc, #80]	; (8000650 <AUDIO_OUT_ClockConfig+0x54>)
 8000600:	b087      	sub	sp, #28
 8000602:	2400      	movs	r4, #0
 8000604:	25ff      	movs	r5, #255	; 0xff
 8000606:	f853 0b04 	ldr.w	r0, [r3], #4
 800060a:	b2e2      	uxtb	r2, r4
 800060c:	3401      	adds	r4, #1
 800060e:	4288      	cmp	r0, r1
 8000610:	bf08      	it	eq
 8000612:	4615      	moveq	r5, r2
 8000614:	2c08      	cmp	r4, #8
 8000616:	d1f6      	bne.n	8000606 <AUDIO_OUT_ClockConfig+0xa>
 8000618:	4668      	mov	r0, sp
 800061a:	f004 f9f3 	bl	8004a04 <HAL_RCCEx_GetPeriphCLKConfig>
 800061e:	2301      	movs	r3, #1
 8000620:	f015 0f07 	tst.w	r5, #7
 8000624:	e9cd 3400 	strd	r3, r4, [sp]
 8000628:	bf01      	itttt	eq
 800062a:	4b0a      	ldreq	r3, [pc, #40]	; (8000654 <AUDIO_OUT_ClockConfig+0x58>)
 800062c:	f853 3025 	ldreq.w	r3, [r3, r5, lsl #2]
 8000630:	9302      	streq	r3, [sp, #8]
 8000632:	4b09      	ldreq	r3, [pc, #36]	; (8000658 <AUDIO_OUT_ClockConfig+0x5c>)
 8000634:	bf16      	itet	ne
 8000636:	f44f 7381 	movne.w	r3, #258	; 0x102
 800063a:	f853 3025 	ldreq.w	r3, [r3, r5, lsl #2]
 800063e:	9302      	strne	r3, [sp, #8]
 8000640:	4668      	mov	r0, sp
 8000642:	bf18      	it	ne
 8000644:	2303      	movne	r3, #3
 8000646:	9303      	str	r3, [sp, #12]
 8000648:	f004 f93a 	bl	80048c0 <HAL_RCCEx_PeriphCLKConfig>
 800064c:	b007      	add	sp, #28
 800064e:	bd30      	pop	{r4, r5, pc}
 8000650:	08009048 	.word	0x08009048
 8000654:	08009068 	.word	0x08009068
 8000658:	08009088 	.word	0x08009088

0800065c <AUDIO_OUT_MspInit>:
 800065c:	b570      	push	{r4, r5, r6, lr}
 800065e:	b08a      	sub	sp, #40	; 0x28
 8000660:	4c3e      	ldr	r4, [pc, #248]	; (800075c <AUDIO_OUT_MspInit+0x100>)
 8000662:	2500      	movs	r5, #0
 8000664:	9500      	str	r5, [sp, #0]
 8000666:	6c23      	ldr	r3, [r4, #64]	; 0x40
 8000668:	f443 4300 	orr.w	r3, r3, #32768	; 0x8000
 800066c:	6423      	str	r3, [r4, #64]	; 0x40
 800066e:	6c23      	ldr	r3, [r4, #64]	; 0x40
 8000670:	f403 4300 	and.w	r3, r3, #32768	; 0x8000
 8000674:	9300      	str	r3, [sp, #0]
 8000676:	9b00      	ldr	r3, [sp, #0]
 8000678:	9501      	str	r5, [sp, #4]
 800067a:	6b23      	ldr	r3, [r4, #48]	; 0x30
 800067c:	f043 0304 	orr.w	r3, r3, #4
 8000680:	6323      	str	r3, [r4, #48]	; 0x30
 8000682:	6b23      	ldr	r3, [r4, #48]	; 0x30
 8000684:	f003 0304 	and.w	r3, r3, #4
 8000688:	9301      	str	r3, [sp, #4]
 800068a:	9b01      	ldr	r3, [sp, #4]
 800068c:	9502      	str	r5, [sp, #8]
 800068e:	6b23      	ldr	r3, [r4, #48]	; 0x30
 8000690:	f043 0301 	orr.w	r3, r3, #1
 8000694:	6323      	str	r3, [r4, #48]	; 0x30
 8000696:	6b23      	ldr	r3, [r4, #48]	; 0x30
 8000698:	f003 0301 	and.w	r3, r3, #1
 800069c:	9302      	str	r3, [sp, #8]
 800069e:	9b02      	ldr	r3, [sp, #8]
 80006a0:	4606      	mov	r6, r0
 80006a2:	2302      	movs	r3, #2
 80006a4:	f44f 50a0 	mov.w	r0, #5120	; 0x1400
 80006a8:	e9cd 0305 	strd	r0, r3, [sp, #20]
 80006ac:	e9cd 5307 	strd	r5, r3, [sp, #28]
 80006b0:	482b      	ldr	r0, [pc, #172]	; (8000760 <AUDIO_OUT_MspInit+0x104>)
 80006b2:	2306      	movs	r3, #6
 80006b4:	a905      	add	r1, sp, #20
 80006b6:	9309      	str	r3, [sp, #36]	; 0x24
 80006b8:	f001 fe92 	bl	80023e0 <HAL_GPIO_Init>
 80006bc:	2310      	movs	r3, #16
 80006be:	4829      	ldr	r0, [pc, #164]	; (8000764 <AUDIO_OUT_MspInit+0x108>)
 80006c0:	9305      	str	r3, [sp, #20]
 80006c2:	a905      	add	r1, sp, #20
 80006c4:	f001 fe8c 	bl	80023e0 <HAL_GPIO_Init>
 80006c8:	9503      	str	r5, [sp, #12]
 80006ca:	6b23      	ldr	r3, [r4, #48]	; 0x30
 80006cc:	4824      	ldr	r0, [pc, #144]	; (8000760 <AUDIO_OUT_MspInit+0x104>)
 80006ce:	f043 0304 	orr.w	r3, r3, #4
 80006d2:	6323      	str	r3, [r4, #48]	; 0x30
 80006d4:	6b23      	ldr	r3, [r4, #48]	; 0x30
 80006d6:	f003 0304 	and.w	r3, r3, #4
 80006da:	9303      	str	r3, [sp, #12]
 80006dc:	9b03      	ldr	r3, [sp, #12]
 80006de:	a905      	add	r1, sp, #20
 80006e0:	2380      	movs	r3, #128	; 0x80
 80006e2:	9305      	str	r3, [sp, #20]
 80006e4:	f001 fe7c 	bl	80023e0 <HAL_GPIO_Init>
 80006e8:	9504      	str	r5, [sp, #16]
 80006ea:	6b23      	ldr	r3, [r4, #48]	; 0x30
 80006ec:	6832      	ldr	r2, [r6, #0]
 80006ee:	f443 1300 	orr.w	r3, r3, #2097152	; 0x200000
 80006f2:	6323      	str	r3, [r4, #48]	; 0x30
 80006f4:	6b23      	ldr	r3, [r4, #48]	; 0x30
 80006f6:	f403 1300 	and.w	r3, r3, #2097152	; 0x200000
 80006fa:	9304      	str	r3, [sp, #16]
 80006fc:	9b04      	ldr	r3, [sp, #16]
 80006fe:	4b1a      	ldr	r3, [pc, #104]	; (8000768 <AUDIO_OUT_MspInit+0x10c>)
 8000700:	429a      	cmp	r2, r3
 8000702:	d121      	bne.n	8000748 <AUDIO_OUT_MspInit+0xec>
 8000704:	4c19      	ldr	r4, [pc, #100]	; (800076c <AUDIO_OUT_MspInit+0x110>)
 8000706:	63b4      	str	r4, [r6, #56]	; 0x38
 8000708:	2340      	movs	r3, #64	; 0x40
 800070a:	e9c4 3502 	strd	r3, r5, [r4, #8]
 800070e:	f44f 6280 	mov.w	r2, #1024	; 0x400
 8000712:	f44f 6300 	mov.w	r3, #2048	; 0x800
 8000716:	e9c4 2304 	strd	r2, r3, [r4, #16]
 800071a:	f44f 5300 	mov.w	r3, #8192	; 0x2000
 800071e:	e9c4 3506 	strd	r3, r5, [r4, #24]
 8000722:	f44f 3100 	mov.w	r1, #131072	; 0x20000
 8000726:	2304      	movs	r3, #4
 8000728:	e9c4 1308 	strd	r1, r3, [r4, #32]
 800072c:	2303      	movs	r3, #3
 800072e:	e9c4 350a 	strd	r3, r5, [r4, #40]	; 0x28
 8000732:	4620      	mov	r0, r4
 8000734:	4b0e      	ldr	r3, [pc, #56]	; (8000770 <AUDIO_OUT_MspInit+0x114>)
 8000736:	6065      	str	r5, [r4, #4]
 8000738:	6325      	str	r5, [r4, #48]	; 0x30
 800073a:	6023      	str	r3, [r4, #0]
 800073c:	63a6      	str	r6, [r4, #56]	; 0x38
 800073e:	f001 fcdb 	bl	80020f8 <HAL_DMA_DeInit>
 8000742:	4620      	mov	r0, r4
 8000744:	f001 fc5a 	bl	8001ffc <HAL_DMA_Init>
 8000748:	2200      	movs	r2, #0
 800074a:	210e      	movs	r1, #14
 800074c:	202f      	movs	r0, #47	; 0x2f
 800074e:	f001 fbeb 	bl	8001f28 <HAL_NVIC_SetPriority>
 8000752:	202f      	movs	r0, #47	; 0x2f
 8000754:	f001 fc1a 	bl	8001f8c <HAL_NVIC_EnableIRQ>
 8000758:	b00a      	add	sp, #40	; 0x28
 800075a:	bd70      	pop	{r4, r5, r6, pc}
 800075c:	40023800 	.word	0x40023800
 8000760:	40020800 	.word	0x40020800
 8000764:	40020000 	.word	0x40020000
 8000768:	40003c00 	.word	0x40003c00
 800076c:	20000160 	.word	0x20000160
 8000770:	400260b8 	.word	0x400260b8

08000774 <AUDIO_OUT_Init>:
 8000774:	e92d 41f0 	stmdb	sp!, {r4, r5, r6, r7, r8, lr}
 8000778:	4c18      	ldr	r4, [pc, #96]	; (80007dc <AUDIO_OUT_Init+0x68>)
 800077a:	4615      	mov	r5, r2
 800077c:	4606      	mov	r6, r0
 800077e:	2200      	movs	r2, #0
 8000780:	4620      	mov	r0, r4
 8000782:	460f      	mov	r7, r1
 8000784:	4629      	mov	r1, r5
 8000786:	f7ff ff39 	bl	80005fc <AUDIO_OUT_ClockConfig>
 800078a:	4b15      	ldr	r3, [pc, #84]	; (80007e0 <AUDIO_OUT_Init+0x6c>)
 800078c:	6023      	str	r3, [r4, #0]
 800078e:	4620      	mov	r0, r4
 8000790:	f003 fcda 	bl	8004148 <HAL_I2S_GetState>
 8000794:	4601      	mov	r1, r0
 8000796:	b910      	cbnz	r0, 800079e <AUDIO_OUT_Init+0x2a>
 8000798:	4620      	mov	r0, r4
 800079a:	f7ff ff5f 	bl	800065c <AUDIO_OUT_MspInit>
 800079e:	4628      	mov	r0, r5
 80007a0:	f7ff fe98 	bl	80004d4 <I2S3_Init>
 80007a4:	4604      	mov	r4, r0
 80007a6:	b118      	cbz	r0, 80007b0 <AUDIO_OUT_Init+0x3c>
 80007a8:	2401      	movs	r4, #1
 80007aa:	4620      	mov	r0, r4
 80007ac:	e8bd 81f0 	ldmia.w	sp!, {r4, r5, r6, r7, r8, pc}
 80007b0:	f8df 8034 	ldr.w	r8, [pc, #52]	; 80007e8 <AUDIO_OUT_Init+0x74>
 80007b4:	2094      	movs	r0, #148	; 0x94
 80007b6:	f8d8 3008 	ldr.w	r3, [r8, #8]
 80007ba:	4798      	blx	r3
 80007bc:	f000 00f8 	and.w	r0, r0, #248	; 0xf8
 80007c0:	28e0      	cmp	r0, #224	; 0xe0
 80007c2:	d1f1      	bne.n	80007a8 <AUDIO_OUT_Init+0x34>
 80007c4:	4b07      	ldr	r3, [pc, #28]	; (80007e4 <AUDIO_OUT_Init+0x70>)
 80007c6:	463a      	mov	r2, r7
 80007c8:	f8c3 8000 	str.w	r8, [r3]
 80007cc:	4631      	mov	r1, r6
 80007ce:	f8d8 8000 	ldr.w	r8, [r8]
 80007d2:	462b      	mov	r3, r5
 80007d4:	2094      	movs	r0, #148	; 0x94
 80007d6:	47c0      	blx	r8
 80007d8:	e7e7      	b.n	80007aa <AUDIO_OUT_Init+0x36>
 80007da:	bf00      	nop
 80007dc:	20000118 	.word	0x20000118
 80007e0:	40003c00 	.word	0x40003c00
 80007e4:	200001c0 	.word	0x200001c0
 80007e8:	20000008 	.word	0x20000008

080007ec <HAL_I2S_TxCpltCallback>:
 80007ec:	b508      	push	{r3, lr}
 80007ee:	6802      	ldr	r2, [r0, #0]
 80007f0:	4b02      	ldr	r3, [pc, #8]	; (80007fc <HAL_I2S_TxCpltCallback+0x10>)
 80007f2:	429a      	cmp	r2, r3
 80007f4:	d101      	bne.n	80007fa <HAL_I2S_TxCpltCallback+0xe>
 80007f6:	f001 fadf 	bl	8001db8 <AUDIO_OUT_TransferComplete_CallBack>
 80007fa:	bd08      	pop	{r3, pc}
 80007fc:	40003c00 	.word	0x40003c00

08000800 <HAL_I2S_TxHalfCpltCallback>:
 8000800:	b508      	push	{r3, lr}
 8000802:	6802      	ldr	r2, [r0, #0]
 8000804:	4b02      	ldr	r3, [pc, #8]	; (8000810 <HAL_I2S_TxHalfCpltCallback+0x10>)
 8000806:	429a      	cmp	r2, r3
 8000808:	d101      	bne.n	800080e <HAL_I2S_TxHalfCpltCallback+0xe>
 800080a:	f001 fae1 	bl	8001dd0 <AUDIO_OUT_HalfTransfer_CallBack>
 800080e:	bd08      	pop	{r3, pc}
 8000810:	40003c00 	.word	0x40003c00

08000814 <AUDIO_OUT_Error_CallBack>:
 8000814:	4770      	bx	lr
	...

08000818 <HAL_I2S_ErrorCallback>:
 8000818:	b508      	push	{r3, lr}
 800081a:	6802      	ldr	r2, [r0, #0]
 800081c:	4b02      	ldr	r3, [pc, #8]	; (8000828 <HAL_I2S_ErrorCallback+0x10>)
 800081e:	429a      	cmp	r2, r3
 8000820:	d101      	bne.n	8000826 <HAL_I2S_ErrorCallback+0xe>
 8000822:	f7ff fff7 	bl	8000814 <AUDIO_OUT_Error_CallBack>
 8000826:	bd08      	pop	{r3, pc}
 8000828:	40003c00 	.word	0x40003c00

0800082c <I2Cx_Init>:
 800082c:	b570      	push	{r4, r5, r6, lr}
 800082e:	4d2d      	ldr	r5, [pc, #180]	; (80008e4 <I2Cx_Init+0xb8>)
 8000830:	b088      	sub	sp, #32
 8000832:	4628      	mov	r0, r5
 8000834:	f003 f942 	bl	8003abc <HAL_I2C_GetState>
 8000838:	4604      	mov	r4, r0
 800083a:	2800      	cmp	r0, #0
 800083c:	d14f      	bne.n	80008de <I2Cx_Init+0xb2>
 800083e:	4b2a      	ldr	r3, [pc, #168]	; (80008e8 <I2Cx_Init+0xbc>)
 8000840:	602b      	str	r3, [r5, #0]
 8000842:	2343      	movs	r3, #67	; 0x43
 8000844:	60eb      	str	r3, [r5, #12]
 8000846:	4b29      	ldr	r3, [pc, #164]	; (80008ec <I2Cx_Init+0xc0>)
 8000848:	4e29      	ldr	r6, [pc, #164]	; (80008f0 <I2Cx_Init+0xc4>)
 800084a:	9001      	str	r0, [sp, #4]
 800084c:	e9c5 3001 	strd	r3, r0, [r5, #4]
 8000850:	f44f 4380 	mov.w	r3, #16384	; 0x4000
 8000854:	e9c5 3004 	strd	r3, r0, [r5, #16]
 8000858:	e9c5 0006 	strd	r0, r0, [r5, #24]
 800085c:	6228      	str	r0, [r5, #32]
 800085e:	6c33      	ldr	r3, [r6, #64]	; 0x40
 8000860:	f443 1300 	orr.w	r3, r3, #2097152	; 0x200000
 8000864:	6433      	str	r3, [r6, #64]	; 0x40
 8000866:	6c33      	ldr	r3, [r6, #64]	; 0x40
 8000868:	f403 1300 	and.w	r3, r3, #2097152	; 0x200000
 800086c:	9301      	str	r3, [sp, #4]
 800086e:	9b01      	ldr	r3, [sp, #4]
 8000870:	9002      	str	r0, [sp, #8]
 8000872:	6b33      	ldr	r3, [r6, #48]	; 0x30
 8000874:	f043 0302 	orr.w	r3, r3, #2
 8000878:	6333      	str	r3, [r6, #48]	; 0x30
 800087a:	6b33      	ldr	r3, [r6, #48]	; 0x30
 800087c:	9405      	str	r4, [sp, #20]
 800087e:	f003 0302 	and.w	r3, r3, #2
 8000882:	9302      	str	r3, [sp, #8]
 8000884:	9b02      	ldr	r3, [sp, #8]
 8000886:	f44f 7010 	mov.w	r0, #576	; 0x240
 800088a:	2312      	movs	r3, #18
 800088c:	f04f 0c02 	mov.w	ip, #2
 8000890:	e9cd 0303 	strd	r0, r3, [sp, #12]
 8000894:	a903      	add	r1, sp, #12
 8000896:	2304      	movs	r3, #4
 8000898:	4816      	ldr	r0, [pc, #88]	; (80008f4 <I2Cx_Init+0xc8>)
 800089a:	e9cd c306 	strd	ip, r3, [sp, #24]
 800089e:	f001 fd9f 	bl	80023e0 <HAL_GPIO_Init>
 80008a2:	6a33      	ldr	r3, [r6, #32]
 80008a4:	f443 1300 	orr.w	r3, r3, #2097152	; 0x200000
 80008a8:	6233      	str	r3, [r6, #32]
 80008aa:	6a33      	ldr	r3, [r6, #32]
 80008ac:	f423 1300 	bic.w	r3, r3, #2097152	; 0x200000
 80008b0:	6233      	str	r3, [r6, #32]
 80008b2:	4622      	mov	r2, r4
 80008b4:	210f      	movs	r1, #15
 80008b6:	201f      	movs	r0, #31
 80008b8:	f001 fb36 	bl	8001f28 <HAL_NVIC_SetPriority>
 80008bc:	201f      	movs	r0, #31
 80008be:	f001 fb65 	bl	8001f8c <HAL_NVIC_EnableIRQ>
 80008c2:	4622      	mov	r2, r4
 80008c4:	210f      	movs	r1, #15
 80008c6:	2020      	movs	r0, #32
 80008c8:	f001 fb2e 	bl	8001f28 <HAL_NVIC_SetPriority>
 80008cc:	2020      	movs	r0, #32
 80008ce:	f001 fb5d 	bl	8001f8c <HAL_NVIC_EnableIRQ>
 80008d2:	4628      	mov	r0, r5
 80008d4:	b008      	add	sp, #32
 80008d6:	e8bd 4070 	ldmia.w	sp!, {r4, r5, r6, lr}
 80008da:	f002 bd0d 	b.w	80032f8 <HAL_I2C_Init>
 80008de:	b008      	add	sp, #32
 80008e0:	bd70      	pop	{r4, r5, r6, pc}
 80008e2:	bf00      	nop
 80008e4:	200001c4 	.word	0x200001c4
 80008e8:	40005400 	.word	0x40005400
 80008ec:	000186a0 	.word	0x000186a0
 80008f0:	40023800 	.word	0x40023800
 80008f4:	40020400 	.word	0x40020400

080008f8 <AUDIO_IO_Init>:
 80008f8:	b5f0      	push	{r4, r5, r6, r7, lr}
 80008fa:	b087      	sub	sp, #28
 80008fc:	2600      	movs	r6, #0
 80008fe:	4b15      	ldr	r3, [pc, #84]	; (8000954 <AUDIO_IO_Init+0x5c>)
 8000900:	9600      	str	r6, [sp, #0]
 8000902:	6b1a      	ldr	r2, [r3, #48]	; 0x30
 8000904:	4c14      	ldr	r4, [pc, #80]	; (8000958 <AUDIO_IO_Init+0x60>)
 8000906:	f042 0208 	orr.w	r2, r2, #8
 800090a:	631a      	str	r2, [r3, #48]	; 0x30
 800090c:	6b1b      	ldr	r3, [r3, #48]	; 0x30
 800090e:	f003 0308 	and.w	r3, r3, #8
 8000912:	9300      	str	r3, [sp, #0]
 8000914:	2510      	movs	r5, #16
 8000916:	a901      	add	r1, sp, #4
 8000918:	4620      	mov	r0, r4
 800091a:	9b00      	ldr	r3, [sp, #0]
 800091c:	2701      	movs	r7, #1
 800091e:	2302      	movs	r3, #2
 8000920:	e9cd 6303 	strd	r6, r3, [sp, #12]
 8000924:	e9cd 5701 	strd	r5, r7, [sp, #4]
 8000928:	f001 fd5a 	bl	80023e0 <HAL_GPIO_Init>
 800092c:	f7ff ff7e 	bl	800082c <I2Cx_Init>
 8000930:	4632      	mov	r2, r6
 8000932:	4629      	mov	r1, r5
 8000934:	4620      	mov	r0, r4
 8000936:	f001 fe97 	bl	8002668 <HAL_GPIO_WritePin>
 800093a:	2005      	movs	r0, #5
 800093c:	f001 face 	bl	8001edc <HAL_Delay>
 8000940:	463a      	mov	r2, r7
 8000942:	4629      	mov	r1, r5
 8000944:	4620      	mov	r0, r4
 8000946:	f001 fe8f 	bl	8002668 <HAL_GPIO_WritePin>
 800094a:	2005      	movs	r0, #5
 800094c:	f001 fac6 	bl	8001edc <HAL_Delay>
 8000950:	b007      	add	sp, #28
 8000952:	bdf0      	pop	{r4, r5, r6, r7, pc}
 8000954:	40023800 	.word	0x40023800
 8000958:	40020c00 	.word	0x40020c00

0800095c <AUDIO_IO_DeInit>:
 800095c:	4770      	bx	lr
	...

08000960 <AUDIO_IO_Write>:
 8000960:	b57f      	push	{r0, r1, r2, r3, r4, r5, r6, lr}
 8000962:	4b0c      	ldr	r3, [pc, #48]	; (8000994 <AUDIO_IO_Write+0x34>)
 8000964:	f88d 2017 	strb.w	r2, [sp, #23]
 8000968:	681b      	ldr	r3, [r3, #0]
 800096a:	9302      	str	r3, [sp, #8]
 800096c:	f10d 0217 	add.w	r2, sp, #23
 8000970:	2301      	movs	r3, #1
 8000972:	9200      	str	r2, [sp, #0]
 8000974:	9301      	str	r3, [sp, #4]
 8000976:	460a      	mov	r2, r1
 8000978:	4601      	mov	r1, r0
 800097a:	4807      	ldr	r0, [pc, #28]	; (8000998 <AUDIO_IO_Write+0x38>)
 800097c:	f002 fe56 	bl	800362c <HAL_I2C_Mem_Write>
 8000980:	b120      	cbz	r0, 800098c <AUDIO_IO_Write+0x2c>
 8000982:	4805      	ldr	r0, [pc, #20]	; (8000998 <AUDIO_IO_Write+0x38>)
 8000984:	f002 fd60 	bl	8003448 <HAL_I2C_DeInit>
 8000988:	f7ff ff50 	bl	800082c <I2Cx_Init>
 800098c:	b007      	add	sp, #28
 800098e:	f85d fb04 	ldr.w	pc, [sp], #4
 8000992:	bf00      	nop
 8000994:	20000000 	.word	0x20000000
 8000998:	200001c4 	.word	0x200001c4

0800099c <AUDIO_IO_Read>:
 800099c:	b57f      	push	{r0, r1, r2, r3, r4, r5, r6, lr}
 800099e:	2300      	movs	r3, #0
 80009a0:	f88d 3017 	strb.w	r3, [sp, #23]
 80009a4:	4b0b      	ldr	r3, [pc, #44]	; (80009d4 <AUDIO_IO_Read+0x38>)
 80009a6:	681b      	ldr	r3, [r3, #0]
 80009a8:	9302      	str	r3, [sp, #8]
 80009aa:	460a      	mov	r2, r1
 80009ac:	2301      	movs	r3, #1
 80009ae:	f10d 0117 	add.w	r1, sp, #23
 80009b2:	9100      	str	r1, [sp, #0]
 80009b4:	9301      	str	r3, [sp, #4]
 80009b6:	4601      	mov	r1, r0
 80009b8:	4807      	ldr	r0, [pc, #28]	; (80009d8 <AUDIO_IO_Read+0x3c>)
 80009ba:	f002 fec7 	bl	800374c <HAL_I2C_Mem_Read>
 80009be:	b120      	cbz	r0, 80009ca <AUDIO_IO_Read+0x2e>
 80009c0:	4805      	ldr	r0, [pc, #20]	; (80009d8 <AUDIO_IO_Read+0x3c>)
 80009c2:	f002 fd41 	bl	8003448 <HAL_I2C_DeInit>
 80009c6:	f7ff ff31 	bl	800082c <I2Cx_Init>
 80009ca:	f89d 0017 	ldrb.w	r0, [sp, #23]
 80009ce:	b007      	add	sp, #28
 80009d0:	f85d fb04 	ldr.w	pc, [sp], #4
 80009d4:	20000000 	.word	0x20000000
 80009d8:	200001c4 	.word	0x200001c4

080009dc <AUDIO_StorageParse>:
 80009dc:	e92d 47f0 	stmdb	sp!, {r4, r5, r6, r7, r8, r9, sl, lr}
 80009e0:	b0d4      	sub	sp, #336	; 0x150
 80009e2:	492a      	ldr	r1, [pc, #168]	; (8000a8c <AUDIO_StorageParse+0xb0>)
 80009e4:	4c2a      	ldr	r4, [pc, #168]	; (8000a90 <AUDIO_StorageParse+0xb4>)
 80009e6:	a801      	add	r0, sp, #4
 80009e8:	f007 ff59 	bl	800889e <f_opendir>
 80009ec:	2300      	movs	r3, #0
 80009ee:	f8a4 33d8 	strh.w	r3, [r4, #984]	; 0x3d8
 80009f2:	4605      	mov	r5, r0
 80009f4:	b930      	cbnz	r0, 8000a04 <AUDIO_StorageParse+0x28>
 80009f6:	4e27      	ldr	r6, [pc, #156]	; (8000a94 <AUDIO_StorageParse+0xb8>)
 80009f8:	4f27      	ldr	r7, [pc, #156]	; (8000a98 <AUDIO_StorageParse+0xbc>)
 80009fa:	f8df 80a4 	ldr.w	r8, [pc, #164]	; 8000aa0 <AUDIO_StorageParse+0xc4>
 80009fe:	7833      	ldrb	r3, [r6, #0]
 8000a00:	2b02      	cmp	r3, #2
 8000a02:	d00a      	beq.n	8000a1a <AUDIO_StorageParse+0x3e>
 8000a04:	4b25      	ldr	r3, [pc, #148]	; (8000a9c <AUDIO_StorageParse+0xc0>)
 8000a06:	f8b4 23d8 	ldrh.w	r2, [r4, #984]	; 0x3d8
 8000a0a:	801a      	strh	r2, [r3, #0]
 8000a0c:	a801      	add	r0, sp, #4
 8000a0e:	f007 ff86 	bl	800891e <f_closedir>
 8000a12:	4628      	mov	r0, r5
 8000a14:	b054      	add	sp, #336	; 0x150
 8000a16:	e8bd 87f0 	ldmia.w	sp!, {r4, r5, r6, r7, r8, r9, sl, pc}
 8000a1a:	a90e      	add	r1, sp, #56	; 0x38
 8000a1c:	a801      	add	r0, sp, #4
 8000a1e:	f007 ff92 	bl	8008946 <f_readdir>
 8000a22:	bb80      	cbnz	r0, 8000a86 <AUDIO_StorageParse+0xaa>
 8000a24:	f89d 304e 	ldrb.w	r3, [sp, #78]	; 0x4e
 8000a28:	2b00      	cmp	r3, #0
 8000a2a:	d0eb      	beq.n	8000a04 <AUDIO_StorageParse+0x28>
 8000a2c:	2b2e      	cmp	r3, #46	; 0x2e
 8000a2e:	d0e6      	beq.n	80009fe <AUDIO_StorageParse+0x22>
 8000a30:	f8b4 a3d8 	ldrh.w	sl, [r4, #984]	; 0x3d8
 8000a34:	f1ba 0f17 	cmp.w	sl, #23
 8000a38:	d8e1      	bhi.n	80009fe <AUDIO_StorageParse+0x22>
 8000a3a:	f89d 3040 	ldrb.w	r3, [sp, #64]	; 0x40
 8000a3e:	06db      	lsls	r3, r3, #27
 8000a40:	d4dd      	bmi.n	80009fe <AUDIO_StorageParse+0x22>
 8000a42:	4639      	mov	r1, r7
 8000a44:	f10d 004e 	add.w	r0, sp, #78	; 0x4e
 8000a48:	f008 fa53 	bl	8008ef2 <strstr>
 8000a4c:	b930      	cbnz	r0, 8000a5c <AUDIO_StorageParse+0x80>
 8000a4e:	4641      	mov	r1, r8
 8000a50:	f10d 004e 	add.w	r0, sp, #78	; 0x4e
 8000a54:	f008 fa4d 	bl	8008ef2 <strstr>
 8000a58:	2800      	cmp	r0, #0
 8000a5a:	d0d0      	beq.n	80009fe <AUDIO_StorageParse+0x22>
 8000a5c:	f04f 0929 	mov.w	r9, #41	; 0x29
 8000a60:	fb09 400a 	mla	r0, r9, sl, r4
 8000a64:	2228      	movs	r2, #40	; 0x28
 8000a66:	f10d 014e 	add.w	r1, sp, #78	; 0x4e
 8000a6a:	3001      	adds	r0, #1
 8000a6c:	f008 fa2e 	bl	8008ecc <strncpy>
 8000a70:	f8b4 33d8 	ldrh.w	r3, [r4, #984]	; 0x3d8
 8000a74:	2201      	movs	r2, #1
 8000a76:	fb09 f903 	mul.w	r9, r9, r3
 8000a7a:	4413      	add	r3, r2
 8000a7c:	f804 2009 	strb.w	r2, [r4, r9]
 8000a80:	f8a4 33d8 	strh.w	r3, [r4, #984]	; 0x3d8
 8000a84:	e7bb      	b.n	80009fe <AUDIO_StorageParse+0x22>
 8000a86:	4605      	mov	r5, r0
 8000a88:	e7bc      	b.n	8000a04 <AUDIO_StorageParse+0x28>
 8000a8a:	bf00      	nop
 8000a8c:	200024b0 	.word	0x200024b0
 8000a90:	2000183c 	.word	0x2000183c
 8000a94:	200026fc 	.word	0x200026fc
 8000a98:	080090a8 	.word	0x080090a8
 8000a9c:	20000218 	.word	0x20000218
 8000aa0:	080090ac 	.word	0x080090ac

08000aa4 <AUDIO_GetWavObjectNumber>:
 8000aa4:	b508      	push	{r3, lr}
 8000aa6:	f7ff ff99 	bl	80009dc <AUDIO_StorageParse>
 8000aaa:	b908      	cbnz	r0, 8000ab0 <AUDIO_GetWavObjectNumber+0xc>
 8000aac:	4b01      	ldr	r3, [pc, #4]	; (8000ab4 <AUDIO_GetWavObjectNumber+0x10>)
 8000aae:	8818      	ldrh	r0, [r3, #0]
 8000ab0:	bd08      	pop	{r3, pc}
 8000ab2:	bf00      	nop
 8000ab4:	20000218 	.word	0x20000218

08000ab8 <Mount_USB>:
 8000ab8:	b508      	push	{r3, lr}
 8000aba:	4904      	ldr	r1, [pc, #16]	; (8000acc <Mount_USB+0x14>)
 8000abc:	4804      	ldr	r0, [pc, #16]	; (8000ad0 <Mount_USB+0x18>)
 8000abe:	2201      	movs	r2, #1
 8000ac0:	f007 fba6 	bl	8008210 <f_mount>
 8000ac4:	4b03      	ldr	r3, [pc, #12]	; (8000ad4 <Mount_USB+0x1c>)
 8000ac6:	7018      	strb	r0, [r3, #0]
 8000ac8:	bd08      	pop	{r3, pc}
 8000aca:	bf00      	nop
 8000acc:	200024b0 	.word	0x200024b0
 8000ad0:	20002078 	.word	0x20002078
 8000ad4:	2000021a 	.word	0x2000021a

08000ad8 <cs43l22_SetFrequency>:
 8000ad8:	2000      	movs	r0, #0
 8000ada:	4770      	bx	lr

08000adc <cs43l22_Reset>:
 8000adc:	2000      	movs	r0, #0
 8000ade:	4770      	bx	lr

08000ae0 <cs43l22_SetVolume>:
 8000ae0:	b507      	push	{r0, r1, r2, lr}
 8000ae2:	2964      	cmp	r1, #100	; 0x64
 8000ae4:	bf9b      	ittet	ls
 8000ae6:	2264      	movls	r2, #100	; 0x64
 8000ae8:	ebc1 2101 	rsbls	r1, r1, r1, lsl #8
 8000aec:	22ff      	movhi	r2, #255	; 0xff
 8000aee:	fbb1 f2f2 	udivls	r2, r1, r2
 8000af2:	bf98      	it	ls
 8000af4:	b2d2      	uxtbls	r2, r2
 8000af6:	3219      	adds	r2, #25
 8000af8:	b2c0      	uxtb	r0, r0
 8000afa:	b2d2      	uxtb	r2, r2
 8000afc:	2120      	movs	r1, #32
 8000afe:	9201      	str	r2, [sp, #4]
 8000b00:	9000      	str	r0, [sp, #0]
 8000b02:	f7ff ff2d 	bl	8000960 <AUDIO_IO_Write>
 8000b06:	9800      	ldr	r0, [sp, #0]
 8000b08:	9a01      	ldr	r2, [sp, #4]
 8000b0a:	2121      	movs	r1, #33	; 0x21
 8000b0c:	f7ff ff28 	bl	8000960 <AUDIO_IO_Write>
 8000b10:	2000      	movs	r0, #0
 8000b12:	b003      	add	sp, #12
 8000b14:	f85d fb04 	ldr.w	pc, [sp], #4

08000b18 <cs43l22_Init>:
 8000b18:	b5f8      	push	{r3, r4, r5, r6, r7, lr}
 8000b1a:	4606      	mov	r6, r0
 8000b1c:	b2f4      	uxtb	r4, r6
 8000b1e:	460d      	mov	r5, r1
 8000b20:	4617      	mov	r7, r2
 8000b22:	f7ff fee9 	bl	80008f8 <AUDIO_IO_Init>
 8000b26:	2201      	movs	r2, #1
 8000b28:	2102      	movs	r1, #2
 8000b2a:	4620      	mov	r0, r4
 8000b2c:	f7ff ff18 	bl	8000960 <AUDIO_IO_Write>
 8000b30:	1e6a      	subs	r2, r5, #1
 8000b32:	4b2a      	ldr	r3, [pc, #168]	; (8000bdc <cs43l22_Init+0xc4>)
 8000b34:	2a03      	cmp	r2, #3
 8000b36:	d84e      	bhi.n	8000bd6 <cs43l22_Init+0xbe>
 8000b38:	e8df f002 	tbb	[pc, r2]
 8000b3c:	4d4b4902 	.word	0x4d4b4902
 8000b40:	22fa      	movs	r2, #250	; 0xfa
 8000b42:	701a      	strb	r2, [r3, #0]
 8000b44:	781a      	ldrb	r2, [r3, #0]
 8000b46:	2104      	movs	r1, #4
 8000b48:	4620      	mov	r0, r4
 8000b4a:	f7ff ff09 	bl	8000960 <AUDIO_IO_Write>
 8000b4e:	2281      	movs	r2, #129	; 0x81
 8000b50:	2105      	movs	r1, #5
 8000b52:	4620      	mov	r0, r4
 8000b54:	f7ff ff04 	bl	8000960 <AUDIO_IO_Write>
 8000b58:	2204      	movs	r2, #4
 8000b5a:	2106      	movs	r1, #6
 8000b5c:	4620      	mov	r0, r4
 8000b5e:	f7ff feff 	bl	8000960 <AUDIO_IO_Write>
 8000b62:	4630      	mov	r0, r6
 8000b64:	4639      	mov	r1, r7
 8000b66:	f7ff ffbb 	bl	8000ae0 <cs43l22_SetVolume>
 8000b6a:	2d02      	cmp	r5, #2
 8000b6c:	4606      	mov	r6, r0
 8000b6e:	d00e      	beq.n	8000b8e <cs43l22_Init+0x76>
 8000b70:	2206      	movs	r2, #6
 8000b72:	210f      	movs	r1, #15
 8000b74:	4620      	mov	r0, r4
 8000b76:	f7ff fef3 	bl	8000960 <AUDIO_IO_Write>
 8000b7a:	2200      	movs	r2, #0
 8000b7c:	2124      	movs	r1, #36	; 0x24
 8000b7e:	4620      	mov	r0, r4
 8000b80:	f7ff feee 	bl	8000960 <AUDIO_IO_Write>
 8000b84:	2200      	movs	r2, #0
 8000b86:	2125      	movs	r1, #37	; 0x25
 8000b88:	4620      	mov	r0, r4
 8000b8a:	f7ff fee9 	bl	8000960 <AUDIO_IO_Write>
 8000b8e:	4620      	mov	r0, r4
 8000b90:	2200      	movs	r2, #0
 8000b92:	210a      	movs	r1, #10
 8000b94:	f7ff fee4 	bl	8000960 <AUDIO_IO_Write>
 8000b98:	4620      	mov	r0, r4
 8000b9a:	2204      	movs	r2, #4
 8000b9c:	210e      	movs	r1, #14
 8000b9e:	f7ff fedf 	bl	8000960 <AUDIO_IO_Write>
 8000ba2:	4620      	mov	r0, r4
 8000ba4:	2200      	movs	r2, #0
 8000ba6:	2127      	movs	r1, #39	; 0x27
 8000ba8:	f7ff feda 	bl	8000960 <AUDIO_IO_Write>
 8000bac:	4620      	mov	r0, r4
 8000bae:	220f      	movs	r2, #15
 8000bb0:	211f      	movs	r1, #31
 8000bb2:	f7ff fed5 	bl	8000960 <AUDIO_IO_Write>
 8000bb6:	4620      	mov	r0, r4
 8000bb8:	220a      	movs	r2, #10
 8000bba:	211a      	movs	r1, #26
 8000bbc:	f7ff fed0 	bl	8000960 <AUDIO_IO_Write>
 8000bc0:	4620      	mov	r0, r4
 8000bc2:	220a      	movs	r2, #10
 8000bc4:	211b      	movs	r1, #27
 8000bc6:	f7ff fecb 	bl	8000960 <AUDIO_IO_Write>
 8000bca:	4630      	mov	r0, r6
 8000bcc:	bdf8      	pop	{r3, r4, r5, r6, r7, pc}
 8000bce:	22af      	movs	r2, #175	; 0xaf
 8000bd0:	e7b7      	b.n	8000b42 <cs43l22_Init+0x2a>
 8000bd2:	22aa      	movs	r2, #170	; 0xaa
 8000bd4:	e7b5      	b.n	8000b42 <cs43l22_Init+0x2a>
 8000bd6:	2205      	movs	r2, #5
 8000bd8:	e7b3      	b.n	8000b42 <cs43l22_Init+0x2a>
 8000bda:	bf00      	nop
 8000bdc:	2000021b 	.word	0x2000021b

08000be0 <cs43l22_SetOutputMode>:
 8000be0:	3901      	subs	r1, #1
 8000be2:	b510      	push	{r4, lr}
 8000be4:	b2c0      	uxtb	r0, r0
 8000be6:	4c10      	ldr	r4, [pc, #64]	; (8000c28 <cs43l22_SetOutputMode+0x48>)
 8000be8:	2903      	cmp	r1, #3
 8000bea:	d817      	bhi.n	8000c1c <cs43l22_SetOutputMode+0x3c>
 8000bec:	e8df f001 	tbb	[pc, r1]
 8000bf0:	16100a02 	.word	0x16100a02
 8000bf4:	22fa      	movs	r2, #250	; 0xfa
 8000bf6:	2104      	movs	r1, #4
 8000bf8:	f7ff feb2 	bl	8000960 <AUDIO_IO_Write>
 8000bfc:	23fa      	movs	r3, #250	; 0xfa
 8000bfe:	7023      	strb	r3, [r4, #0]
 8000c00:	2000      	movs	r0, #0
 8000c02:	bd10      	pop	{r4, pc}
 8000c04:	22af      	movs	r2, #175	; 0xaf
 8000c06:	2104      	movs	r1, #4
 8000c08:	f7ff feaa 	bl	8000960 <AUDIO_IO_Write>
 8000c0c:	23af      	movs	r3, #175	; 0xaf
 8000c0e:	e7f6      	b.n	8000bfe <cs43l22_SetOutputMode+0x1e>
 8000c10:	22aa      	movs	r2, #170	; 0xaa
 8000c12:	2104      	movs	r1, #4
 8000c14:	f7ff fea4 	bl	8000960 <AUDIO_IO_Write>
 8000c18:	23aa      	movs	r3, #170	; 0xaa
 8000c1a:	e7f0      	b.n	8000bfe <cs43l22_SetOutputMode+0x1e>
 8000c1c:	2205      	movs	r2, #5
 8000c1e:	2104      	movs	r1, #4
 8000c20:	f7ff fe9e 	bl	8000960 <AUDIO_IO_Write>
 8000c24:	2305      	movs	r3, #5
 8000c26:	e7ea      	b.n	8000bfe <cs43l22_SetOutputMode+0x1e>
 8000c28:	2000021b 	.word	0x2000021b

08000c2c <cs43l22_DeInit>:
 8000c2c:	f7ff be96 	b.w	800095c <AUDIO_IO_DeInit>

08000c30 <cs43l22_ReadID>:
 8000c30:	b510      	push	{r4, lr}
 8000c32:	4604      	mov	r4, r0
 8000c34:	f7ff fe60 	bl	80008f8 <AUDIO_IO_Init>
 8000c38:	2101      	movs	r1, #1
 8000c3a:	b2e0      	uxtb	r0, r4
 8000c3c:	f7ff feae 	bl	800099c <AUDIO_IO_Read>
 8000c40:	f000 00f8 	and.w	r0, r0, #248	; 0xf8
 8000c44:	bd10      	pop	{r4, pc}

08000c46 <cs43l22_SetMute.part.0>:
 8000c46:	b507      	push	{r0, r1, r2, lr}
 8000c48:	b2c0      	uxtb	r0, r0
 8000c4a:	22ff      	movs	r2, #255	; 0xff
 8000c4c:	2104      	movs	r1, #4
 8000c4e:	9001      	str	r0, [sp, #4]
 8000c50:	f7ff fe86 	bl	8000960 <AUDIO_IO_Write>
 8000c54:	9801      	ldr	r0, [sp, #4]
 8000c56:	2201      	movs	r2, #1
 8000c58:	2122      	movs	r1, #34	; 0x22
 8000c5a:	f7ff fe81 	bl	8000960 <AUDIO_IO_Write>
 8000c5e:	9801      	ldr	r0, [sp, #4]
 8000c60:	2201      	movs	r2, #1
 8000c62:	2123      	movs	r1, #35	; 0x23
 8000c64:	b003      	add	sp, #12
 8000c66:	f85d eb04 	ldr.w	lr, [sp], #4
 8000c6a:	f7ff be79 	b.w	8000960 <AUDIO_IO_Write>
	...

08000c70 <cs43l22_SetMute>:
 8000c70:	2901      	cmp	r1, #1
 8000c72:	b507      	push	{r0, r1, r2, lr}
 8000c74:	d105      	bne.n	8000c82 <cs43l22_SetMute+0x12>
 8000c76:	f7ff ffe6 	bl	8000c46 <cs43l22_SetMute.part.0>
 8000c7a:	2000      	movs	r0, #0
 8000c7c:	b003      	add	sp, #12
 8000c7e:	f85d fb04 	ldr.w	pc, [sp], #4
 8000c82:	b2c0      	uxtb	r0, r0
 8000c84:	2200      	movs	r2, #0
 8000c86:	2122      	movs	r1, #34	; 0x22
 8000c88:	9001      	str	r0, [sp, #4]
 8000c8a:	f7ff fe69 	bl	8000960 <AUDIO_IO_Write>
 8000c8e:	9801      	ldr	r0, [sp, #4]
 8000c90:	2200      	movs	r2, #0
 8000c92:	2123      	movs	r1, #35	; 0x23
 8000c94:	f7ff fe64 	bl	8000960 <AUDIO_IO_Write>
 8000c98:	4b03      	ldr	r3, [pc, #12]	; (8000ca8 <cs43l22_SetMute+0x38>)
 8000c9a:	9801      	ldr	r0, [sp, #4]
 8000c9c:	781a      	ldrb	r2, [r3, #0]
 8000c9e:	2104      	movs	r1, #4
 8000ca0:	f7ff fe5e 	bl	8000960 <AUDIO_IO_Write>
 8000ca4:	e7e9      	b.n	8000c7a <cs43l22_SetMute+0xa>
 8000ca6:	bf00      	nop
 8000ca8:	2000021b 	.word	0x2000021b

08000cac <cs43l22_Resume>:
 8000cac:	b57f      	push	{r0, r1, r2, r3, r4, r5, r6, lr}
 8000cae:	2600      	movs	r6, #0
 8000cb0:	4631      	mov	r1, r6
 8000cb2:	4604      	mov	r4, r0
 8000cb4:	9603      	str	r6, [sp, #12]
 8000cb6:	f7ff ffdb 	bl	8000c70 <cs43l22_SetMute>
 8000cba:	9603      	str	r6, [sp, #12]
 8000cbc:	4605      	mov	r5, r0
 8000cbe:	9b03      	ldr	r3, [sp, #12]
 8000cc0:	2bfe      	cmp	r3, #254	; 0xfe
 8000cc2:	d90e      	bls.n	8000ce2 <cs43l22_Resume+0x36>
 8000cc4:	4b09      	ldr	r3, [pc, #36]	; (8000cec <cs43l22_Resume+0x40>)
 8000cc6:	b2e0      	uxtb	r0, r4
 8000cc8:	781a      	ldrb	r2, [r3, #0]
 8000cca:	9001      	str	r0, [sp, #4]
 8000ccc:	2104      	movs	r1, #4
 8000cce:	f7ff fe47 	bl	8000960 <AUDIO_IO_Write>
 8000cd2:	9801      	ldr	r0, [sp, #4]
 8000cd4:	229e      	movs	r2, #158	; 0x9e
 8000cd6:	2102      	movs	r1, #2
 8000cd8:	f7ff fe42 	bl	8000960 <AUDIO_IO_Write>
 8000cdc:	4628      	mov	r0, r5
 8000cde:	b004      	add	sp, #16
 8000ce0:	bd70      	pop	{r4, r5, r6, pc}
 8000ce2:	9b03      	ldr	r3, [sp, #12]
 8000ce4:	3301      	adds	r3, #1
 8000ce6:	9303      	str	r3, [sp, #12]
 8000ce8:	e7e9      	b.n	8000cbe <cs43l22_Resume+0x12>
 8000cea:	bf00      	nop
 8000cec:	2000021b 	.word	0x2000021b

08000cf0 <cs43l22_Pause>:
 8000cf0:	b510      	push	{r4, lr}
 8000cf2:	4604      	mov	r4, r0
 8000cf4:	f7ff ffa7 	bl	8000c46 <cs43l22_SetMute.part.0>
 8000cf8:	b2e0      	uxtb	r0, r4
 8000cfa:	2201      	movs	r2, #1
 8000cfc:	2102      	movs	r1, #2
 8000cfe:	f7ff fe2f 	bl	8000960 <AUDIO_IO_Write>
 8000d02:	2000      	movs	r0, #0
 8000d04:	bd10      	pop	{r4, pc}
	...

08000d08 <cs43l22_Stop>:
 8000d08:	b513      	push	{r0, r1, r4, lr}
 8000d0a:	4604      	mov	r4, r0
 8000d0c:	f7ff ff9b 	bl	8000c46 <cs43l22_SetMute.part.0>
 8000d10:	b2e0      	uxtb	r0, r4
 8000d12:	2204      	movs	r2, #4
 8000d14:	210e      	movs	r1, #14
 8000d16:	9001      	str	r0, [sp, #4]
 8000d18:	f7ff fe22 	bl	8000960 <AUDIO_IO_Write>
 8000d1c:	9801      	ldr	r0, [sp, #4]
 8000d1e:	229f      	movs	r2, #159	; 0x9f
 8000d20:	2102      	movs	r1, #2
 8000d22:	f7ff fe1d 	bl	8000960 <AUDIO_IO_Write>
 8000d26:	4b03      	ldr	r3, [pc, #12]	; (8000d34 <cs43l22_Stop+0x2c>)
 8000d28:	2201      	movs	r2, #1
 8000d2a:	2000      	movs	r0, #0
 8000d2c:	701a      	strb	r2, [r3, #0]
 8000d2e:	b002      	add	sp, #8
 8000d30:	bd10      	pop	{r4, pc}
 8000d32:	bf00      	nop
 8000d34:	20000004 	.word	0x20000004

08000d38 <cs43l22_Play>:
 8000d38:	b570      	push	{r4, r5, r6, lr}
 8000d3a:	4d0d      	ldr	r5, [pc, #52]	; (8000d70 <cs43l22_Play+0x38>)
 8000d3c:	782b      	ldrb	r3, [r5, #0]
 8000d3e:	2b01      	cmp	r3, #1
 8000d40:	4604      	mov	r4, r0
 8000d42:	d113      	bne.n	8000d6c <cs43l22_Play+0x34>
 8000d44:	b2c6      	uxtb	r6, r0
 8000d46:	2206      	movs	r2, #6
 8000d48:	210e      	movs	r1, #14
 8000d4a:	4630      	mov	r0, r6
 8000d4c:	f7ff fe08 	bl	8000960 <AUDIO_IO_Write>
 8000d50:	2100      	movs	r1, #0
 8000d52:	4620      	mov	r0, r4
 8000d54:	f7ff ff8c 	bl	8000c70 <cs43l22_SetMute>
 8000d58:	229e      	movs	r2, #158	; 0x9e
 8000d5a:	4604      	mov	r4, r0
 8000d5c:	2102      	movs	r1, #2
 8000d5e:	4630      	mov	r0, r6
 8000d60:	f7ff fdfe 	bl	8000960 <AUDIO_IO_Write>
 8000d64:	2300      	movs	r3, #0
 8000d66:	702b      	strb	r3, [r5, #0]
 8000d68:	4620      	mov	r0, r4
 8000d6a:	bd70      	pop	{r4, r5, r6, pc}
 8000d6c:	2400      	movs	r4, #0
 8000d6e:	e7fb      	b.n	8000d68 <cs43l22_Play+0x30>
 8000d70:	20000004 	.word	0x20000004

08000d74 <display_cancion>:
 8000d74:	b508      	push	{r3, lr}
 8000d76:	2803      	cmp	r0, #3
 8000d78:	f200 8094 	bhi.w	8000ea4 <display_cancion+0x130>
 8000d7c:	e8df f000 	tbb	[pc, r0]
 8000d80:	76512c02 	.word	0x76512c02
 8000d84:	f000 fd30 	bl	80017e8 <SSD1306_Clear>
 8000d88:	2100      	movs	r1, #0
 8000d8a:	201e      	movs	r0, #30
 8000d8c:	f000 fc76 	bl	800167c <SSD1306_GotoXY>
 8000d90:	2201      	movs	r2, #1
 8000d92:	4945      	ldr	r1, [pc, #276]	; (8000ea8 <display_cancion+0x134>)
 8000d94:	4845      	ldr	r0, [pc, #276]	; (8000eac <display_cancion+0x138>)
 8000d96:	f000 fcc3 	bl	8001720 <SSD1306_Puts>
 8000d9a:	2119      	movs	r1, #25
 8000d9c:	2008      	movs	r0, #8
 8000d9e:	f000 fc6d 	bl	800167c <SSD1306_GotoXY>
 8000da2:	2201      	movs	r2, #1
 8000da4:	4942      	ldr	r1, [pc, #264]	; (8000eb0 <display_cancion+0x13c>)
 8000da6:	4843      	ldr	r0, [pc, #268]	; (8000eb4 <display_cancion+0x140>)
 8000da8:	f000 fcba 	bl	8001720 <SSD1306_Puts>
 8000dac:	2128      	movs	r1, #40	; 0x28
 8000dae:	2012      	movs	r0, #18
 8000db0:	f000 fc64 	bl	800167c <SSD1306_GotoXY>
 8000db4:	2201      	movs	r2, #1
 8000db6:	493e      	ldr	r1, [pc, #248]	; (8000eb0 <display_cancion+0x13c>)
 8000db8:	483f      	ldr	r0, [pc, #252]	; (8000eb8 <display_cancion+0x144>)
 8000dba:	f000 fcb1 	bl	8001720 <SSD1306_Puts>
 8000dbe:	2132      	movs	r1, #50	; 0x32
 8000dc0:	2012      	movs	r0, #18
 8000dc2:	f000 fc5b 	bl	800167c <SSD1306_GotoXY>
 8000dc6:	493a      	ldr	r1, [pc, #232]	; (8000eb0 <display_cancion+0x13c>)
 8000dc8:	483c      	ldr	r0, [pc, #240]	; (8000ebc <display_cancion+0x148>)
 8000dca:	2201      	movs	r2, #1
 8000dcc:	f000 fca8 	bl	8001720 <SSD1306_Puts>
 8000dd0:	e8bd 4008 	ldmia.w	sp!, {r3, lr}
 8000dd4:	f000 bce6 	b.w	80017a4 <SSD1306_UpdateScreen>
 8000dd8:	f000 fd06 	bl	80017e8 <SSD1306_Clear>
 8000ddc:	2100      	movs	r1, #0
 8000dde:	201e      	movs	r0, #30
 8000de0:	f000 fc4c 	bl	800167c <SSD1306_GotoXY>
 8000de4:	2201      	movs	r2, #1
 8000de6:	4930      	ldr	r1, [pc, #192]	; (8000ea8 <display_cancion+0x134>)
 8000de8:	4830      	ldr	r0, [pc, #192]	; (8000eac <display_cancion+0x138>)
 8000dea:	f000 fc99 	bl	8001720 <SSD1306_Puts>
 8000dee:	2119      	movs	r1, #25
 8000df0:	2008      	movs	r0, #8
 8000df2:	f000 fc43 	bl	800167c <SSD1306_GotoXY>
 8000df6:	2201      	movs	r2, #1
 8000df8:	492d      	ldr	r1, [pc, #180]	; (8000eb0 <display_cancion+0x13c>)
 8000dfa:	482e      	ldr	r0, [pc, #184]	; (8000eb4 <display_cancion+0x140>)
 8000dfc:	f000 fc90 	bl	8001720 <SSD1306_Puts>
 8000e00:	2128      	movs	r1, #40	; 0x28
 8000e02:	2012      	movs	r0, #18
 8000e04:	f000 fc3a 	bl	800167c <SSD1306_GotoXY>
 8000e08:	2201      	movs	r2, #1
 8000e0a:	4929      	ldr	r1, [pc, #164]	; (8000eb0 <display_cancion+0x13c>)
 8000e0c:	482c      	ldr	r0, [pc, #176]	; (8000ec0 <display_cancion+0x14c>)
 8000e0e:	f000 fc87 	bl	8001720 <SSD1306_Puts>
 8000e12:	2132      	movs	r1, #50	; 0x32
 8000e14:	2012      	movs	r0, #18
 8000e16:	f000 fc31 	bl	800167c <SSD1306_GotoXY>
 8000e1a:	4925      	ldr	r1, [pc, #148]	; (8000eb0 <display_cancion+0x13c>)
 8000e1c:	4829      	ldr	r0, [pc, #164]	; (8000ec4 <display_cancion+0x150>)
 8000e1e:	2201      	movs	r2, #1
 8000e20:	e7d4      	b.n	8000dcc <display_cancion+0x58>
 8000e22:	f000 fce1 	bl	80017e8 <SSD1306_Clear>
 8000e26:	2100      	movs	r1, #0
 8000e28:	201e      	movs	r0, #30
 8000e2a:	f000 fc27 	bl	800167c <SSD1306_GotoXY>
 8000e2e:	2201      	movs	r2, #1
 8000e30:	491d      	ldr	r1, [pc, #116]	; (8000ea8 <display_cancion+0x134>)
 8000e32:	481e      	ldr	r0, [pc, #120]	; (8000eac <display_cancion+0x138>)
 8000e34:	f000 fc74 	bl	8001720 <SSD1306_Puts>
 8000e38:	2119      	movs	r1, #25
 8000e3a:	2008      	movs	r0, #8
 8000e3c:	f000 fc1e 	bl	800167c <SSD1306_GotoXY>
 8000e40:	2201      	movs	r2, #1
 8000e42:	491b      	ldr	r1, [pc, #108]	; (8000eb0 <display_cancion+0x13c>)
 8000e44:	481b      	ldr	r0, [pc, #108]	; (8000eb4 <display_cancion+0x140>)
 8000e46:	f000 fc6b 	bl	8001720 <SSD1306_Puts>
 8000e4a:	2128      	movs	r1, #40	; 0x28
 8000e4c:	2012      	movs	r0, #18
 8000e4e:	f000 fc15 	bl	800167c <SSD1306_GotoXY>
 8000e52:	2201      	movs	r2, #1
 8000e54:	4916      	ldr	r1, [pc, #88]	; (8000eb0 <display_cancion+0x13c>)
 8000e56:	481c      	ldr	r0, [pc, #112]	; (8000ec8 <display_cancion+0x154>)
 8000e58:	f000 fc62 	bl	8001720 <SSD1306_Puts>
 8000e5c:	2132      	movs	r1, #50	; 0x32
 8000e5e:	2012      	movs	r0, #18
 8000e60:	f000 fc0c 	bl	800167c <SSD1306_GotoXY>
 8000e64:	4912      	ldr	r1, [pc, #72]	; (8000eb0 <display_cancion+0x13c>)
 8000e66:	4819      	ldr	r0, [pc, #100]	; (8000ecc <display_cancion+0x158>)
 8000e68:	2201      	movs	r2, #1
 8000e6a:	e7af      	b.n	8000dcc <display_cancion+0x58>
 8000e6c:	f000 fcbc 	bl	80017e8 <SSD1306_Clear>
 8000e70:	2100      	movs	r1, #0
 8000e72:	201e      	movs	r0, #30
 8000e74:	f000 fc02 	bl	800167c <SSD1306_GotoXY>
 8000e78:	2201      	movs	r2, #1
 8000e7a:	490b      	ldr	r1, [pc, #44]	; (8000ea8 <display_cancion+0x134>)
 8000e7c:	480b      	ldr	r0, [pc, #44]	; (8000eac <display_cancion+0x138>)
 8000e7e:	f000 fc4f 	bl	8001720 <SSD1306_Puts>
 8000e82:	2119      	movs	r1, #25
 8000e84:	2008      	movs	r0, #8
 8000e86:	f000 fbf9 	bl	800167c <SSD1306_GotoXY>
 8000e8a:	2201      	movs	r2, #1
 8000e8c:	4908      	ldr	r1, [pc, #32]	; (8000eb0 <display_cancion+0x13c>)
 8000e8e:	4809      	ldr	r0, [pc, #36]	; (8000eb4 <display_cancion+0x140>)
 8000e90:	f000 fc46 	bl	8001720 <SSD1306_Puts>
 8000e94:	2128      	movs	r1, #40	; 0x28
 8000e96:	2012      	movs	r0, #18
 8000e98:	f000 fbf0 	bl	800167c <SSD1306_GotoXY>
 8000e9c:	4904      	ldr	r1, [pc, #16]	; (8000eb0 <display_cancion+0x13c>)
 8000e9e:	480c      	ldr	r0, [pc, #48]	; (8000ed0 <display_cancion+0x15c>)
 8000ea0:	2201      	movs	r2, #1
 8000ea2:	e793      	b.n	8000dcc <display_cancion+0x58>
 8000ea4:	bd08      	pop	{r3, pc}
 8000ea6:	bf00      	nop
 8000ea8:	20000038 	.word	0x20000038
 8000eac:	08009128 	.word	0x08009128
 8000eb0:	20000040 	.word	0x20000040
 8000eb4:	0800912f 	.word	0x0800912f
 8000eb8:	08009140 	.word	0x08009140
 8000ebc:	0800914d 	.word	0x0800914d
 8000ec0:	0800915c 	.word	0x0800915c
 8000ec4:	0800916d 	.word	0x0800916d
 8000ec8:	0800917e 	.word	0x0800917e
 8000ecc:	0800918d 	.word	0x0800918d
 8000ed0:	0800919a 	.word	0x0800919a

08000ed4 <MX_DMA_Init>:
 8000ed4:	b507      	push	{r0, r1, r2, lr}
 8000ed6:	4b18      	ldr	r3, [pc, #96]	; (8000f38 <MX_DMA_Init+0x64>)
 8000ed8:	2200      	movs	r2, #0
 8000eda:	9200      	str	r2, [sp, #0]
 8000edc:	6b19      	ldr	r1, [r3, #48]	; 0x30
 8000ede:	f441 1100 	orr.w	r1, r1, #2097152	; 0x200000
 8000ee2:	6319      	str	r1, [r3, #48]	; 0x30
 8000ee4:	6b19      	ldr	r1, [r3, #48]	; 0x30
 8000ee6:	f401 1100 	and.w	r1, r1, #2097152	; 0x200000
 8000eea:	9100      	str	r1, [sp, #0]
 8000eec:	9900      	ldr	r1, [sp, #0]
 8000eee:	9201      	str	r2, [sp, #4]
 8000ef0:	6b19      	ldr	r1, [r3, #48]	; 0x30
 8000ef2:	f441 0180 	orr.w	r1, r1, #4194304	; 0x400000
 8000ef6:	6319      	str	r1, [r3, #48]	; 0x30
 8000ef8:	6b1b      	ldr	r3, [r3, #48]	; 0x30
 8000efa:	f403 0380 	and.w	r3, r3, #4194304	; 0x400000
 8000efe:	4611      	mov	r1, r2
 8000f00:	9301      	str	r3, [sp, #4]
 8000f02:	2010      	movs	r0, #16
 8000f04:	9b01      	ldr	r3, [sp, #4]
 8000f06:	f001 f80f 	bl	8001f28 <HAL_NVIC_SetPriority>
 8000f0a:	2010      	movs	r0, #16
 8000f0c:	f001 f83e 	bl	8001f8c <HAL_NVIC_EnableIRQ>
 8000f10:	2200      	movs	r2, #0
 8000f12:	4611      	mov	r1, r2
 8000f14:	203a      	movs	r0, #58	; 0x3a
 8000f16:	f001 f807 	bl	8001f28 <HAL_NVIC_SetPriority>
 8000f1a:	203a      	movs	r0, #58	; 0x3a
 8000f1c:	f001 f836 	bl	8001f8c <HAL_NVIC_EnableIRQ>
 8000f20:	2200      	movs	r2, #0
 8000f22:	4611      	mov	r1, r2
 8000f24:	2046      	movs	r0, #70	; 0x46
 8000f26:	f000 ffff 	bl	8001f28 <HAL_NVIC_SetPriority>
 8000f2a:	2046      	movs	r0, #70	; 0x46
 8000f2c:	b003      	add	sp, #12
 8000f2e:	f85d eb04 	ldr.w	lr, [sp], #4
 8000f32:	f001 b82b 	b.w	8001f8c <HAL_NVIC_EnableIRQ>
 8000f36:	bf00      	nop
 8000f38:	40023800 	.word	0x40023800

08000f3c <MX_GPIO_Init>:
 8000f3c:	b5f0      	push	{r4, r5, r6, r7, lr}
 8000f3e:	2214      	movs	r2, #20
 8000f40:	b08b      	sub	sp, #44	; 0x2c
 8000f42:	eb0d 0002 	add.w	r0, sp, r2
 8000f46:	2100      	movs	r1, #0
 8000f48:	f007 ffb8 	bl	8008ebc <memset>
 8000f4c:	2400      	movs	r4, #0
 8000f4e:	4b46      	ldr	r3, [pc, #280]	; (8001068 <MX_GPIO_Init+0x12c>)
 8000f50:	9400      	str	r4, [sp, #0]
 8000f52:	6b1a      	ldr	r2, [r3, #48]	; 0x30
 8000f54:	4f45      	ldr	r7, [pc, #276]	; (800106c <MX_GPIO_Init+0x130>)
 8000f56:	4e46      	ldr	r6, [pc, #280]	; (8001070 <MX_GPIO_Init+0x134>)
 8000f58:	f042 0280 	orr.w	r2, r2, #128	; 0x80
 8000f5c:	631a      	str	r2, [r3, #48]	; 0x30
 8000f5e:	6b1a      	ldr	r2, [r3, #48]	; 0x30
 8000f60:	f002 0280 	and.w	r2, r2, #128	; 0x80
 8000f64:	9200      	str	r2, [sp, #0]
 8000f66:	9a00      	ldr	r2, [sp, #0]
 8000f68:	9401      	str	r4, [sp, #4]
 8000f6a:	6b1a      	ldr	r2, [r3, #48]	; 0x30
 8000f6c:	f042 0204 	orr.w	r2, r2, #4
 8000f70:	631a      	str	r2, [r3, #48]	; 0x30
 8000f72:	6b1a      	ldr	r2, [r3, #48]	; 0x30
 8000f74:	f002 0204 	and.w	r2, r2, #4
 8000f78:	9201      	str	r2, [sp, #4]
 8000f7a:	9a01      	ldr	r2, [sp, #4]
 8000f7c:	9402      	str	r4, [sp, #8]
 8000f7e:	6b1a      	ldr	r2, [r3, #48]	; 0x30
 8000f80:	f042 0201 	orr.w	r2, r2, #1
 8000f84:	631a      	str	r2, [r3, #48]	; 0x30
 8000f86:	6b1a      	ldr	r2, [r3, #48]	; 0x30
 8000f88:	f002 0201 	and.w	r2, r2, #1
 8000f8c:	9202      	str	r2, [sp, #8]
 8000f8e:	9a02      	ldr	r2, [sp, #8]
 8000f90:	9403      	str	r4, [sp, #12]
 8000f92:	6b1a      	ldr	r2, [r3, #48]	; 0x30
 8000f94:	f042 0208 	orr.w	r2, r2, #8
 8000f98:	631a      	str	r2, [r3, #48]	; 0x30
 8000f9a:	6b1a      	ldr	r2, [r3, #48]	; 0x30
 8000f9c:	f002 0208 	and.w	r2, r2, #8
 8000fa0:	9203      	str	r2, [sp, #12]
 8000fa2:	9a03      	ldr	r2, [sp, #12]
 8000fa4:	9404      	str	r4, [sp, #16]
 8000fa6:	6b1a      	ldr	r2, [r3, #48]	; 0x30
 8000fa8:	f042 0202 	orr.w	r2, r2, #2
 8000fac:	631a      	str	r2, [r3, #48]	; 0x30
 8000fae:	6b1b      	ldr	r3, [r3, #48]	; 0x30
 8000fb0:	f003 0302 	and.w	r3, r3, #2
 8000fb4:	9304      	str	r3, [sp, #16]
 8000fb6:	4622      	mov	r2, r4
 8000fb8:	4638      	mov	r0, r7
 8000fba:	210b      	movs	r1, #11
 8000fbc:	9b04      	ldr	r3, [sp, #16]
 8000fbe:	f001 fb53 	bl	8002668 <HAL_GPIO_WritePin>
 8000fc2:	2201      	movs	r2, #1
 8000fc4:	4630      	mov	r0, r6
 8000fc6:	21aa      	movs	r1, #170	; 0xaa
 8000fc8:	f001 fb4e 	bl	8002668 <HAL_GPIO_WritePin>
 8000fcc:	2501      	movs	r5, #1
 8000fce:	230b      	movs	r3, #11
 8000fd0:	a905      	add	r1, sp, #20
 8000fd2:	4638      	mov	r0, r7
 8000fd4:	e9cd 3505 	strd	r3, r5, [sp, #20]
 8000fd8:	f44f 1788 	mov.w	r7, #1114112	; 0x110000
 8000fdc:	e9cd 4407 	strd	r4, r4, [sp, #28]
 8000fe0:	f001 f9fe 	bl	80023e0 <HAL_GPIO_Init>
 8000fe4:	2302      	movs	r3, #2
 8000fe6:	a905      	add	r1, sp, #20
 8000fe8:	4630      	mov	r0, r6
 8000fea:	e9cd 7306 	strd	r7, r3, [sp, #24]
 8000fee:	9505      	str	r5, [sp, #20]
 8000ff0:	f001 f9f6 	bl	80023e0 <HAL_GPIO_Init>
 8000ff4:	23aa      	movs	r3, #170	; 0xaa
 8000ff6:	a905      	add	r1, sp, #20
 8000ff8:	4630      	mov	r0, r6
 8000ffa:	e9cd 3505 	strd	r3, r5, [sp, #20]
 8000ffe:	e9cd 4407 	strd	r4, r4, [sp, #28]
 8001002:	f001 f9ed 	bl	80023e0 <HAL_GPIO_Init>
 8001006:	f44f 432a 	mov.w	r3, #43520	; 0xaa00
 800100a:	a905      	add	r1, sp, #20
 800100c:	4819      	ldr	r0, [pc, #100]	; (8001074 <MX_GPIO_Init+0x138>)
 800100e:	9507      	str	r5, [sp, #28]
 8001010:	e9cd 3705 	strd	r3, r7, [sp, #20]
 8001014:	f001 f9e4 	bl	80023e0 <HAL_GPIO_Init>
 8001018:	f44f 7200 	mov.w	r2, #512	; 0x200
 800101c:	2312      	movs	r3, #18
 800101e:	e9cd 2305 	strd	r2, r3, [sp, #20]
 8001022:	2103      	movs	r1, #3
 8001024:	2304      	movs	r3, #4
 8001026:	e9cd 1308 	strd	r1, r3, [sp, #32]
 800102a:	4813      	ldr	r0, [pc, #76]	; (8001078 <MX_GPIO_Init+0x13c>)
 800102c:	9507      	str	r5, [sp, #28]
 800102e:	a905      	add	r1, sp, #20
 8001030:	f001 f9d6 	bl	80023e0 <HAL_GPIO_Init>
 8001034:	4622      	mov	r2, r4
 8001036:	4621      	mov	r1, r4
 8001038:	2006      	movs	r0, #6
 800103a:	f000 ff75 	bl	8001f28 <HAL_NVIC_SetPriority>
 800103e:	2006      	movs	r0, #6
 8001040:	f000 ffa4 	bl	8001f8c <HAL_NVIC_EnableIRQ>
 8001044:	4622      	mov	r2, r4
 8001046:	4621      	mov	r1, r4
 8001048:	2017      	movs	r0, #23
 800104a:	f000 ff6d 	bl	8001f28 <HAL_NVIC_SetPriority>
 800104e:	2017      	movs	r0, #23
 8001050:	f000 ff9c 	bl	8001f8c <HAL_NVIC_EnableIRQ>
 8001054:	4622      	mov	r2, r4
 8001056:	4621      	mov	r1, r4
 8001058:	2028      	movs	r0, #40	; 0x28
 800105a:	f000 ff65 	bl	8001f28 <HAL_NVIC_SetPriority>
 800105e:	2028      	movs	r0, #40	; 0x28
 8001060:	f000 ff94 	bl	8001f8c <HAL_NVIC_EnableIRQ>
 8001064:	b00b      	add	sp, #44	; 0x2c
 8001066:	bdf0      	pop	{r4, r5, r6, r7, pc}
 8001068:	40023800 	.word	0x40023800
 800106c:	40020800 	.word	0x40020800
 8001070:	40020000 	.word	0x40020000
 8001074:	40020c00 	.word	0x40020c00
 8001078:	40020400 	.word	0x40020400

0800107c <MX_I2C3_Init>:
 800107c:	b508      	push	{r3, lr}
 800107e:	480b      	ldr	r0, [pc, #44]	; (80010ac <MX_I2C3_Init+0x30>)
 8001080:	4a0b      	ldr	r2, [pc, #44]	; (80010b0 <MX_I2C3_Init+0x34>)
 8001082:	4b0c      	ldr	r3, [pc, #48]	; (80010b4 <MX_I2C3_Init+0x38>)
 8001084:	e9c0 2300 	strd	r2, r3, [r0]
 8001088:	2300      	movs	r3, #0
 800108a:	f44f 4280 	mov.w	r2, #16384	; 0x4000
 800108e:	e9c0 3302 	strd	r3, r3, [r0, #8]
 8001092:	e9c0 2304 	strd	r2, r3, [r0, #16]
 8001096:	e9c0 3306 	strd	r3, r3, [r0, #24]
 800109a:	6203      	str	r3, [r0, #32]
 800109c:	f002 f92c 	bl	80032f8 <HAL_I2C_Init>
 80010a0:	b118      	cbz	r0, 80010aa <MX_I2C3_Init+0x2e>
 80010a2:	e8bd 4008 	ldmia.w	sp!, {r3, lr}
 80010a6:	f000 baa3 	b.w	80015f0 <Error_Handler>
 80010aa:	bd08      	pop	{r3, pc}
 80010ac:	2000021c 	.word	0x2000021c
 80010b0:	40005c00 	.word	0x40005c00
 80010b4:	00061a80 	.word	0x00061a80

080010b8 <HAL_I2C_MspInit>:
 80010b8:	e92d 41f0 	stmdb	sp!, {r4, r5, r6, r7, r8, lr}
 80010bc:	4604      	mov	r4, r0
 80010be:	b088      	sub	sp, #32
 80010c0:	2214      	movs	r2, #20
 80010c2:	2100      	movs	r1, #0
 80010c4:	a803      	add	r0, sp, #12
 80010c6:	f007 fef9 	bl	8008ebc <memset>
 80010ca:	6822      	ldr	r2, [r4, #0]
 80010cc:	4b1f      	ldr	r3, [pc, #124]	; (800114c <HAL_I2C_MspInit+0x94>)
 80010ce:	429a      	cmp	r2, r3
 80010d0:	d138      	bne.n	8001144 <HAL_I2C_MspInit+0x8c>
 80010d2:	4c1f      	ldr	r4, [pc, #124]	; (8001150 <HAL_I2C_MspInit+0x98>)
 80010d4:	481f      	ldr	r0, [pc, #124]	; (8001154 <HAL_I2C_MspInit+0x9c>)
 80010d6:	2500      	movs	r5, #0
 80010d8:	9500      	str	r5, [sp, #0]
 80010da:	6b23      	ldr	r3, [r4, #48]	; 0x30
 80010dc:	f043 0304 	orr.w	r3, r3, #4
 80010e0:	6323      	str	r3, [r4, #48]	; 0x30
 80010e2:	6b23      	ldr	r3, [r4, #48]	; 0x30
 80010e4:	f003 0304 	and.w	r3, r3, #4
 80010e8:	9300      	str	r3, [sp, #0]
 80010ea:	9b00      	ldr	r3, [sp, #0]
 80010ec:	9501      	str	r5, [sp, #4]
 80010ee:	6b23      	ldr	r3, [r4, #48]	; 0x30
 80010f0:	f043 0301 	orr.w	r3, r3, #1
 80010f4:	6323      	str	r3, [r4, #48]	; 0x30
 80010f6:	6b23      	ldr	r3, [r4, #48]	; 0x30
 80010f8:	f003 0301 	and.w	r3, r3, #1
 80010fc:	9301      	str	r3, [sp, #4]
 80010fe:	9b01      	ldr	r3, [sp, #4]
 8001100:	f04f 0812 	mov.w	r8, #18
 8001104:	f44f 7300 	mov.w	r3, #512	; 0x200
 8001108:	2703      	movs	r7, #3
 800110a:	2604      	movs	r6, #4
 800110c:	a903      	add	r1, sp, #12
 800110e:	e9cd 3803 	strd	r3, r8, [sp, #12]
 8001112:	e9cd 7606 	strd	r7, r6, [sp, #24]
 8001116:	f001 f963 	bl	80023e0 <HAL_GPIO_Init>
 800111a:	f44f 7380 	mov.w	r3, #256	; 0x100
 800111e:	480e      	ldr	r0, [pc, #56]	; (8001158 <HAL_I2C_MspInit+0xa0>)
 8001120:	9607      	str	r6, [sp, #28]
 8001122:	a903      	add	r1, sp, #12
 8001124:	e9cd 3803 	strd	r3, r8, [sp, #12]
 8001128:	e9cd 5705 	strd	r5, r7, [sp, #20]
 800112c:	f001 f958 	bl	80023e0 <HAL_GPIO_Init>
 8001130:	9502      	str	r5, [sp, #8]
 8001132:	6c23      	ldr	r3, [r4, #64]	; 0x40
 8001134:	f443 0300 	orr.w	r3, r3, #8388608	; 0x800000
 8001138:	6423      	str	r3, [r4, #64]	; 0x40
 800113a:	6c23      	ldr	r3, [r4, #64]	; 0x40
 800113c:	f403 0300 	and.w	r3, r3, #8388608	; 0x800000
 8001140:	9302      	str	r3, [sp, #8]
 8001142:	9b02      	ldr	r3, [sp, #8]
 8001144:	b008      	add	sp, #32
 8001146:	e8bd 81f0 	ldmia.w	sp!, {r4, r5, r6, r7, r8, pc}
 800114a:	bf00      	nop
 800114c:	40005c00 	.word	0x40005c00
 8001150:	40023800 	.word	0x40023800
 8001154:	40020800 	.word	0x40020800
 8001158:	40020000 	.word	0x40020000

0800115c <HAL_I2C_MspDeInit>:
 800115c:	b508      	push	{r3, lr}
 800115e:	6802      	ldr	r2, [r0, #0]
 8001160:	4b0a      	ldr	r3, [pc, #40]	; (800118c <HAL_I2C_MspDeInit+0x30>)
 8001162:	429a      	cmp	r2, r3
 8001164:	d110      	bne.n	8001188 <HAL_I2C_MspDeInit+0x2c>
 8001166:	4a0a      	ldr	r2, [pc, #40]	; (8001190 <HAL_I2C_MspDeInit+0x34>)
 8001168:	480a      	ldr	r0, [pc, #40]	; (8001194 <HAL_I2C_MspDeInit+0x38>)
 800116a:	6c13      	ldr	r3, [r2, #64]	; 0x40
 800116c:	f423 0300 	bic.w	r3, r3, #8388608	; 0x800000
 8001170:	6413      	str	r3, [r2, #64]	; 0x40
 8001172:	f44f 7100 	mov.w	r1, #512	; 0x200
 8001176:	f001 f9fb 	bl	8002570 <HAL_GPIO_DeInit>
 800117a:	e8bd 4008 	ldmia.w	sp!, {r3, lr}
 800117e:	4806      	ldr	r0, [pc, #24]	; (8001198 <HAL_I2C_MspDeInit+0x3c>)
 8001180:	f44f 7180 	mov.w	r1, #256	; 0x100
 8001184:	f001 b9f4 	b.w	8002570 <HAL_GPIO_DeInit>
 8001188:	bd08      	pop	{r3, pc}
 800118a:	bf00      	nop
 800118c:	40005c00 	.word	0x40005c00
 8001190:	40023800 	.word	0x40023800
 8001194:	40020800 	.word	0x40020800
 8001198:	40020000 	.word	0x40020000

0800119c <MX_I2S3_Init>:
 800119c:	b508      	push	{r3, lr}
 800119e:	480c      	ldr	r0, [pc, #48]	; (80011d0 <MX_I2S3_Init+0x34>)
 80011a0:	4b0c      	ldr	r3, [pc, #48]	; (80011d4 <MX_I2S3_Init+0x38>)
 80011a2:	f44f 7200 	mov.w	r2, #512	; 0x200
 80011a6:	e9c0 3200 	strd	r3, r2, [r0]
 80011aa:	6102      	str	r2, [r0, #16]
 80011ac:	2300      	movs	r3, #0
 80011ae:	f64a 4244 	movw	r2, #44100	; 0xac44
 80011b2:	e9c0 3302 	strd	r3, r3, [r0, #8]
 80011b6:	e9c0 2305 	strd	r2, r3, [r0, #20]
 80011ba:	e9c0 3307 	strd	r3, r3, [r0, #28]
 80011be:	f002 fca5 	bl	8003b0c <HAL_I2S_Init>
 80011c2:	b118      	cbz	r0, 80011cc <MX_I2S3_Init+0x30>
 80011c4:	e8bd 4008 	ldmia.w	sp!, {r3, lr}
 80011c8:	f000 ba12 	b.w	80015f0 <Error_Handler>
 80011cc:	bd08      	pop	{r3, pc}
 80011ce:	bf00      	nop
 80011d0:	200002d0 	.word	0x200002d0
 80011d4:	40003c00 	.word	0x40003c00

080011d8 <HAL_I2S_MspInit>:
 80011d8:	b5f0      	push	{r4, r5, r6, r7, lr}
 80011da:	b08f      	sub	sp, #60	; 0x3c
 80011dc:	4606      	mov	r6, r0
 80011de:	2214      	movs	r2, #20
 80011e0:	2100      	movs	r1, #0
 80011e2:	a803      	add	r0, sp, #12
 80011e4:	f007 fe6a 	bl	8008ebc <memset>
 80011e8:	2218      	movs	r2, #24
 80011ea:	2100      	movs	r1, #0
 80011ec:	a808      	add	r0, sp, #32
 80011ee:	f007 fe65 	bl	8008ebc <memset>
 80011f2:	6832      	ldr	r2, [r6, #0]
 80011f4:	4b36      	ldr	r3, [pc, #216]	; (80012d0 <HAL_I2S_MspInit+0xf8>)
 80011f6:	429a      	cmp	r2, r3
 80011f8:	d168      	bne.n	80012cc <HAL_I2S_MspInit+0xf4>
 80011fa:	2301      	movs	r3, #1
 80011fc:	9308      	str	r3, [sp, #32]
 80011fe:	25c8      	movs	r5, #200	; 0xc8
 8001200:	2305      	movs	r3, #5
 8001202:	e9cd 3509 	strd	r3, r5, [sp, #36]	; 0x24
 8001206:	a808      	add	r0, sp, #32
 8001208:	2302      	movs	r3, #2
 800120a:	930b      	str	r3, [sp, #44]	; 0x2c
 800120c:	f003 fb58 	bl	80048c0 <HAL_RCCEx_PeriphCLKConfig>
 8001210:	b108      	cbz	r0, 8001216 <HAL_I2S_MspInit+0x3e>
 8001212:	f000 f9ed 	bl	80015f0 <Error_Handler>
 8001216:	4b2f      	ldr	r3, [pc, #188]	; (80012d4 <HAL_I2S_MspInit+0xfc>)
 8001218:	482f      	ldr	r0, [pc, #188]	; (80012d8 <HAL_I2S_MspInit+0x100>)
 800121a:	2500      	movs	r5, #0
 800121c:	9500      	str	r5, [sp, #0]
 800121e:	6c1a      	ldr	r2, [r3, #64]	; 0x40
 8001220:	f442 4200 	orr.w	r2, r2, #32768	; 0x8000
 8001224:	641a      	str	r2, [r3, #64]	; 0x40
 8001226:	6c1a      	ldr	r2, [r3, #64]	; 0x40
 8001228:	f402 4200 	and.w	r2, r2, #32768	; 0x8000
 800122c:	9200      	str	r2, [sp, #0]
 800122e:	9a00      	ldr	r2, [sp, #0]
 8001230:	9501      	str	r5, [sp, #4]
 8001232:	6b1a      	ldr	r2, [r3, #48]	; 0x30
 8001234:	f042 0201 	orr.w	r2, r2, #1
 8001238:	631a      	str	r2, [r3, #48]	; 0x30
 800123a:	6b1a      	ldr	r2, [r3, #48]	; 0x30
 800123c:	f002 0201 	and.w	r2, r2, #1
 8001240:	9201      	str	r2, [sp, #4]
 8001242:	9a01      	ldr	r2, [sp, #4]
 8001244:	9502      	str	r5, [sp, #8]
 8001246:	6b1a      	ldr	r2, [r3, #48]	; 0x30
 8001248:	f042 0204 	orr.w	r2, r2, #4
 800124c:	631a      	str	r2, [r3, #48]	; 0x30
 800124e:	6b1b      	ldr	r3, [r3, #48]	; 0x30
 8001250:	f003 0304 	and.w	r3, r3, #4
 8001254:	9302      	str	r3, [sp, #8]
 8001256:	2406      	movs	r4, #6
 8001258:	9b02      	ldr	r3, [sp, #8]
 800125a:	9407      	str	r4, [sp, #28]
 800125c:	2310      	movs	r3, #16
 800125e:	2702      	movs	r7, #2
 8001260:	a903      	add	r1, sp, #12
 8001262:	e9cd 3703 	strd	r3, r7, [sp, #12]
 8001266:	e9cd 5505 	strd	r5, r5, [sp, #20]
 800126a:	f001 f8b9 	bl	80023e0 <HAL_GPIO_Init>
 800126e:	f44f 53a4 	mov.w	r3, #5248	; 0x1480
 8001272:	481a      	ldr	r0, [pc, #104]	; (80012dc <HAL_I2S_MspInit+0x104>)
 8001274:	9407      	str	r4, [sp, #28]
 8001276:	a903      	add	r1, sp, #12
 8001278:	4c19      	ldr	r4, [pc, #100]	; (80012e0 <HAL_I2S_MspInit+0x108>)
 800127a:	e9cd 3703 	strd	r3, r7, [sp, #12]
 800127e:	e9cd 5505 	strd	r5, r5, [sp, #20]
 8001282:	f001 f8ad 	bl	80023e0 <HAL_GPIO_Init>
 8001286:	4b17      	ldr	r3, [pc, #92]	; (80012e4 <HAL_I2S_MspInit+0x10c>)
 8001288:	6325      	str	r5, [r4, #48]	; 0x30
 800128a:	e9c4 3500 	strd	r3, r5, [r4]
 800128e:	2340      	movs	r3, #64	; 0x40
 8001290:	e9c4 3502 	strd	r3, r5, [r4, #8]
 8001294:	f44f 6280 	mov.w	r2, #1024	; 0x400
 8001298:	f44f 6300 	mov.w	r3, #2048	; 0x800
 800129c:	e9c4 2304 	strd	r2, r3, [r4, #16]
 80012a0:	f44f 5100 	mov.w	r1, #8192	; 0x2000
 80012a4:	f44f 7380 	mov.w	r3, #256	; 0x100
 80012a8:	f44f 3040 	mov.w	r0, #196608	; 0x30000
 80012ac:	e9c4 1306 	strd	r1, r3, [r4, #24]
 80012b0:	2304      	movs	r3, #4
 80012b2:	e9c4 0308 	strd	r0, r3, [r4, #32]
 80012b6:	2303      	movs	r3, #3
 80012b8:	4620      	mov	r0, r4
 80012ba:	e9c4 350a 	strd	r3, r5, [r4, #40]	; 0x28
 80012be:	f000 fe9d 	bl	8001ffc <HAL_DMA_Init>
 80012c2:	b108      	cbz	r0, 80012c8 <HAL_I2S_MspInit+0xf0>
 80012c4:	f000 f994 	bl	80015f0 <Error_Handler>
 80012c8:	63b4      	str	r4, [r6, #56]	; 0x38
 80012ca:	63a6      	str	r6, [r4, #56]	; 0x38
 80012cc:	b00f      	add	sp, #60	; 0x3c
 80012ce:	bdf0      	pop	{r4, r5, r6, r7, pc}
 80012d0:	40003c00 	.word	0x40003c00
 80012d4:	40023800 	.word	0x40023800
 80012d8:	40020000 	.word	0x40020000
 80012dc:	40020800 	.word	0x40020800
 80012e0:	20000270 	.word	0x20000270
 80012e4:	40026088 	.word	0x40026088

080012e8 <SystemClock_Config>:
 80012e8:	b510      	push	{r4, lr}
 80012ea:	b094      	sub	sp, #80	; 0x50
 80012ec:	2210      	movs	r2, #16
 80012ee:	2100      	movs	r1, #0
 80012f0:	a80a      	add	r0, sp, #40	; 0x28
 80012f2:	f007 fde3 	bl	8008ebc <memset>
 80012f6:	2214      	movs	r2, #20
 80012f8:	2100      	movs	r1, #0
 80012fa:	a803      	add	r0, sp, #12
 80012fc:	f007 fdde 	bl	8008ebc <memset>
 8001300:	4b1f      	ldr	r3, [pc, #124]	; (8001380 <SystemClock_Config+0x98>)
 8001302:	2100      	movs	r1, #0
 8001304:	9101      	str	r1, [sp, #4]
 8001306:	6c1a      	ldr	r2, [r3, #64]	; 0x40
 8001308:	f042 5280 	orr.w	r2, r2, #268435456	; 0x10000000
 800130c:	641a      	str	r2, [r3, #64]	; 0x40
 800130e:	6c1b      	ldr	r3, [r3, #64]	; 0x40
 8001310:	f003 5380 	and.w	r3, r3, #268435456	; 0x10000000
 8001314:	9301      	str	r3, [sp, #4]
 8001316:	9b01      	ldr	r3, [sp, #4]
 8001318:	4b1a      	ldr	r3, [pc, #104]	; (8001384 <SystemClock_Config+0x9c>)
 800131a:	9102      	str	r1, [sp, #8]
 800131c:	681a      	ldr	r2, [r3, #0]
 800131e:	f442 4240 	orr.w	r2, r2, #49152	; 0xc000
 8001322:	601a      	str	r2, [r3, #0]
 8001324:	681b      	ldr	r3, [r3, #0]
 8001326:	f403 4340 	and.w	r3, r3, #49152	; 0xc000
 800132a:	9302      	str	r3, [sp, #8]
 800132c:	2201      	movs	r2, #1
 800132e:	9b02      	ldr	r3, [sp, #8]
 8001330:	f44f 3380 	mov.w	r3, #65536	; 0x10000
 8001334:	e9cd 2308 	strd	r2, r3, [sp, #32]
 8001338:	2402      	movs	r4, #2
 800133a:	f44f 0380 	mov.w	r3, #4194304	; 0x400000
 800133e:	e9cd 430e 	strd	r4, r3, [sp, #56]	; 0x38
 8001342:	22c0      	movs	r2, #192	; 0xc0
 8001344:	2304      	movs	r3, #4
 8001346:	e9cd 3210 	strd	r3, r2, [sp, #64]	; 0x40
 800134a:	9312      	str	r3, [sp, #72]	; 0x48
 800134c:	a808      	add	r0, sp, #32
 800134e:	2308      	movs	r3, #8
 8001350:	9313      	str	r3, [sp, #76]	; 0x4c
 8001352:	f003 f821 	bl	8004398 <HAL_RCC_OscConfig>
 8001356:	b108      	cbz	r0, 800135c <SystemClock_Config+0x74>
 8001358:	b672      	cpsid	i
 800135a:	e7fe      	b.n	800135a <SystemClock_Config+0x72>
 800135c:	230f      	movs	r3, #15
 800135e:	e9cd 3403 	strd	r3, r4, [sp, #12]
 8001362:	f44f 53a0 	mov.w	r3, #5120	; 0x1400
 8001366:	e9cd 3006 	strd	r3, r0, [sp, #24]
 800136a:	9005      	str	r0, [sp, #20]
 800136c:	2103      	movs	r1, #3
 800136e:	a803      	add	r0, sp, #12
 8001370:	f003 f9ec 	bl	800474c <HAL_RCC_ClockConfig>
 8001374:	b108      	cbz	r0, 800137a <SystemClock_Config+0x92>
 8001376:	b672      	cpsid	i
 8001378:	e7fe      	b.n	8001378 <SystemClock_Config+0x90>
 800137a:	b014      	add	sp, #80	; 0x50
 800137c:	bd10      	pop	{r4, pc}
 800137e:	bf00      	nop
 8001380:	40023800 	.word	0x40023800
 8001384:	40007000 	.word	0x40007000

08001388 <manejar_uart>:
 8001388:	4b0b      	ldr	r3, [pc, #44]	; (80013b8 <manejar_uart+0x30>)
 800138a:	781a      	ldrb	r2, [r3, #0]
 800138c:	b192      	cbz	r2, 80013b4 <manejar_uart+0x2c>
 800138e:	2200      	movs	r2, #0
 8001390:	701a      	strb	r2, [r3, #0]
 8001392:	4b0a      	ldr	r3, [pc, #40]	; (80013bc <manejar_uart+0x34>)
 8001394:	7818      	ldrb	r0, [r3, #0]
 8001396:	3830      	subs	r0, #48	; 0x30
 8001398:	b2c3      	uxtb	r3, r0
 800139a:	2b09      	cmp	r3, #9
 800139c:	d80a      	bhi.n	80013b4 <manejar_uart+0x2c>
 800139e:	4b08      	ldr	r3, [pc, #32]	; (80013c0 <manejar_uart+0x38>)
 80013a0:	781b      	ldrb	r3, [r3, #0]
 80013a2:	4298      	cmp	r0, r3
 80013a4:	da06      	bge.n	80013b4 <manejar_uart+0x2c>
 80013a6:	4b07      	ldr	r3, [pc, #28]	; (80013c4 <manejar_uart+0x3c>)
 80013a8:	7018      	strb	r0, [r3, #0]
 80013aa:	4b07      	ldr	r3, [pc, #28]	; (80013c8 <manejar_uart+0x40>)
 80013ac:	2205      	movs	r2, #5
 80013ae:	701a      	strb	r2, [r3, #0]
 80013b0:	f7ff bce0 	b.w	8000d74 <display_cancion>
 80013b4:	4770      	bx	lr
 80013b6:	bf00      	nop
 80013b8:	2000031e 	.word	0x2000031e
 80013bc:	2000031f 	.word	0x2000031f
 80013c0:	20000048 	.word	0x20000048
 80013c4:	20000319 	.word	0x20000319
 80013c8:	20000830 	.word	0x20000830

080013cc <manejar_cambio_cancion>:
 80013cc:	491a      	ldr	r1, [pc, #104]	; (8001438 <manejar_cambio_cancion+0x6c>)
 80013ce:	780b      	ldrb	r3, [r1, #0]
 80013d0:	b510      	push	{r4, lr}
 80013d2:	b1ab      	cbz	r3, 8001400 <manejar_cambio_cancion+0x34>
 80013d4:	4a19      	ldr	r2, [pc, #100]	; (800143c <manejar_cambio_cancion+0x70>)
 80013d6:	4c1a      	ldr	r4, [pc, #104]	; (8001440 <manejar_cambio_cancion+0x74>)
 80013d8:	481a      	ldr	r0, [pc, #104]	; (8001444 <manejar_cambio_cancion+0x78>)
 80013da:	230a      	movs	r3, #10
 80013dc:	7023      	strb	r3, [r4, #0]
 80013de:	7813      	ldrb	r3, [r2, #0]
 80013e0:	7800      	ldrb	r0, [r0, #0]
 80013e2:	3301      	adds	r3, #1
 80013e4:	b25b      	sxtb	r3, r3
 80013e6:	7013      	strb	r3, [r2, #0]
 80013e8:	4283      	cmp	r3, r0
 80013ea:	f04f 0300 	mov.w	r3, #0
 80013ee:	bfa8      	it	ge
 80013f0:	7013      	strbge	r3, [r2, #0]
 80013f2:	f992 0000 	ldrsb.w	r0, [r2]
 80013f6:	700b      	strb	r3, [r1, #0]
 80013f8:	f7ff fcbc 	bl	8000d74 <display_cancion>
 80013fc:	2305      	movs	r3, #5
 80013fe:	7023      	strb	r3, [r4, #0]
 8001400:	4911      	ldr	r1, [pc, #68]	; (8001448 <manejar_cambio_cancion+0x7c>)
 8001402:	780b      	ldrb	r3, [r1, #0]
 8001404:	b1b3      	cbz	r3, 8001434 <manejar_cambio_cancion+0x68>
 8001406:	4a0d      	ldr	r2, [pc, #52]	; (800143c <manejar_cambio_cancion+0x70>)
 8001408:	7813      	ldrb	r3, [r2, #0]
 800140a:	3b01      	subs	r3, #1
 800140c:	b25b      	sxtb	r3, r3
 800140e:	2b00      	cmp	r3, #0
 8001410:	7013      	strb	r3, [r2, #0]
 8001412:	bfbf      	itttt	lt
 8001414:	4b0b      	ldrlt	r3, [pc, #44]	; (8001444 <manejar_cambio_cancion+0x78>)
 8001416:	781b      	ldrblt	r3, [r3, #0]
 8001418:	f103 33ff 	addlt.w	r3, r3, #4294967295
 800141c:	7013      	strblt	r3, [r2, #0]
 800141e:	2300      	movs	r3, #0
 8001420:	700b      	strb	r3, [r1, #0]
 8001422:	4b07      	ldr	r3, [pc, #28]	; (8001440 <manejar_cambio_cancion+0x74>)
 8001424:	f992 0000 	ldrsb.w	r0, [r2]
 8001428:	2106      	movs	r1, #6
 800142a:	7019      	strb	r1, [r3, #0]
 800142c:	e8bd 4010 	ldmia.w	sp!, {r4, lr}
 8001430:	f7ff bca0 	b.w	8000d74 <display_cancion>
 8001434:	bd10      	pop	{r4, pc}
 8001436:	bf00      	nop
 8001438:	2000031a 	.word	0x2000031a
 800143c:	20000319 	.word	0x20000319
 8001440:	20000830 	.word	0x20000830
 8001444:	20000048 	.word	0x20000048
 8001448:	2000031c 	.word	0x2000031c

0800144c <manejar_cambio_parlante>:
 800144c:	4919      	ldr	r1, [pc, #100]	; (80014b4 <manejar_cambio_parlante+0x68>)
 800144e:	b508      	push	{r3, lr}
 8001450:	780b      	ldrb	r3, [r1, #0]
 8001452:	b1ab      	cbz	r3, 8001480 <manejar_cambio_parlante+0x34>
 8001454:	4a18      	ldr	r2, [pc, #96]	; (80014b8 <manejar_cambio_parlante+0x6c>)
 8001456:	7813      	ldrb	r3, [r2, #0]
 8001458:	3301      	adds	r3, #1
 800145a:	b25b      	sxtb	r3, r3
 800145c:	2b05      	cmp	r3, #5
 800145e:	f04f 0000 	mov.w	r0, #0
 8001462:	bfd4      	ite	le
 8001464:	7013      	strble	r3, [r2, #0]
 8001466:	7010      	strbgt	r0, [r2, #0]
 8001468:	7008      	strb	r0, [r1, #0]
 800146a:	7810      	ldrb	r0, [r2, #0]
 800146c:	f000 f8c2 	bl	80015f4 <Activar_Parlante>
 8001470:	4b12      	ldr	r3, [pc, #72]	; (80014bc <manejar_cambio_parlante+0x70>)
 8001472:	f993 0000 	ldrsb.w	r0, [r3]
 8001476:	f7ff fc7d 	bl	8000d74 <display_cancion>
 800147a:	4b11      	ldr	r3, [pc, #68]	; (80014c0 <manejar_cambio_parlante+0x74>)
 800147c:	2203      	movs	r2, #3
 800147e:	701a      	strb	r2, [r3, #0]
 8001480:	4910      	ldr	r1, [pc, #64]	; (80014c4 <manejar_cambio_parlante+0x78>)
 8001482:	780b      	ldrb	r3, [r1, #0]
 8001484:	b1a3      	cbz	r3, 80014b0 <manejar_cambio_parlante+0x64>
 8001486:	4a0c      	ldr	r2, [pc, #48]	; (80014b8 <manejar_cambio_parlante+0x6c>)
 8001488:	7813      	ldrb	r3, [r2, #0]
 800148a:	3b01      	subs	r3, #1
 800148c:	b25b      	sxtb	r3, r3
 800148e:	2b00      	cmp	r3, #0
 8001490:	bfb8      	it	lt
 8001492:	2305      	movlt	r3, #5
 8001494:	7013      	strb	r3, [r2, #0]
 8001496:	7810      	ldrb	r0, [r2, #0]
 8001498:	2300      	movs	r3, #0
 800149a:	700b      	strb	r3, [r1, #0]
 800149c:	f000 f8aa 	bl	80015f4 <Activar_Parlante>
 80014a0:	4b06      	ldr	r3, [pc, #24]	; (80014bc <manejar_cambio_parlante+0x70>)
 80014a2:	f993 0000 	ldrsb.w	r0, [r3]
 80014a6:	f7ff fc65 	bl	8000d74 <display_cancion>
 80014aa:	4b05      	ldr	r3, [pc, #20]	; (80014c0 <manejar_cambio_parlante+0x74>)
 80014ac:	2203      	movs	r2, #3
 80014ae:	701a      	strb	r2, [r3, #0]
 80014b0:	bd08      	pop	{r3, pc}
 80014b2:	bf00      	nop
 80014b4:	2000031b 	.word	0x2000031b
 80014b8:	20000318 	.word	0x20000318
 80014bc:	20000319 	.word	0x20000319
 80014c0:	20000830 	.word	0x20000830
 80014c4:	2000031d 	.word	0x2000031d

080014c8 <MainLoop>:
 80014c8:	b538      	push	{r3, r4, r5, lr}
 80014ca:	4d08      	ldr	r5, [pc, #32]	; (80014ec <MainLoop+0x24>)
 80014cc:	4c08      	ldr	r4, [pc, #32]	; (80014f0 <MainLoop+0x28>)
 80014ce:	782b      	ldrb	r3, [r5, #0]
 80014d0:	2b02      	cmp	r3, #2
 80014d2:	d10a      	bne.n	80014ea <MainLoop+0x22>
 80014d4:	7821      	ldrb	r1, [r4, #0]
 80014d6:	2001      	movs	r0, #1
 80014d8:	f000 fbd2 	bl	8001c80 <AUDIO_PLAYER_Process>
 80014dc:	f7ff ff54 	bl	8001388 <manejar_uart>
 80014e0:	f7ff ff74 	bl	80013cc <manejar_cambio_cancion>
 80014e4:	f7ff ffb2 	bl	800144c <manejar_cambio_parlante>
 80014e8:	e7f1      	b.n	80014ce <MainLoop+0x6>
 80014ea:	bd38      	pop	{r3, r4, r5, pc}
 80014ec:	200026fc 	.word	0x200026fc
 80014f0:	20000319 	.word	0x20000319

080014f4 <main>:
 80014f4:	b508      	push	{r3, lr}
 80014f6:	f000 fcc5 	bl	8001e84 <HAL_Init>
 80014fa:	f7ff fef5 	bl	80012e8 <SystemClock_Config>
 80014fe:	f7ff fd1d 	bl	8000f3c <MX_GPIO_Init>
 8001502:	f7ff fce7 	bl	8000ed4 <MX_DMA_Init>
 8001506:	f7ff fe49 	bl	800119c <MX_I2S3_Init>
 800150a:	f004 f937 	bl	800577c <MX_FATFS_Init>
 800150e:	f007 fad1 	bl	8008ab4 <MX_USB_HOST_Init>
 8001512:	f000 faab 	bl	8001a6c <MX_USART1_UART_Init>
 8001516:	f7ff fdb1 	bl	800107c <MX_I2C3_Init>
 800151a:	f000 f96d 	bl	80017f8 <SSD1306_Init>
 800151e:	4915      	ldr	r1, [pc, #84]	; (8001574 <main+0x80>)
 8001520:	4815      	ldr	r0, [pc, #84]	; (8001578 <main+0x84>)
 8001522:	4e16      	ldr	r6, [pc, #88]	; (800157c <main+0x88>)
 8001524:	2201      	movs	r2, #1
 8001526:	f003 fd38 	bl	8004f9a <HAL_UART_Receive_IT>
 800152a:	f007 fae3 	bl	8008af4 <MX_USB_HOST_Process>
 800152e:	7833      	ldrb	r3, [r6, #0]
 8001530:	2b02      	cmp	r3, #2
 8001532:	d1fa      	bne.n	800152a <main+0x36>
 8001534:	4c12      	ldr	r4, [pc, #72]	; (8001580 <main+0x8c>)
 8001536:	4d13      	ldr	r5, [pc, #76]	; (8001584 <main+0x90>)
 8001538:	f7ff fabe 	bl	8000ab8 <Mount_USB>
 800153c:	7820      	ldrb	r0, [r4, #0]
 800153e:	f000 fb51 	bl	8001be4 <AUDIO_PLAYER_Start>
 8001542:	f994 0000 	ldrsb.w	r0, [r4]
 8001546:	f7ff fc15 	bl	8000d74 <display_cancion>
 800154a:	7828      	ldrb	r0, [r5, #0]
 800154c:	f000 f852 	bl	80015f4 <Activar_Parlante>
 8001550:	7833      	ldrb	r3, [r6, #0]
 8001552:	2b02      	cmp	r3, #2
 8001554:	d1fd      	bne.n	8001552 <main+0x5e>
 8001556:	f7ff faaf 	bl	8000ab8 <Mount_USB>
 800155a:	7820      	ldrb	r0, [r4, #0]
 800155c:	f000 fb42 	bl	8001be4 <AUDIO_PLAYER_Start>
 8001560:	f994 0000 	ldrsb.w	r0, [r4]
 8001564:	f7ff fc06 	bl	8000d74 <display_cancion>
 8001568:	7828      	ldrb	r0, [r5, #0]
 800156a:	f000 f843 	bl	80015f4 <Activar_Parlante>
 800156e:	f7ff ffab 	bl	80014c8 <MainLoop>
 8001572:	e7ed      	b.n	8001550 <main+0x5c>
 8001574:	2000031f 	.word	0x2000031f
 8001578:	200007ec 	.word	0x200007ec
 800157c:	200026fc 	.word	0x200026fc
 8001580:	20000319 	.word	0x20000319
 8001584:	20000318 	.word	0x20000318

08001588 <HAL_UART_RxCpltCallback>:
 8001588:	6802      	ldr	r2, [r0, #0]
 800158a:	4b05      	ldr	r3, [pc, #20]	; (80015a0 <HAL_UART_RxCpltCallback+0x18>)
 800158c:	429a      	cmp	r2, r3
 800158e:	d106      	bne.n	800159e <HAL_UART_RxCpltCallback+0x16>
 8001590:	4b04      	ldr	r3, [pc, #16]	; (80015a4 <HAL_UART_RxCpltCallback+0x1c>)
 8001592:	4905      	ldr	r1, [pc, #20]	; (80015a8 <HAL_UART_RxCpltCallback+0x20>)
 8001594:	4805      	ldr	r0, [pc, #20]	; (80015ac <HAL_UART_RxCpltCallback+0x24>)
 8001596:	2201      	movs	r2, #1
 8001598:	701a      	strb	r2, [r3, #0]
 800159a:	f003 bcfe 	b.w	8004f9a <HAL_UART_Receive_IT>
 800159e:	4770      	bx	lr
 80015a0:	40011000 	.word	0x40011000
 80015a4:	2000031e 	.word	0x2000031e
 80015a8:	2000031f 	.word	0x2000031f
 80015ac:	200007ec 	.word	0x200007ec

080015b0 <HAL_GPIO_EXTI_Callback>:
 80015b0:	f5b0 4f00 	cmp.w	r0, #32768	; 0x8000
 80015b4:	d103      	bne.n	80015be <HAL_GPIO_EXTI_Callback+0xe>
 80015b6:	4b0a      	ldr	r3, [pc, #40]	; (80015e0 <HAL_GPIO_EXTI_Callback+0x30>)
 80015b8:	2201      	movs	r2, #1
 80015ba:	701a      	strb	r2, [r3, #0]
 80015bc:	4770      	bx	lr
 80015be:	f5b0 5f00 	cmp.w	r0, #8192	; 0x2000
 80015c2:	d006      	beq.n	80015d2 <HAL_GPIO_EXTI_Callback+0x22>
 80015c4:	f5b0 6f00 	cmp.w	r0, #2048	; 0x800
 80015c8:	d005      	beq.n	80015d6 <HAL_GPIO_EXTI_Callback+0x26>
 80015ca:	f5b0 7f00 	cmp.w	r0, #512	; 0x200
 80015ce:	d004      	beq.n	80015da <HAL_GPIO_EXTI_Callback+0x2a>
 80015d0:	4770      	bx	lr
 80015d2:	4b04      	ldr	r3, [pc, #16]	; (80015e4 <HAL_GPIO_EXTI_Callback+0x34>)
 80015d4:	e7f0      	b.n	80015b8 <HAL_GPIO_EXTI_Callback+0x8>
 80015d6:	4b04      	ldr	r3, [pc, #16]	; (80015e8 <HAL_GPIO_EXTI_Callback+0x38>)
 80015d8:	e7ee      	b.n	80015b8 <HAL_GPIO_EXTI_Callback+0x8>
 80015da:	4b04      	ldr	r3, [pc, #16]	; (80015ec <HAL_GPIO_EXTI_Callback+0x3c>)
 80015dc:	e7ec      	b.n	80015b8 <HAL_GPIO_EXTI_Callback+0x8>
 80015de:	bf00      	nop
 80015e0:	2000031a 	.word	0x2000031a
 80015e4:	2000031b 	.word	0x2000031b
 80015e8:	2000031d 	.word	0x2000031d
 80015ec:	2000031c 	.word	0x2000031c

080015f0 <Error_Handler>:
 80015f0:	b672      	cpsid	i
 80015f2:	e7fe      	b.n	80015f2 <Error_Handler+0x2>

080015f4 <Activar_Parlante>:
 80015f4:	b570      	push	{r4, r5, r6, lr}
 80015f6:	4d08      	ldr	r5, [pc, #32]	; (8001618 <Activar_Parlante+0x24>)
 80015f8:	4606      	mov	r6, r0
 80015fa:	2400      	movs	r4, #0
 80015fc:	42a6      	cmp	r6, r4
 80015fe:	6828      	ldr	r0, [r5, #0]
 8001600:	88a9      	ldrh	r1, [r5, #4]
 8001602:	bf0c      	ite	eq
 8001604:	2200      	moveq	r2, #0
 8001606:	2201      	movne	r2, #1
 8001608:	3401      	adds	r4, #1
 800160a:	f001 f82d 	bl	8002668 <HAL_GPIO_WritePin>
 800160e:	2c06      	cmp	r4, #6
 8001610:	f105 0508 	add.w	r5, r5, #8
 8001614:	d1f2      	bne.n	80015fc <Activar_Parlante+0x8>
 8001616:	bd70      	pop	{r4, r5, r6, pc}
 8001618:	2000004c 	.word	0x2000004c

0800161c <SSD1306_Fill>:
 800161c:	2800      	cmp	r0, #0
 800161e:	f44f 6280 	mov.w	r2, #1024	; 0x400
 8001622:	4803      	ldr	r0, [pc, #12]	; (8001630 <SSD1306_Fill+0x14>)
 8001624:	bf14      	ite	ne
 8001626:	21ff      	movne	r1, #255	; 0xff
 8001628:	2100      	moveq	r1, #0
 800162a:	f007 bc47 	b.w	8008ebc <memset>
 800162e:	bf00      	nop
 8001630:	20000326 	.word	0x20000326

08001634 <SSD1306_DrawPixel>:
 8001634:	287f      	cmp	r0, #127	; 0x7f
 8001636:	b530      	push	{r4, r5, lr}
 8001638:	d810      	bhi.n	800165c <SSD1306_DrawPixel+0x28>
 800163a:	293f      	cmp	r1, #63	; 0x3f
 800163c:	d80e      	bhi.n	800165c <SSD1306_DrawPixel+0x28>
 800163e:	4b0d      	ldr	r3, [pc, #52]	; (8001674 <SSD1306_DrawPixel+0x40>)
 8001640:	4c0d      	ldr	r4, [pc, #52]	; (8001678 <SSD1306_DrawPixel+0x44>)
 8001642:	791d      	ldrb	r5, [r3, #4]
 8001644:	08cb      	lsrs	r3, r1, #3
 8001646:	f001 0107 	and.w	r1, r1, #7
 800164a:	b145      	cbz	r5, 800165e <SSD1306_DrawPixel+0x2a>
 800164c:	b94a      	cbnz	r2, 8001662 <SSD1306_DrawPixel+0x2e>
 800164e:	eb00 10c3 	add.w	r0, r0, r3, lsl #7
 8001652:	2301      	movs	r3, #1
 8001654:	5c22      	ldrb	r2, [r4, r0]
 8001656:	408b      	lsls	r3, r1
 8001658:	4313      	orrs	r3, r2
 800165a:	5423      	strb	r3, [r4, r0]
 800165c:	bd30      	pop	{r4, r5, pc}
 800165e:	2a01      	cmp	r2, #1
 8001660:	d0f5      	beq.n	800164e <SSD1306_DrawPixel+0x1a>
 8001662:	eb00 10c3 	add.w	r0, r0, r3, lsl #7
 8001666:	2201      	movs	r2, #1
 8001668:	5c23      	ldrb	r3, [r4, r0]
 800166a:	408a      	lsls	r2, r1
 800166c:	ea23 0302 	bic.w	r3, r3, r2
 8001670:	e7f3      	b.n	800165a <SSD1306_DrawPixel+0x26>
 8001672:	bf00      	nop
 8001674:	20000320 	.word	0x20000320
 8001678:	20000326 	.word	0x20000326

0800167c <SSD1306_GotoXY>:
 800167c:	4b01      	ldr	r3, [pc, #4]	; (8001684 <SSD1306_GotoXY+0x8>)
 800167e:	8018      	strh	r0, [r3, #0]
 8001680:	8059      	strh	r1, [r3, #2]
 8001682:	4770      	bx	lr
 8001684:	20000320 	.word	0x20000320

08001688 <SSD1306_Putc>:
 8001688:	e92d 4ff0 	stmdb	sp!, {r4, r5, r6, r7, r8, r9, sl, fp, lr}
 800168c:	f8df b08c 	ldr.w	fp, [pc, #140]	; 800171c <SSD1306_Putc+0x94>
 8001690:	4691      	mov	r9, r2
 8001692:	f8bb 6000 	ldrh.w	r6, [fp]
 8001696:	780a      	ldrb	r2, [r1, #0]
 8001698:	4432      	add	r2, r6
 800169a:	2a7f      	cmp	r2, #127	; 0x7f
 800169c:	b085      	sub	sp, #20
 800169e:	4605      	mov	r5, r0
 80016a0:	460c      	mov	r4, r1
 80016a2:	dc39      	bgt.n	8001718 <SSD1306_Putc+0x90>
 80016a4:	f8bb a002 	ldrh.w	sl, [fp, #2]
 80016a8:	784a      	ldrb	r2, [r1, #1]
 80016aa:	4452      	add	r2, sl
 80016ac:	2a3f      	cmp	r2, #63	; 0x3f
 80016ae:	dc33      	bgt.n	8001718 <SSD1306_Putc+0x90>
 80016b0:	f1a0 0320 	sub.w	r3, r0, #32
 80016b4:	2700      	movs	r7, #0
 80016b6:	9302      	str	r3, [sp, #8]
 80016b8:	7862      	ldrb	r2, [r4, #1]
 80016ba:	4297      	cmp	r7, r2
 80016bc:	d307      	bcc.n	80016ce <SSD1306_Putc+0x46>
 80016be:	7822      	ldrb	r2, [r4, #0]
 80016c0:	4416      	add	r6, r2
 80016c2:	f8ab 6000 	strh.w	r6, [fp]
 80016c6:	4628      	mov	r0, r5
 80016c8:	b005      	add	sp, #20
 80016ca:	e8bd 8ff0 	ldmia.w	sp!, {r4, r5, r6, r7, r8, r9, sl, fp, pc}
 80016ce:	9b02      	ldr	r3, [sp, #8]
 80016d0:	6861      	ldr	r1, [r4, #4]
 80016d2:	fb02 7203 	mla	r2, r2, r3, r7
 80016d6:	f04f 0800 	mov.w	r8, #0
 80016da:	f831 3012 	ldrh.w	r3, [r1, r2, lsl #1]
 80016de:	9301      	str	r3, [sp, #4]
 80016e0:	eb0a 0107 	add.w	r1, sl, r7
 80016e4:	b289      	uxth	r1, r1
 80016e6:	7822      	ldrb	r2, [r4, #0]
 80016e8:	4590      	cmp	r8, r2
 80016ea:	d301      	bcc.n	80016f0 <SSD1306_Putc+0x68>
 80016ec:	3701      	adds	r7, #1
 80016ee:	e7e3      	b.n	80016b8 <SSD1306_Putc+0x30>
 80016f0:	9b01      	ldr	r3, [sp, #4]
 80016f2:	9103      	str	r1, [sp, #12]
 80016f4:	fa03 f208 	lsl.w	r2, r3, r8
 80016f8:	0413      	lsls	r3, r2, #16
 80016fa:	eb06 0008 	add.w	r0, r6, r8
 80016fe:	bf58      	it	pl
 8001700:	fab9 f289 	clzpl	r2, r9
 8001704:	b280      	uxth	r0, r0
 8001706:	bf4c      	ite	mi
 8001708:	464a      	movmi	r2, r9
 800170a:	0952      	lsrpl	r2, r2, #5
 800170c:	f7ff ff92 	bl	8001634 <SSD1306_DrawPixel>
 8001710:	f108 0801 	add.w	r8, r8, #1
 8001714:	9903      	ldr	r1, [sp, #12]
 8001716:	e7e6      	b.n	80016e6 <SSD1306_Putc+0x5e>
 8001718:	2500      	movs	r5, #0
 800171a:	e7d4      	b.n	80016c6 <SSD1306_Putc+0x3e>
 800171c:	20000320 	.word	0x20000320

08001720 <SSD1306_Puts>:
 8001720:	b570      	push	{r4, r5, r6, lr}
 8001722:	460d      	mov	r5, r1
 8001724:	4616      	mov	r6, r2
 8001726:	1e44      	subs	r4, r0, #1
 8001728:	f814 3f01 	ldrb.w	r3, [r4, #1]!
 800172c:	b13b      	cbz	r3, 800173e <SSD1306_Puts+0x1e>
 800172e:	4618      	mov	r0, r3
 8001730:	4632      	mov	r2, r6
 8001732:	4629      	mov	r1, r5
 8001734:	f7ff ffa8 	bl	8001688 <SSD1306_Putc>
 8001738:	7823      	ldrb	r3, [r4, #0]
 800173a:	4298      	cmp	r0, r3
 800173c:	d0f4      	beq.n	8001728 <SSD1306_Puts+0x8>
 800173e:	4618      	mov	r0, r3
 8001740:	bd70      	pop	{r4, r5, r6, pc}
	...

08001744 <SSD1306_I2C_WriteMulti>:
 8001744:	b530      	push	{r4, r5, lr}
 8001746:	b0c3      	sub	sp, #268	; 0x10c
 8001748:	2400      	movs	r4, #0
 800174a:	f88d 1008 	strb.w	r1, [sp, #8]
 800174e:	b2e1      	uxtb	r1, r4
 8001750:	4299      	cmp	r1, r3
 8001752:	f104 0501 	add.w	r5, r4, #1
 8001756:	d30a      	bcc.n	800176e <SSD1306_I2C_WriteMulti+0x2a>
 8001758:	220a      	movs	r2, #10
 800175a:	3301      	adds	r3, #1
 800175c:	9200      	str	r2, [sp, #0]
 800175e:	4601      	mov	r1, r0
 8001760:	b29b      	uxth	r3, r3
 8001762:	aa02      	add	r2, sp, #8
 8001764:	4805      	ldr	r0, [pc, #20]	; (800177c <SSD1306_I2C_WriteMulti+0x38>)
 8001766:	f001 fe89 	bl	800347c <HAL_I2C_Master_Transmit>
 800176a:	b043      	add	sp, #268	; 0x10c
 800176c:	bd30      	pop	{r4, r5, pc}
 800176e:	ac02      	add	r4, sp, #8
 8001770:	440c      	add	r4, r1
 8001772:	5c51      	ldrb	r1, [r2, r1]
 8001774:	7061      	strb	r1, [r4, #1]
 8001776:	462c      	mov	r4, r5
 8001778:	e7e9      	b.n	800174e <SSD1306_I2C_WriteMulti+0xa>
 800177a:	bf00      	nop
 800177c:	2000021c 	.word	0x2000021c

08001780 <SSD1306_I2C_Write>:
 8001780:	b51f      	push	{r0, r1, r2, r3, r4, lr}
 8001782:	230a      	movs	r3, #10
 8001784:	f88d 100c 	strb.w	r1, [sp, #12]
 8001788:	f88d 200d 	strb.w	r2, [sp, #13]
 800178c:	9300      	str	r3, [sp, #0]
 800178e:	4601      	mov	r1, r0
 8001790:	2302      	movs	r3, #2
 8001792:	aa03      	add	r2, sp, #12
 8001794:	4802      	ldr	r0, [pc, #8]	; (80017a0 <SSD1306_I2C_Write+0x20>)
 8001796:	f001 fe71 	bl	800347c <HAL_I2C_Master_Transmit>
 800179a:	b005      	add	sp, #20
 800179c:	f85d fb04 	ldr.w	pc, [sp], #4
 80017a0:	2000021c 	.word	0x2000021c

080017a4 <SSD1306_UpdateScreen>:
 80017a4:	b538      	push	{r3, r4, r5, lr}
 80017a6:	4d0f      	ldr	r5, [pc, #60]	; (80017e4 <SSD1306_UpdateScreen+0x40>)
 80017a8:	24b0      	movs	r4, #176	; 0xb0
 80017aa:	4622      	mov	r2, r4
 80017ac:	2100      	movs	r1, #0
 80017ae:	2078      	movs	r0, #120	; 0x78
 80017b0:	f7ff ffe6 	bl	8001780 <SSD1306_I2C_Write>
 80017b4:	2200      	movs	r2, #0
 80017b6:	4611      	mov	r1, r2
 80017b8:	2078      	movs	r0, #120	; 0x78
 80017ba:	f7ff ffe1 	bl	8001780 <SSD1306_I2C_Write>
 80017be:	3401      	adds	r4, #1
 80017c0:	2210      	movs	r2, #16
 80017c2:	2100      	movs	r1, #0
 80017c4:	2078      	movs	r0, #120	; 0x78
 80017c6:	f7ff ffdb 	bl	8001780 <SSD1306_I2C_Write>
 80017ca:	b2e4      	uxtb	r4, r4
 80017cc:	462a      	mov	r2, r5
 80017ce:	2380      	movs	r3, #128	; 0x80
 80017d0:	2140      	movs	r1, #64	; 0x40
 80017d2:	2078      	movs	r0, #120	; 0x78
 80017d4:	f7ff ffb6 	bl	8001744 <SSD1306_I2C_WriteMulti>
 80017d8:	2cb8      	cmp	r4, #184	; 0xb8
 80017da:	f105 0580 	add.w	r5, r5, #128	; 0x80
 80017de:	d1e4      	bne.n	80017aa <SSD1306_UpdateScreen+0x6>
 80017e0:	bd38      	pop	{r3, r4, r5, pc}
 80017e2:	bf00      	nop
 80017e4:	20000326 	.word	0x20000326

080017e8 <SSD1306_Clear>:
 80017e8:	b508      	push	{r3, lr}
 80017ea:	2000      	movs	r0, #0
 80017ec:	f7ff ff16 	bl	800161c <SSD1306_Fill>
 80017f0:	e8bd 4008 	ldmia.w	sp!, {r3, lr}
 80017f4:	f7ff bfd6 	b.w	80017a4 <SSD1306_UpdateScreen>

080017f8 <SSD1306_Init>:
 80017f8:	b510      	push	{r4, lr}
 80017fa:	4854      	ldr	r0, [pc, #336]	; (800194c <SSD1306_Init+0x154>)
 80017fc:	f644 6320 	movw	r3, #20000	; 0x4e20
 8001800:	2201      	movs	r2, #1
 8001802:	2178      	movs	r1, #120	; 0x78
 8001804:	f002 f8aa 	bl	800395c <HAL_I2C_IsDeviceReady>
 8001808:	4604      	mov	r4, r0
 800180a:	2800      	cmp	r0, #0
 800180c:	f040 809c 	bne.w	8001948 <SSD1306_Init+0x150>
 8001810:	4601      	mov	r1, r0
 8001812:	22ae      	movs	r2, #174	; 0xae
 8001814:	2078      	movs	r0, #120	; 0x78
 8001816:	f7ff ffb3 	bl	8001780 <SSD1306_I2C_Write>
 800181a:	2220      	movs	r2, #32
 800181c:	4621      	mov	r1, r4
 800181e:	2078      	movs	r0, #120	; 0x78
 8001820:	f7ff ffae 	bl	8001780 <SSD1306_I2C_Write>
 8001824:	2210      	movs	r2, #16
 8001826:	4621      	mov	r1, r4
 8001828:	2078      	movs	r0, #120	; 0x78
 800182a:	f7ff ffa9 	bl	8001780 <SSD1306_I2C_Write>
 800182e:	22b0      	movs	r2, #176	; 0xb0
 8001830:	4621      	mov	r1, r4
 8001832:	2078      	movs	r0, #120	; 0x78
 8001834:	f7ff ffa4 	bl	8001780 <SSD1306_I2C_Write>
 8001838:	22c8      	movs	r2, #200	; 0xc8
 800183a:	4621      	mov	r1, r4
 800183c:	2078      	movs	r0, #120	; 0x78
 800183e:	f7ff ff9f 	bl	8001780 <SSD1306_I2C_Write>
 8001842:	4622      	mov	r2, r4
 8001844:	4621      	mov	r1, r4
 8001846:	2078      	movs	r0, #120	; 0x78
 8001848:	f7ff ff9a 	bl	8001780 <SSD1306_I2C_Write>
 800184c:	2210      	movs	r2, #16
 800184e:	4621      	mov	r1, r4
 8001850:	2078      	movs	r0, #120	; 0x78
 8001852:	f7ff ff95 	bl	8001780 <SSD1306_I2C_Write>
 8001856:	2240      	movs	r2, #64	; 0x40
 8001858:	4621      	mov	r1, r4
 800185a:	2078      	movs	r0, #120	; 0x78
 800185c:	f7ff ff90 	bl	8001780 <SSD1306_I2C_Write>
 8001860:	2281      	movs	r2, #129	; 0x81
 8001862:	4621      	mov	r1, r4
 8001864:	2078      	movs	r0, #120	; 0x78
 8001866:	f7ff ff8b 	bl	8001780 <SSD1306_I2C_Write>
 800186a:	22ff      	movs	r2, #255	; 0xff
 800186c:	4621      	mov	r1, r4
 800186e:	2078      	movs	r0, #120	; 0x78
 8001870:	f7ff ff86 	bl	8001780 <SSD1306_I2C_Write>
 8001874:	22a1      	movs	r2, #161	; 0xa1
 8001876:	4621      	mov	r1, r4
 8001878:	2078      	movs	r0, #120	; 0x78
 800187a:	f7ff ff81 	bl	8001780 <SSD1306_I2C_Write>
 800187e:	22a6      	movs	r2, #166	; 0xa6
 8001880:	4621      	mov	r1, r4
 8001882:	2078      	movs	r0, #120	; 0x78
 8001884:	f7ff ff7c 	bl	8001780 <SSD1306_I2C_Write>
 8001888:	22a8      	movs	r2, #168	; 0xa8
 800188a:	4621      	mov	r1, r4
 800188c:	2078      	movs	r0, #120	; 0x78
 800188e:	f7ff ff77 	bl	8001780 <SSD1306_I2C_Write>
 8001892:	223f      	movs	r2, #63	; 0x3f
 8001894:	4621      	mov	r1, r4
 8001896:	2078      	movs	r0, #120	; 0x78
 8001898:	f7ff ff72 	bl	8001780 <SSD1306_I2C_Write>
 800189c:	22a4      	movs	r2, #164	; 0xa4
 800189e:	4621      	mov	r1, r4
 80018a0:	2078      	movs	r0, #120	; 0x78
 80018a2:	f7ff ff6d 	bl	8001780 <SSD1306_I2C_Write>
 80018a6:	22d3      	movs	r2, #211	; 0xd3
 80018a8:	4621      	mov	r1, r4
 80018aa:	2078      	movs	r0, #120	; 0x78
 80018ac:	f7ff ff68 	bl	8001780 <SSD1306_I2C_Write>
 80018b0:	4622      	mov	r2, r4
 80018b2:	4621      	mov	r1, r4
 80018b4:	2078      	movs	r0, #120	; 0x78
 80018b6:	f7ff ff63 	bl	8001780 <SSD1306_I2C_Write>
 80018ba:	22d5      	movs	r2, #213	; 0xd5
 80018bc:	4621      	mov	r1, r4
 80018be:	2078      	movs	r0, #120	; 0x78
 80018c0:	f7ff ff5e 	bl	8001780 <SSD1306_I2C_Write>
 80018c4:	22f0      	movs	r2, #240	; 0xf0
 80018c6:	4621      	mov	r1, r4
 80018c8:	2078      	movs	r0, #120	; 0x78
 80018ca:	f7ff ff59 	bl	8001780 <SSD1306_I2C_Write>
 80018ce:	22d9      	movs	r2, #217	; 0xd9
 80018d0:	4621      	mov	r1, r4
 80018d2:	2078      	movs	r0, #120	; 0x78
 80018d4:	f7ff ff54 	bl	8001780 <SSD1306_I2C_Write>
 80018d8:	2222      	movs	r2, #34	; 0x22
 80018da:	4621      	mov	r1, r4
 80018dc:	2078      	movs	r0, #120	; 0x78
 80018de:	f7ff ff4f 	bl	8001780 <SSD1306_I2C_Write>
 80018e2:	22da      	movs	r2, #218	; 0xda
 80018e4:	4621      	mov	r1, r4
 80018e6:	2078      	movs	r0, #120	; 0x78
 80018e8:	f7ff ff4a 	bl	8001780 <SSD1306_I2C_Write>
 80018ec:	2212      	movs	r2, #18
 80018ee:	4621      	mov	r1, r4
 80018f0:	2078      	movs	r0, #120	; 0x78
 80018f2:	f7ff ff45 	bl	8001780 <SSD1306_I2C_Write>
 80018f6:	22db      	movs	r2, #219	; 0xdb
 80018f8:	4621      	mov	r1, r4
 80018fa:	2078      	movs	r0, #120	; 0x78
 80018fc:	f7ff ff40 	bl	8001780 <SSD1306_I2C_Write>
 8001900:	2220      	movs	r2, #32
 8001902:	4621      	mov	r1, r4
 8001904:	2078      	movs	r0, #120	; 0x78
 8001906:	f7ff ff3b 	bl	8001780 <SSD1306_I2C_Write>
 800190a:	228d      	movs	r2, #141	; 0x8d
 800190c:	4621      	mov	r1, r4
 800190e:	2078      	movs	r0, #120	; 0x78
 8001910:	f7ff ff36 	bl	8001780 <SSD1306_I2C_Write>
 8001914:	2214      	movs	r2, #20
 8001916:	4621      	mov	r1, r4
 8001918:	2078      	movs	r0, #120	; 0x78
 800191a:	f7ff ff31 	bl	8001780 <SSD1306_I2C_Write>
 800191e:	22af      	movs	r2, #175	; 0xaf
 8001920:	4621      	mov	r1, r4
 8001922:	2078      	movs	r0, #120	; 0x78
 8001924:	f7ff ff2c 	bl	8001780 <SSD1306_I2C_Write>
 8001928:	222e      	movs	r2, #46	; 0x2e
 800192a:	4621      	mov	r1, r4
 800192c:	2078      	movs	r0, #120	; 0x78
 800192e:	f7ff ff27 	bl	8001780 <SSD1306_I2C_Write>
 8001932:	4620      	mov	r0, r4
 8001934:	f7ff fe72 	bl	800161c <SSD1306_Fill>
 8001938:	f7ff ff34 	bl	80017a4 <SSD1306_UpdateScreen>
 800193c:	4b04      	ldr	r3, [pc, #16]	; (8001950 <SSD1306_Init+0x158>)
 800193e:	2001      	movs	r0, #1
 8001940:	801c      	strh	r4, [r3, #0]
 8001942:	805c      	strh	r4, [r3, #2]
 8001944:	7158      	strb	r0, [r3, #5]
 8001946:	bd10      	pop	{r4, pc}
 8001948:	2000      	movs	r0, #0
 800194a:	e7fc      	b.n	8001946 <SSD1306_Init+0x14e>
 800194c:	2000021c 	.word	0x2000021c
 8001950:	20000320 	.word	0x20000320

08001954 <HAL_MspInit>:
 8001954:	b082      	sub	sp, #8
 8001956:	4b0d      	ldr	r3, [pc, #52]	; (800198c <HAL_MspInit+0x38>)
 8001958:	2100      	movs	r1, #0
 800195a:	9100      	str	r1, [sp, #0]
 800195c:	6c5a      	ldr	r2, [r3, #68]	; 0x44
 800195e:	f442 4280 	orr.w	r2, r2, #16384	; 0x4000
 8001962:	645a      	str	r2, [r3, #68]	; 0x44
 8001964:	6c5a      	ldr	r2, [r3, #68]	; 0x44
 8001966:	f402 4280 	and.w	r2, r2, #16384	; 0x4000
 800196a:	9200      	str	r2, [sp, #0]
 800196c:	9a00      	ldr	r2, [sp, #0]
 800196e:	9101      	str	r1, [sp, #4]
 8001970:	6c1a      	ldr	r2, [r3, #64]	; 0x40
 8001972:	f042 5280 	orr.w	r2, r2, #268435456	; 0x10000000
 8001976:	641a      	str	r2, [r3, #64]	; 0x40
 8001978:	6c1b      	ldr	r3, [r3, #64]	; 0x40
 800197a:	f003 5380 	and.w	r3, r3, #268435456	; 0x10000000
 800197e:	9301      	str	r3, [sp, #4]
 8001980:	9b01      	ldr	r3, [sp, #4]
 8001982:	2007      	movs	r0, #7
 8001984:	b002      	add	sp, #8
 8001986:	f000 babd 	b.w	8001f04 <HAL_NVIC_SetPriorityGrouping>
 800198a:	bf00      	nop
 800198c:	40023800 	.word	0x40023800

08001990 <NMI_Handler>:
 8001990:	e7fe      	b.n	8001990 <NMI_Handler>

08001992 <HardFault_Handler>:
 8001992:	e7fe      	b.n	8001992 <HardFault_Handler>

08001994 <MemManage_Handler>:
 8001994:	e7fe      	b.n	8001994 <MemManage_Handler>

08001996 <BusFault_Handler>:
 8001996:	e7fe      	b.n	8001996 <BusFault_Handler>

08001998 <UsageFault_Handler>:
 8001998:	e7fe      	b.n	8001998 <UsageFault_Handler>

0800199a <SVC_Handler>:
 800199a:	4770      	bx	lr

0800199c <DebugMon_Handler>:
 800199c:	4770      	bx	lr

0800199e <PendSV_Handler>:
 800199e:	4770      	bx	lr

080019a0 <SysTick_Handler>:
 80019a0:	f000 ba8a 	b.w	8001eb8 <HAL_IncTick>

080019a4 <EXTI0_IRQHandler>:
 80019a4:	2001      	movs	r0, #1
 80019a6:	f000 be65 	b.w	8002674 <HAL_GPIO_EXTI_IRQHandler>
	...

080019ac <DMA1_Stream5_IRQHandler>:
 80019ac:	4801      	ldr	r0, [pc, #4]	; (80019b4 <DMA1_Stream5_IRQHandler+0x8>)
 80019ae:	f000 bc59 	b.w	8002264 <HAL_DMA_IRQHandler>
 80019b2:	bf00      	nop
 80019b4:	20000270 	.word	0x20000270

080019b8 <EXTI9_5_IRQHandler>:
 80019b8:	f44f 7000 	mov.w	r0, #512	; 0x200
 80019bc:	f000 be5a 	b.w	8002674 <HAL_GPIO_EXTI_IRQHandler>

080019c0 <USART1_IRQHandler>:
 80019c0:	4801      	ldr	r0, [pc, #4]	; (80019c8 <USART1_IRQHandler+0x8>)
 80019c2:	f003 b989 	b.w	8004cd8 <HAL_UART_IRQHandler>
 80019c6:	bf00      	nop
 80019c8:	200007ec 	.word	0x200007ec

080019cc <EXTI15_10_IRQHandler>:
 80019cc:	b508      	push	{r3, lr}
 80019ce:	f44f 6000 	mov.w	r0, #2048	; 0x800
 80019d2:	f000 fe4f 	bl	8002674 <HAL_GPIO_EXTI_IRQHandler>
 80019d6:	f44f 5000 	mov.w	r0, #8192	; 0x2000
 80019da:	f000 fe4b 	bl	8002674 <HAL_GPIO_EXTI_IRQHandler>
 80019de:	e8bd 4008 	ldmia.w	sp!, {r3, lr}
 80019e2:	f44f 4000 	mov.w	r0, #32768	; 0x8000
 80019e6:	f000 be45 	b.w	8002674 <HAL_GPIO_EXTI_IRQHandler>
	...

080019ec <DMA2_Stream2_IRQHandler>:
 80019ec:	4801      	ldr	r0, [pc, #4]	; (80019f4 <DMA2_Stream2_IRQHandler+0x8>)
 80019ee:	f000 bc39 	b.w	8002264 <HAL_DMA_IRQHandler>
 80019f2:	bf00      	nop
 80019f4:	2000072c 	.word	0x2000072c

080019f8 <OTG_FS_IRQHandler>:
 80019f8:	4801      	ldr	r0, [pc, #4]	; (8001a00 <OTG_FS_IRQHandler+0x8>)
 80019fa:	f000 bf3f 	b.w	800287c <HAL_HCD_IRQHandler>
 80019fe:	bf00      	nop
 8001a00:	20002ad8 	.word	0x20002ad8

08001a04 <DMA2_Stream7_IRQHandler>:
 8001a04:	4801      	ldr	r0, [pc, #4]	; (8001a0c <DMA2_Stream7_IRQHandler+0x8>)
 8001a06:	f000 bc2d 	b.w	8002264 <HAL_DMA_IRQHandler>
 8001a0a:	bf00      	nop
 8001a0c:	2000078c 	.word	0x2000078c

08001a10 <_sbrk>:
 8001a10:	4a0b      	ldr	r2, [pc, #44]	; (8001a40 <_sbrk+0x30>)
 8001a12:	6811      	ldr	r1, [r2, #0]
 8001a14:	b510      	push	{r4, lr}
 8001a16:	4603      	mov	r3, r0
 8001a18:	b909      	cbnz	r1, 8001a1e <_sbrk+0xe>
 8001a1a:	490a      	ldr	r1, [pc, #40]	; (8001a44 <_sbrk+0x34>)
 8001a1c:	6011      	str	r1, [r2, #0]
 8001a1e:	6810      	ldr	r0, [r2, #0]
 8001a20:	4909      	ldr	r1, [pc, #36]	; (8001a48 <_sbrk+0x38>)
 8001a22:	4c0a      	ldr	r4, [pc, #40]	; (8001a4c <_sbrk+0x3c>)
 8001a24:	4403      	add	r3, r0
 8001a26:	1b09      	subs	r1, r1, r4
 8001a28:	428b      	cmp	r3, r1
 8001a2a:	d906      	bls.n	8001a3a <_sbrk+0x2a>
 8001a2c:	f007 fa88 	bl	8008f40 <__errno>
 8001a30:	230c      	movs	r3, #12
 8001a32:	6003      	str	r3, [r0, #0]
 8001a34:	f04f 30ff 	mov.w	r0, #4294967295
 8001a38:	bd10      	pop	{r4, pc}
 8001a3a:	6013      	str	r3, [r2, #0]
 8001a3c:	e7fc      	b.n	8001a38 <_sbrk+0x28>
 8001a3e:	bf00      	nop
 8001a40:	20000728 	.word	0x20000728
 8001a44:	20002f28 	.word	0x20002f28
 8001a48:	20020000 	.word	0x20020000
 8001a4c:	00000400 	.word	0x00000400

08001a50 <SystemInit>:
 8001a50:	4b05      	ldr	r3, [pc, #20]	; (8001a68 <SystemInit+0x18>)
 8001a52:	f8d3 2088 	ldr.w	r2, [r3, #136]	; 0x88
 8001a56:	f442 0270 	orr.w	r2, r2, #15728640	; 0xf00000
 8001a5a:	f8c3 2088 	str.w	r2, [r3, #136]	; 0x88
 8001a5e:	f04f 6200 	mov.w	r2, #134217728	; 0x8000000
 8001a62:	609a      	str	r2, [r3, #8]
 8001a64:	4770      	bx	lr
 8001a66:	bf00      	nop
 8001a68:	e000ed00 	.word	0xe000ed00

08001a6c <MX_USART1_UART_Init>:
 8001a6c:	480b      	ldr	r0, [pc, #44]	; (8001a9c <MX_USART1_UART_Init+0x30>)
 8001a6e:	4a0c      	ldr	r2, [pc, #48]	; (8001aa0 <MX_USART1_UART_Init+0x34>)
 8001a70:	b508      	push	{r3, lr}
 8001a72:	f44f 33e1 	mov.w	r3, #115200	; 0x1c200
 8001a76:	e9c0 2300 	strd	r2, r3, [r0]
 8001a7a:	2300      	movs	r3, #0
 8001a7c:	220c      	movs	r2, #12
 8001a7e:	e9c0 3302 	strd	r3, r3, [r0, #8]
 8001a82:	e9c0 2305 	strd	r2, r3, [r0, #20]
 8001a86:	6103      	str	r3, [r0, #16]
 8001a88:	61c3      	str	r3, [r0, #28]
 8001a8a:	f003 f891 	bl	8004bb0 <HAL_UART_Init>
 8001a8e:	b118      	cbz	r0, 8001a98 <MX_USART1_UART_Init+0x2c>
 8001a90:	e8bd 4008 	ldmia.w	sp!, {r3, lr}
 8001a94:	f7ff bdac 	b.w	80015f0 <Error_Handler>
 8001a98:	bd08      	pop	{r3, pc}
 8001a9a:	bf00      	nop
 8001a9c:	200007ec 	.word	0x200007ec
 8001aa0:	40011000 	.word	0x40011000

08001aa4 <HAL_UART_MspInit>:
 8001aa4:	e92d 41f0 	stmdb	sp!, {r4, r5, r6, r7, r8, lr}
 8001aa8:	4606      	mov	r6, r0
 8001aaa:	b088      	sub	sp, #32
 8001aac:	2214      	movs	r2, #20
 8001aae:	2100      	movs	r1, #0
 8001ab0:	a803      	add	r0, sp, #12
 8001ab2:	f007 fa03 	bl	8008ebc <memset>
 8001ab6:	6832      	ldr	r2, [r6, #0]
 8001ab8:	4b3c      	ldr	r3, [pc, #240]	; (8001bac <HAL_UART_MspInit+0x108>)
 8001aba:	429a      	cmp	r2, r3
 8001abc:	d172      	bne.n	8001ba4 <HAL_UART_MspInit+0x100>
 8001abe:	f503 3394 	add.w	r3, r3, #75776	; 0x12800
 8001ac2:	2500      	movs	r5, #0
 8001ac4:	9500      	str	r5, [sp, #0]
 8001ac6:	6c5a      	ldr	r2, [r3, #68]	; 0x44
 8001ac8:	4839      	ldr	r0, [pc, #228]	; (8001bb0 <HAL_UART_MspInit+0x10c>)
 8001aca:	f042 0210 	orr.w	r2, r2, #16
 8001ace:	645a      	str	r2, [r3, #68]	; 0x44
 8001ad0:	6c5a      	ldr	r2, [r3, #68]	; 0x44
 8001ad2:	f002 0210 	and.w	r2, r2, #16
 8001ad6:	9200      	str	r2, [sp, #0]
 8001ad8:	9a00      	ldr	r2, [sp, #0]
 8001ada:	9501      	str	r5, [sp, #4]
 8001adc:	6b1a      	ldr	r2, [r3, #48]	; 0x30
 8001ade:	f042 0201 	orr.w	r2, r2, #1
 8001ae2:	631a      	str	r2, [r3, #48]	; 0x30
 8001ae4:	6b1a      	ldr	r2, [r3, #48]	; 0x30
 8001ae6:	f002 0201 	and.w	r2, r2, #1
 8001aea:	9201      	str	r2, [sp, #4]
 8001aec:	9a01      	ldr	r2, [sp, #4]
 8001aee:	9502      	str	r5, [sp, #8]
 8001af0:	6b1a      	ldr	r2, [r3, #48]	; 0x30
 8001af2:	f042 0202 	orr.w	r2, r2, #2
 8001af6:	631a      	str	r2, [r3, #48]	; 0x30
 8001af8:	6b1b      	ldr	r3, [r3, #48]	; 0x30
 8001afa:	f003 0302 	and.w	r3, r3, #2
 8001afe:	9302      	str	r3, [sp, #8]
 8001b00:	2407      	movs	r4, #7
 8001b02:	9b02      	ldr	r3, [sp, #8]
 8001b04:	f04f 0802 	mov.w	r8, #2
 8001b08:	f44f 4300 	mov.w	r3, #32768	; 0x8000
 8001b0c:	2703      	movs	r7, #3
 8001b0e:	a903      	add	r1, sp, #12
 8001b10:	e9cd 3803 	strd	r3, r8, [sp, #12]
 8001b14:	e9cd 7406 	strd	r7, r4, [sp, #24]
 8001b18:	f000 fc62 	bl	80023e0 <HAL_GPIO_Init>
 8001b1c:	2308      	movs	r3, #8
 8001b1e:	4825      	ldr	r0, [pc, #148]	; (8001bb4 <HAL_UART_MspInit+0x110>)
 8001b20:	9407      	str	r4, [sp, #28]
 8001b22:	a903      	add	r1, sp, #12
 8001b24:	4c24      	ldr	r4, [pc, #144]	; (8001bb8 <HAL_UART_MspInit+0x114>)
 8001b26:	e9cd 3803 	strd	r3, r8, [sp, #12]
 8001b2a:	e9cd 5705 	strd	r5, r7, [sp, #20]
 8001b2e:	f000 fc57 	bl	80023e0 <HAL_GPIO_Init>
 8001b32:	4822      	ldr	r0, [pc, #136]	; (8001bbc <HAL_UART_MspInit+0x118>)
 8001b34:	f04f 6300 	mov.w	r3, #134217728	; 0x8000000
 8001b38:	e9c4 0300 	strd	r0, r3, [r4]
 8001b3c:	f44f 6380 	mov.w	r3, #1024	; 0x400
 8001b40:	4620      	mov	r0, r4
 8001b42:	e9c4 5502 	strd	r5, r5, [r4, #8]
 8001b46:	e9c4 3504 	strd	r3, r5, [r4, #16]
 8001b4a:	e9c4 5506 	strd	r5, r5, [r4, #24]
 8001b4e:	e9c4 5508 	strd	r5, r5, [r4, #32]
 8001b52:	f000 fa53 	bl	8001ffc <HAL_DMA_Init>
 8001b56:	b108      	cbz	r0, 8001b5c <HAL_UART_MspInit+0xb8>
 8001b58:	f7ff fd4a 	bl	80015f0 <Error_Handler>
 8001b5c:	4a18      	ldr	r2, [pc, #96]	; (8001bc0 <HAL_UART_MspInit+0x11c>)
 8001b5e:	63b4      	str	r4, [r6, #56]	; 0x38
 8001b60:	63a6      	str	r6, [r4, #56]	; 0x38
 8001b62:	4c18      	ldr	r4, [pc, #96]	; (8001bc4 <HAL_UART_MspInit+0x120>)
 8001b64:	f04f 6300 	mov.w	r3, #134217728	; 0x8000000
 8001b68:	e9c4 2300 	strd	r2, r3, [r4]
 8001b6c:	2140      	movs	r1, #64	; 0x40
 8001b6e:	2300      	movs	r3, #0
 8001b70:	f44f 6280 	mov.w	r2, #1024	; 0x400
 8001b74:	4620      	mov	r0, r4
 8001b76:	e9c4 1302 	strd	r1, r3, [r4, #8]
 8001b7a:	e9c4 2304 	strd	r2, r3, [r4, #16]
 8001b7e:	e9c4 3306 	strd	r3, r3, [r4, #24]
 8001b82:	e9c4 3308 	strd	r3, r3, [r4, #32]
 8001b86:	f000 fa39 	bl	8001ffc <HAL_DMA_Init>
 8001b8a:	b108      	cbz	r0, 8001b90 <HAL_UART_MspInit+0xec>
 8001b8c:	f7ff fd30 	bl	80015f0 <Error_Handler>
 8001b90:	2200      	movs	r2, #0
 8001b92:	6374      	str	r4, [r6, #52]	; 0x34
 8001b94:	2025      	movs	r0, #37	; 0x25
 8001b96:	4611      	mov	r1, r2
 8001b98:	63a6      	str	r6, [r4, #56]	; 0x38
 8001b9a:	f000 f9c5 	bl	8001f28 <HAL_NVIC_SetPriority>
 8001b9e:	2025      	movs	r0, #37	; 0x25
 8001ba0:	f000 f9f4 	bl	8001f8c <HAL_NVIC_EnableIRQ>
 8001ba4:	b008      	add	sp, #32
 8001ba6:	e8bd 81f0 	ldmia.w	sp!, {r4, r5, r6, r7, r8, pc}
 8001baa:	bf00      	nop
 8001bac:	40011000 	.word	0x40011000
 8001bb0:	40020000 	.word	0x40020000
 8001bb4:	40020400 	.word	0x40020400
 8001bb8:	2000072c 	.word	0x2000072c
 8001bbc:	40026440 	.word	0x40026440
 8001bc0:	400264b8 	.word	0x400264b8
 8001bc4:	2000078c 	.word	0x2000078c

08001bc8 <PlayerInit>:
 8001bc8:	b508      	push	{r3, lr}
 8001bca:	4b05      	ldr	r3, [pc, #20]	; (8001be0 <PlayerInit+0x18>)
 8001bcc:	4602      	mov	r2, r0
 8001bce:	7819      	ldrb	r1, [r3, #0]
 8001bd0:	2003      	movs	r0, #3
 8001bd2:	f7fe fdcf 	bl	8000774 <AUDIO_OUT_Init>
 8001bd6:	3800      	subs	r0, #0
 8001bd8:	bf18      	it	ne
 8001bda:	2001      	movne	r0, #1
 8001bdc:	bd08      	pop	{r3, pc}
 8001bde:	bf00      	nop
 8001be0:	20000080 	.word	0x20000080

08001be4 <AUDIO_PLAYER_Start>:
 8001be4:	b537      	push	{r0, r1, r2, r4, r5, lr}
 8001be6:	4604      	mov	r4, r0
 8001be8:	4820      	ldr	r0, [pc, #128]	; (8001c6c <AUDIO_PLAYER_Start+0x88>)
 8001bea:	f006 fd3f 	bl	800866c <f_close>
 8001bee:	f7fe ff59 	bl	8000aa4 <AUDIO_GetWavObjectNumber>
 8001bf2:	42a0      	cmp	r0, r4
 8001bf4:	f04f 0201 	mov.w	r2, #1
 8001bf8:	d935      	bls.n	8001c66 <AUDIO_PLAYER_Start+0x82>
 8001bfa:	491d      	ldr	r1, [pc, #116]	; (8001c70 <AUDIO_PLAYER_Start+0x8c>)
 8001bfc:	481b      	ldr	r0, [pc, #108]	; (8001c6c <AUDIO_PLAYER_Start+0x88>)
 8001bfe:	4d1d      	ldr	r5, [pc, #116]	; (8001c74 <AUDIO_PLAYER_Start+0x90>)
 8001c00:	2329      	movs	r3, #41	; 0x29
 8001c02:	fb13 2304 	smlabb	r3, r3, r4, r2
 8001c06:	4c1c      	ldr	r4, [pc, #112]	; (8001c78 <AUDIO_PLAYER_Start+0x94>)
 8001c08:	4419      	add	r1, r3
 8001c0a:	f006 fb2b 	bl	8008264 <f_open>
 8001c0e:	222c      	movs	r2, #44	; 0x2c
 8001c10:	4621      	mov	r1, r4
 8001c12:	ab01      	add	r3, sp, #4
 8001c14:	4815      	ldr	r0, [pc, #84]	; (8001c6c <AUDIO_PLAYER_Start+0x88>)
 8001c16:	f006 fc27 	bl	8008468 <f_read>
 8001c1a:	69a0      	ldr	r0, [r4, #24]
 8001c1c:	f7ff ffd4 	bl	8001bc8 <PlayerInit>
 8001c20:	2300      	movs	r3, #0
 8001c22:	212c      	movs	r1, #44	; 0x2c
 8001c24:	4811      	ldr	r0, [pc, #68]	; (8001c6c <AUDIO_PLAYER_Start+0x88>)
 8001c26:	702b      	strb	r3, [r5, #0]
 8001c28:	f006 fd31 	bl	800868e <f_lseek>
 8001c2c:	480f      	ldr	r0, [pc, #60]	; (8001c6c <AUDIO_PLAYER_Start+0x88>)
 8001c2e:	ab01      	add	r3, sp, #4
 8001c30:	f44f 5280 	mov.w	r2, #4096	; 0x1000
 8001c34:	f5a5 5180 	sub.w	r1, r5, #4096	; 0x1000
 8001c38:	f006 fc16 	bl	8008468 <f_read>
 8001c3c:	4604      	mov	r4, r0
 8001c3e:	b118      	cbz	r0, 8001c48 <AUDIO_PLAYER_Start+0x64>
 8001c40:	2401      	movs	r4, #1
 8001c42:	4620      	mov	r0, r4
 8001c44:	b003      	add	sp, #12
 8001c46:	bd30      	pop	{r4, r5, pc}
 8001c48:	4b0c      	ldr	r3, [pc, #48]	; (8001c7c <AUDIO_PLAYER_Start+0x98>)
 8001c4a:	2203      	movs	r2, #3
 8001c4c:	701a      	strb	r2, [r3, #0]
 8001c4e:	9b01      	ldr	r3, [sp, #4]
 8001c50:	2b00      	cmp	r3, #0
 8001c52:	d0f5      	beq.n	8001c40 <AUDIO_PLAYER_Start+0x5c>
 8001c54:	f44f 5180 	mov.w	r1, #4096	; 0x1000
 8001c58:	f5a5 5080 	sub.w	r0, r5, #4096	; 0x1000
 8001c5c:	f7fe fc58 	bl	8000510 <AUDIO_OUT_Play>
 8001c60:	9b01      	ldr	r3, [sp, #4]
 8001c62:	606b      	str	r3, [r5, #4]
 8001c64:	e7ed      	b.n	8001c42 <AUDIO_PLAYER_Start+0x5e>
 8001c66:	4614      	mov	r4, r2
 8001c68:	e7eb      	b.n	8001c42 <AUDIO_PLAYER_Start+0x5e>
 8001c6a:	bf00      	nop
 8001c6c:	20001c18 	.word	0x20001c18
 8001c70:	2000183c 	.word	0x2000183c
 8001c74:	20001834 	.word	0x20001834
 8001c78:	20002048 	.word	0x20002048
 8001c7c:	20000830 	.word	0x20000830

08001c80 <AUDIO_PLAYER_Process>:
 8001c80:	b5f7      	push	{r0, r1, r2, r4, r5, r6, r7, lr}
 8001c82:	4c45      	ldr	r4, [pc, #276]	; (8001d98 <AUDIO_PLAYER_Process+0x118>)
 8001c84:	7823      	ldrb	r3, [r4, #0]
 8001c86:	3b03      	subs	r3, #3
 8001c88:	4607      	mov	r7, r0
 8001c8a:	460d      	mov	r5, r1
 8001c8c:	2b0c      	cmp	r3, #12
 8001c8e:	d84e      	bhi.n	8001d2e <AUDIO_PLAYER_Process+0xae>
 8001c90:	e8df f003 	tbb	[pc, r3]
 8001c94:	52374d07 	.word	0x52374d07
 8001c98:	64314d4d 	.word	0x64314d4d
 8001c9c:	7d776d69 	.word	0x7d776d69
 8001ca0:	7f          	.byte	0x7f
 8001ca1:	00          	.byte	0x00
 8001ca2:	4c3e      	ldr	r4, [pc, #248]	; (8001d9c <AUDIO_PLAYER_Process+0x11c>)
 8001ca4:	4b3e      	ldr	r3, [pc, #248]	; (8001da0 <AUDIO_PLAYER_Process+0x120>)
 8001ca6:	6862      	ldr	r2, [r4, #4]
 8001ca8:	685b      	ldr	r3, [r3, #4]
 8001caa:	429a      	cmp	r2, r3
 8001cac:	d305      	bcc.n	8001cba <AUDIO_PLAYER_Process+0x3a>
 8001cae:	2002      	movs	r0, #2
 8001cb0:	f7fe fc74 	bl	800059c <AUDIO_OUT_Stop>
 8001cb4:	4628      	mov	r0, r5
 8001cb6:	f7ff ff95 	bl	8001be4 <AUDIO_PLAYER_Start>
 8001cba:	7823      	ldrb	r3, [r4, #0]
 8001cbc:	2b01      	cmp	r3, #1
 8001cbe:	d10c      	bne.n	8001cda <AUDIO_PLAYER_Process+0x5a>
 8001cc0:	4938      	ldr	r1, [pc, #224]	; (8001da4 <AUDIO_PLAYER_Process+0x124>)
 8001cc2:	ab01      	add	r3, sp, #4
 8001cc4:	f44f 6200 	mov.w	r2, #2048	; 0x800
 8001cc8:	4837      	ldr	r0, [pc, #220]	; (8001da8 <AUDIO_PLAYER_Process+0x128>)
 8001cca:	f006 fbcd 	bl	8008468 <f_read>
 8001cce:	b158      	cbz	r0, 8001ce8 <AUDIO_PLAYER_Process+0x68>
 8001cd0:	2002      	movs	r0, #2
 8001cd2:	f7fe fc63 	bl	800059c <AUDIO_OUT_Stop>
 8001cd6:	2001      	movs	r0, #1
 8001cd8:	e00b      	b.n	8001cf2 <AUDIO_PLAYER_Process+0x72>
 8001cda:	2b02      	cmp	r3, #2
 8001cdc:	d127      	bne.n	8001d2e <AUDIO_PLAYER_Process+0xae>
 8001cde:	4933      	ldr	r1, [pc, #204]	; (8001dac <AUDIO_PLAYER_Process+0x12c>)
 8001ce0:	ab01      	add	r3, sp, #4
 8001ce2:	f44f 6200 	mov.w	r2, #2048	; 0x800
 8001ce6:	e7ef      	b.n	8001cc8 <AUDIO_PLAYER_Process+0x48>
 8001ce8:	6863      	ldr	r3, [r4, #4]
 8001cea:	9a01      	ldr	r2, [sp, #4]
 8001cec:	7020      	strb	r0, [r4, #0]
 8001cee:	4413      	add	r3, r2
 8001cf0:	6063      	str	r3, [r4, #4]
 8001cf2:	b003      	add	sp, #12
 8001cf4:	bdf0      	pop	{r4, r5, r6, r7, pc}
 8001cf6:	2002      	movs	r0, #2
 8001cf8:	f7fe fc50 	bl	800059c <AUDIO_OUT_Stop>
 8001cfc:	2300      	movs	r3, #0
 8001cfe:	7023      	strb	r3, [r4, #0]
 8001d00:	e7e9      	b.n	8001cd6 <AUDIO_PLAYER_Process+0x56>
 8001d02:	4e2b      	ldr	r6, [pc, #172]	; (8001db0 <AUDIO_PLAYER_Process+0x130>)
 8001d04:	8835      	ldrh	r5, [r6, #0]
 8001d06:	3501      	adds	r5, #1
 8001d08:	b22d      	sxth	r5, r5
 8001d0a:	8035      	strh	r5, [r6, #0]
 8001d0c:	f7fe feca 	bl	8000aa4 <AUDIO_GetWavObjectNumber>
 8001d10:	4285      	cmp	r5, r0
 8001d12:	db02      	blt.n	8001d1a <AUDIO_PLAYER_Process+0x9a>
 8001d14:	b16f      	cbz	r7, 8001d32 <AUDIO_PLAYER_Process+0xb2>
 8001d16:	2300      	movs	r3, #0
 8001d18:	8033      	strh	r3, [r6, #0]
 8001d1a:	2002      	movs	r0, #2
 8001d1c:	f7fe fc3e 	bl	800059c <AUDIO_OUT_Stop>
 8001d20:	7830      	ldrb	r0, [r6, #0]
 8001d22:	f7ff ff5f 	bl	8001be4 <AUDIO_PLAYER_Start>
 8001d26:	4b23      	ldr	r3, [pc, #140]	; (8001db4 <AUDIO_PLAYER_Process+0x134>)
 8001d28:	7818      	ldrb	r0, [r3, #0]
 8001d2a:	f7fe fc59 	bl	80005e0 <AUDIO_OUT_SetVolume>
 8001d2e:	2000      	movs	r0, #0
 8001d30:	e7df      	b.n	8001cf2 <AUDIO_PLAYER_Process+0x72>
 8001d32:	2309      	movs	r3, #9
 8001d34:	7023      	strb	r3, [r4, #0]
 8001d36:	e7f0      	b.n	8001d1a <AUDIO_PLAYER_Process+0x9a>
 8001d38:	4c1d      	ldr	r4, [pc, #116]	; (8001db0 <AUDIO_PLAYER_Process+0x130>)
 8001d3a:	8823      	ldrh	r3, [r4, #0]
 8001d3c:	3b01      	subs	r3, #1
 8001d3e:	b21b      	sxth	r3, r3
 8001d40:	2b00      	cmp	r3, #0
 8001d42:	8023      	strh	r3, [r4, #0]
 8001d44:	da03      	bge.n	8001d4e <AUDIO_PLAYER_Process+0xce>
 8001d46:	f7fe fead 	bl	8000aa4 <AUDIO_GetWavObjectNumber>
 8001d4a:	3801      	subs	r0, #1
 8001d4c:	8020      	strh	r0, [r4, #0]
 8001d4e:	2002      	movs	r0, #2
 8001d50:	f7fe fc24 	bl	800059c <AUDIO_OUT_Stop>
 8001d54:	7820      	ldrb	r0, [r4, #0]
 8001d56:	f7ff ff45 	bl	8001be4 <AUDIO_PLAYER_Start>
 8001d5a:	e7e8      	b.n	8001d2e <AUDIO_PLAYER_Process+0xae>
 8001d5c:	f7fe fbf6 	bl	800054c <AUDIO_OUT_Pause>
 8001d60:	2301      	movs	r3, #1
 8001d62:	7023      	strb	r3, [r4, #0]
 8001d64:	e7e3      	b.n	8001d2e <AUDIO_PLAYER_Process+0xae>
 8001d66:	f7fe fc05 	bl	8000574 <AUDIO_OUT_Resume>
 8001d6a:	2303      	movs	r3, #3
 8001d6c:	e7f9      	b.n	8001d62 <AUDIO_PLAYER_Process+0xe2>
 8001d6e:	4a11      	ldr	r2, [pc, #68]	; (8001db4 <AUDIO_PLAYER_Process+0x134>)
 8001d70:	6813      	ldr	r3, [r2, #0]
 8001d72:	2b5a      	cmp	r3, #90	; 0x5a
 8001d74:	d801      	bhi.n	8001d7a <AUDIO_PLAYER_Process+0xfa>
 8001d76:	330a      	adds	r3, #10
 8001d78:	6013      	str	r3, [r2, #0]
 8001d7a:	7810      	ldrb	r0, [r2, #0]
 8001d7c:	f7fe fc30 	bl	80005e0 <AUDIO_OUT_SetVolume>
 8001d80:	e7f3      	b.n	8001d6a <AUDIO_PLAYER_Process+0xea>
 8001d82:	4a0c      	ldr	r2, [pc, #48]	; (8001db4 <AUDIO_PLAYER_Process+0x134>)
 8001d84:	6813      	ldr	r3, [r2, #0]
 8001d86:	2b09      	cmp	r3, #9
 8001d88:	d9f7      	bls.n	8001d7a <AUDIO_PLAYER_Process+0xfa>
 8001d8a:	3b0a      	subs	r3, #10
 8001d8c:	e7f4      	b.n	8001d78 <AUDIO_PLAYER_Process+0xf8>
 8001d8e:	2000      	movs	r0, #0
 8001d90:	e7f4      	b.n	8001d7c <AUDIO_PLAYER_Process+0xfc>
 8001d92:	4b08      	ldr	r3, [pc, #32]	; (8001db4 <AUDIO_PLAYER_Process+0x134>)
 8001d94:	7818      	ldrb	r0, [r3, #0]
 8001d96:	e7f1      	b.n	8001d7c <AUDIO_PLAYER_Process+0xfc>
 8001d98:	20000830 	.word	0x20000830
 8001d9c:	20001834 	.word	0x20001834
 8001da0:	20002048 	.word	0x20002048
 8001da4:	20000834 	.word	0x20000834
 8001da8:	20001c18 	.word	0x20001c18
 8001dac:	20001034 	.word	0x20001034
 8001db0:	20001c16 	.word	0x20001c16
 8001db4:	20000080 	.word	0x20000080

08001db8 <AUDIO_OUT_TransferComplete_CallBack>:
 8001db8:	4b03      	ldr	r3, [pc, #12]	; (8001dc8 <AUDIO_OUT_TransferComplete_CallBack+0x10>)
 8001dba:	781b      	ldrb	r3, [r3, #0]
 8001dbc:	2b03      	cmp	r3, #3
 8001dbe:	bf02      	ittt	eq
 8001dc0:	4b02      	ldreq	r3, [pc, #8]	; (8001dcc <AUDIO_OUT_TransferComplete_CallBack+0x14>)
 8001dc2:	2202      	moveq	r2, #2
 8001dc4:	701a      	strbeq	r2, [r3, #0]
 8001dc6:	4770      	bx	lr
 8001dc8:	20000830 	.word	0x20000830
 8001dcc:	20001834 	.word	0x20001834

08001dd0 <AUDIO_OUT_HalfTransfer_CallBack>:
 8001dd0:	4b03      	ldr	r3, [pc, #12]	; (8001de0 <AUDIO_OUT_HalfTransfer_CallBack+0x10>)
 8001dd2:	781b      	ldrb	r3, [r3, #0]
 8001dd4:	2b03      	cmp	r3, #3
 8001dd6:	bf02      	ittt	eq
 8001dd8:	4b02      	ldreq	r3, [pc, #8]	; (8001de4 <AUDIO_OUT_HalfTransfer_CallBack+0x14>)
 8001dda:	2201      	moveq	r2, #1
 8001ddc:	701a      	strbeq	r2, [r3, #0]
 8001dde:	4770      	bx	lr
 8001de0:	20000830 	.word	0x20000830
 8001de4:	20001834 	.word	0x20001834

08001de8 <Reset_Handler>:
 8001de8:	f8df d034 	ldr.w	sp, [pc, #52]	; 8001e20 <LoopFillZerobss+0x14>
 8001dec:	2100      	movs	r1, #0
 8001dee:	e003      	b.n	8001df8 <LoopCopyDataInit>

08001df0 <CopyDataInit>:
 8001df0:	4b0c      	ldr	r3, [pc, #48]	; (8001e24 <LoopFillZerobss+0x18>)
 8001df2:	585b      	ldr	r3, [r3, r1]
 8001df4:	5043      	str	r3, [r0, r1]
 8001df6:	3104      	adds	r1, #4

08001df8 <LoopCopyDataInit>:
 8001df8:	480b      	ldr	r0, [pc, #44]	; (8001e28 <LoopFillZerobss+0x1c>)
 8001dfa:	4b0c      	ldr	r3, [pc, #48]	; (8001e2c <LoopFillZerobss+0x20>)
 8001dfc:	1842      	adds	r2, r0, r1
 8001dfe:	429a      	cmp	r2, r3
 8001e00:	d3f6      	bcc.n	8001df0 <CopyDataInit>
 8001e02:	4a0b      	ldr	r2, [pc, #44]	; (8001e30 <LoopFillZerobss+0x24>)
 8001e04:	e002      	b.n	8001e0c <LoopFillZerobss>

08001e06 <FillZerobss>:
 8001e06:	2300      	movs	r3, #0
 8001e08:	f842 3b04 	str.w	r3, [r2], #4

08001e0c <LoopFillZerobss>:
 8001e0c:	4b09      	ldr	r3, [pc, #36]	; (8001e34 <LoopFillZerobss+0x28>)
 8001e0e:	429a      	cmp	r2, r3
 8001e10:	d3f9      	bcc.n	8001e06 <FillZerobss>
 8001e12:	f7ff fe1d 	bl	8001a50 <SystemInit>
 8001e16:	f007 f899 	bl	8008f4c <__libc_init_array>
 8001e1a:	f7ff fb6b 	bl	80014f4 <main>
 8001e1e:	4770      	bx	lr
 8001e20:	20020000 	.word	0x20020000
 8001e24:	0800ab04 	.word	0x0800ab04
 8001e28:	20000000 	.word	0x20000000
 8001e2c:	200000fc 	.word	0x200000fc
 8001e30:	200000fc 	.word	0x200000fc
 8001e34:	20002f24 	.word	0x20002f24

08001e38 <ADC_IRQHandler>:
 8001e38:	e7fe      	b.n	8001e38 <ADC_IRQHandler>
	...

08001e3c <HAL_InitTick>:
 8001e3c:	b538      	push	{r3, r4, r5, lr}
 8001e3e:	4b0e      	ldr	r3, [pc, #56]	; (8001e78 <HAL_InitTick+0x3c>)
 8001e40:	781a      	ldrb	r2, [r3, #0]
 8001e42:	f44f 737a 	mov.w	r3, #1000	; 0x3e8
 8001e46:	fbb3 f3f2 	udiv	r3, r3, r2
 8001e4a:	4a0c      	ldr	r2, [pc, #48]	; (8001e7c <HAL_InitTick+0x40>)
 8001e4c:	4605      	mov	r5, r0
 8001e4e:	6810      	ldr	r0, [r2, #0]
 8001e50:	fbb0 f0f3 	udiv	r0, r0, r3
 8001e54:	f000 f8a8 	bl	8001fa8 <HAL_SYSTICK_Config>
 8001e58:	4604      	mov	r4, r0
 8001e5a:	b958      	cbnz	r0, 8001e74 <HAL_InitTick+0x38>
 8001e5c:	2d0f      	cmp	r5, #15
 8001e5e:	d809      	bhi.n	8001e74 <HAL_InitTick+0x38>
 8001e60:	4602      	mov	r2, r0
 8001e62:	4629      	mov	r1, r5
 8001e64:	f04f 30ff 	mov.w	r0, #4294967295
 8001e68:	f000 f85e 	bl	8001f28 <HAL_NVIC_SetPriority>
 8001e6c:	4b04      	ldr	r3, [pc, #16]	; (8001e80 <HAL_InitTick+0x44>)
 8001e6e:	4620      	mov	r0, r4
 8001e70:	601d      	str	r5, [r3, #0]
 8001e72:	bd38      	pop	{r3, r4, r5, pc}
 8001e74:	2001      	movs	r0, #1
 8001e76:	e7fc      	b.n	8001e72 <HAL_InitTick+0x36>
 8001e78:	20000084 	.word	0x20000084
 8001e7c:	2000007c 	.word	0x2000007c
 8001e80:	20000088 	.word	0x20000088

08001e84 <HAL_Init>:
 8001e84:	b508      	push	{r3, lr}
 8001e86:	4b0b      	ldr	r3, [pc, #44]	; (8001eb4 <HAL_Init+0x30>)
 8001e88:	681a      	ldr	r2, [r3, #0]
 8001e8a:	f442 7200 	orr.w	r2, r2, #512	; 0x200
 8001e8e:	601a      	str	r2, [r3, #0]
 8001e90:	681a      	ldr	r2, [r3, #0]
 8001e92:	f442 6280 	orr.w	r2, r2, #1024	; 0x400
 8001e96:	601a      	str	r2, [r3, #0]
 8001e98:	681a      	ldr	r2, [r3, #0]
 8001e9a:	f442 7280 	orr.w	r2, r2, #256	; 0x100
 8001e9e:	601a      	str	r2, [r3, #0]
 8001ea0:	2003      	movs	r0, #3
 8001ea2:	f000 f82f 	bl	8001f04 <HAL_NVIC_SetPriorityGrouping>
 8001ea6:	2000      	movs	r0, #0
 8001ea8:	f7ff ffc8 	bl	8001e3c <HAL_InitTick>
 8001eac:	f7ff fd52 	bl	8001954 <HAL_MspInit>
 8001eb0:	2000      	movs	r0, #0
 8001eb2:	bd08      	pop	{r3, pc}
 8001eb4:	40023c00 	.word	0x40023c00

08001eb8 <HAL_IncTick>:
 8001eb8:	4a03      	ldr	r2, [pc, #12]	; (8001ec8 <HAL_IncTick+0x10>)
 8001eba:	4b04      	ldr	r3, [pc, #16]	; (8001ecc <HAL_IncTick+0x14>)
 8001ebc:	6811      	ldr	r1, [r2, #0]
 8001ebe:	781b      	ldrb	r3, [r3, #0]
 8001ec0:	440b      	add	r3, r1
 8001ec2:	6013      	str	r3, [r2, #0]
 8001ec4:	4770      	bx	lr
 8001ec6:	bf00      	nop
 8001ec8:	20002074 	.word	0x20002074
 8001ecc:	20000084 	.word	0x20000084

08001ed0 <HAL_GetTick>:
 8001ed0:	4b01      	ldr	r3, [pc, #4]	; (8001ed8 <HAL_GetTick+0x8>)
 8001ed2:	6818      	ldr	r0, [r3, #0]
 8001ed4:	4770      	bx	lr
 8001ed6:	bf00      	nop
 8001ed8:	20002074 	.word	0x20002074

08001edc <HAL_Delay>:
 8001edc:	b538      	push	{r3, r4, r5, lr}
 8001ede:	4604      	mov	r4, r0
 8001ee0:	f7ff fff6 	bl	8001ed0 <HAL_GetTick>
 8001ee4:	1c63      	adds	r3, r4, #1
 8001ee6:	bf1c      	itt	ne
 8001ee8:	4b05      	ldrne	r3, [pc, #20]	; (8001f00 <HAL_Delay+0x24>)
 8001eea:	781b      	ldrbne	r3, [r3, #0]
 8001eec:	4605      	mov	r5, r0
 8001eee:	bf18      	it	ne
 8001ef0:	18e4      	addne	r4, r4, r3
 8001ef2:	f7ff ffed 	bl	8001ed0 <HAL_GetTick>
 8001ef6:	1b43      	subs	r3, r0, r5
 8001ef8:	42a3      	cmp	r3, r4
 8001efa:	d3fa      	bcc.n	8001ef2 <HAL_Delay+0x16>
 8001efc:	bd38      	pop	{r3, r4, r5, pc}
 8001efe:	bf00      	nop
 8001f00:	20000084 	.word	0x20000084

08001f04 <HAL_NVIC_SetPriorityGrouping>:
 8001f04:	4907      	ldr	r1, [pc, #28]	; (8001f24 <HAL_NVIC_SetPriorityGrouping+0x20>)
 8001f06:	68ca      	ldr	r2, [r1, #12]
 8001f08:	f422 62e0 	bic.w	r2, r2, #1792	; 0x700
 8001f0c:	0203      	lsls	r3, r0, #8
 8001f0e:	0412      	lsls	r2, r2, #16
 8001f10:	f403 63e0 	and.w	r3, r3, #1792	; 0x700
 8001f14:	0c12      	lsrs	r2, r2, #16
 8001f16:	4313      	orrs	r3, r2
 8001f18:	f043 63bf 	orr.w	r3, r3, #100139008	; 0x5f80000
 8001f1c:	f443 3300 	orr.w	r3, r3, #131072	; 0x20000
 8001f20:	60cb      	str	r3, [r1, #12]
 8001f22:	4770      	bx	lr
 8001f24:	e000ed00 	.word	0xe000ed00

08001f28 <HAL_NVIC_SetPriority>:
 8001f28:	4b16      	ldr	r3, [pc, #88]	; (8001f84 <HAL_NVIC_SetPriority+0x5c>)
 8001f2a:	b530      	push	{r4, r5, lr}
 8001f2c:	68dc      	ldr	r4, [r3, #12]
 8001f2e:	f3c4 2402 	ubfx	r4, r4, #8, #3
 8001f32:	f1c4 0307 	rsb	r3, r4, #7
 8001f36:	1d25      	adds	r5, r4, #4
 8001f38:	2b04      	cmp	r3, #4
 8001f3a:	bf28      	it	cs
 8001f3c:	2304      	movcs	r3, #4
 8001f3e:	2d06      	cmp	r5, #6
 8001f40:	f04f 35ff 	mov.w	r5, #4294967295
 8001f44:	bf8c      	ite	hi
 8001f46:	3c03      	subhi	r4, #3
 8001f48:	2400      	movls	r4, #0
 8001f4a:	fa05 f303 	lsl.w	r3, r5, r3
 8001f4e:	ea21 0303 	bic.w	r3, r1, r3
 8001f52:	40a5      	lsls	r5, r4
 8001f54:	ea22 0205 	bic.w	r2, r2, r5
 8001f58:	40a3      	lsls	r3, r4
 8001f5a:	2800      	cmp	r0, #0
 8001f5c:	ea43 0302 	orr.w	r3, r3, r2
 8001f60:	bfac      	ite	ge
 8001f62:	f100 4060 	addge.w	r0, r0, #3758096384	; 0xe0000000
 8001f66:	4a08      	ldrlt	r2, [pc, #32]	; (8001f88 <HAL_NVIC_SetPriority+0x60>)
 8001f68:	ea4f 1303 	mov.w	r3, r3, lsl #4
 8001f6c:	bfb8      	it	lt
 8001f6e:	f000 000f 	andlt.w	r0, r0, #15
 8001f72:	b2db      	uxtb	r3, r3
 8001f74:	bfaa      	itet	ge
 8001f76:	f500 4061 	addge.w	r0, r0, #57600	; 0xe100
 8001f7a:	5413      	strblt	r3, [r2, r0]
 8001f7c:	f880 3300 	strbge.w	r3, [r0, #768]	; 0x300
 8001f80:	bd30      	pop	{r4, r5, pc}
 8001f82:	bf00      	nop
 8001f84:	e000ed00 	.word	0xe000ed00
 8001f88:	e000ed14 	.word	0xe000ed14

08001f8c <HAL_NVIC_EnableIRQ>:
 8001f8c:	2800      	cmp	r0, #0
 8001f8e:	db07      	blt.n	8001fa0 <HAL_NVIC_EnableIRQ+0x14>
 8001f90:	0941      	lsrs	r1, r0, #5
 8001f92:	4a04      	ldr	r2, [pc, #16]	; (8001fa4 <HAL_NVIC_EnableIRQ+0x18>)
 8001f94:	f000 001f 	and.w	r0, r0, #31
 8001f98:	2301      	movs	r3, #1
 8001f9a:	4083      	lsls	r3, r0
 8001f9c:	f842 3021 	str.w	r3, [r2, r1, lsl #2]
 8001fa0:	4770      	bx	lr
 8001fa2:	bf00      	nop
 8001fa4:	e000e100 	.word	0xe000e100

08001fa8 <HAL_SYSTICK_Config>:
 8001fa8:	3801      	subs	r0, #1
 8001faa:	f1b0 7f80 	cmp.w	r0, #16777216	; 0x1000000
 8001fae:	d20b      	bcs.n	8001fc8 <HAL_SYSTICK_Config+0x20>
 8001fb0:	f04f 23e0 	mov.w	r3, #3758153728	; 0xe000e000
 8001fb4:	4a05      	ldr	r2, [pc, #20]	; (8001fcc <HAL_SYSTICK_Config+0x24>)
 8001fb6:	6158      	str	r0, [r3, #20]
 8001fb8:	21f0      	movs	r1, #240	; 0xf0
 8001fba:	f882 1023 	strb.w	r1, [r2, #35]	; 0x23
 8001fbe:	2000      	movs	r0, #0
 8001fc0:	2207      	movs	r2, #7
 8001fc2:	6198      	str	r0, [r3, #24]
 8001fc4:	611a      	str	r2, [r3, #16]
 8001fc6:	4770      	bx	lr
 8001fc8:	2001      	movs	r0, #1
 8001fca:	4770      	bx	lr
 8001fcc:	e000ed00 	.word	0xe000ed00

08001fd0 <DMA_CalcBaseAndBitshift>:
 8001fd0:	6803      	ldr	r3, [r0, #0]
 8001fd2:	b510      	push	{r4, lr}
 8001fd4:	b2da      	uxtb	r2, r3
 8001fd6:	3a10      	subs	r2, #16
 8001fd8:	4c07      	ldr	r4, [pc, #28]	; (8001ff8 <DMA_CalcBaseAndBitshift+0x28>)
 8001fda:	f423 737f 	bic.w	r3, r3, #1020	; 0x3fc
 8001fde:	f023 0303 	bic.w	r3, r3, #3
 8001fe2:	2a5f      	cmp	r2, #95	; 0x5f
 8001fe4:	bf88      	it	hi
 8001fe6:	3304      	addhi	r3, #4
 8001fe8:	2118      	movs	r1, #24
 8001fea:	fbb2 f1f1 	udiv	r1, r2, r1
 8001fee:	5c61      	ldrb	r1, [r4, r1]
 8001ff0:	65c1      	str	r1, [r0, #92]	; 0x5c
 8001ff2:	6583      	str	r3, [r0, #88]	; 0x58
 8001ff4:	4618      	mov	r0, r3
 8001ff6:	bd10      	pop	{r4, pc}
 8001ff8:	0800a684 	.word	0x0800a684

08001ffc <HAL_DMA_Init>:
 8001ffc:	b570      	push	{r4, r5, r6, lr}
 8001ffe:	4604      	mov	r4, r0
 8002000:	f7ff ff66 	bl	8001ed0 <HAL_GetTick>
 8002004:	4605      	mov	r5, r0
 8002006:	2c00      	cmp	r4, #0
 8002008:	d071      	beq.n	80020ee <HAL_DMA_Init+0xf2>
 800200a:	2302      	movs	r3, #2
 800200c:	f884 3035 	strb.w	r3, [r4, #53]	; 0x35
 8002010:	6822      	ldr	r2, [r4, #0]
 8002012:	2300      	movs	r3, #0
 8002014:	f884 3034 	strb.w	r3, [r4, #52]	; 0x34
 8002018:	6813      	ldr	r3, [r2, #0]
 800201a:	f023 0301 	bic.w	r3, r3, #1
 800201e:	6013      	str	r3, [r2, #0]
 8002020:	6822      	ldr	r2, [r4, #0]
 8002022:	6813      	ldr	r3, [r2, #0]
 8002024:	07d8      	lsls	r0, r3, #31
 8002026:	d42e      	bmi.n	8002086 <HAL_DMA_Init+0x8a>
 8002028:	6813      	ldr	r3, [r2, #0]
 800202a:	4832      	ldr	r0, [pc, #200]	; (80020f4 <HAL_DMA_Init+0xf8>)
 800202c:	69a1      	ldr	r1, [r4, #24]
 800202e:	4018      	ands	r0, r3
 8002030:	e9d4 3501 	ldrd	r3, r5, [r4, #4]
 8002034:	432b      	orrs	r3, r5
 8002036:	68e5      	ldr	r5, [r4, #12]
 8002038:	432b      	orrs	r3, r5
 800203a:	6925      	ldr	r5, [r4, #16]
 800203c:	432b      	orrs	r3, r5
 800203e:	6965      	ldr	r5, [r4, #20]
 8002040:	432b      	orrs	r3, r5
 8002042:	69e5      	ldr	r5, [r4, #28]
 8002044:	430b      	orrs	r3, r1
 8002046:	432b      	orrs	r3, r5
 8002048:	6a25      	ldr	r5, [r4, #32]
 800204a:	432b      	orrs	r3, r5
 800204c:	4303      	orrs	r3, r0
 800204e:	6a60      	ldr	r0, [r4, #36]	; 0x24
 8002050:	2804      	cmp	r0, #4
 8002052:	bf02      	ittt	eq
 8002054:	e9d4 560b 	ldrdeq	r5, r6, [r4, #44]	; 0x2c
 8002058:	4335      	orreq	r5, r6
 800205a:	432b      	orreq	r3, r5
 800205c:	6013      	str	r3, [r2, #0]
 800205e:	6953      	ldr	r3, [r2, #20]
 8002060:	2804      	cmp	r0, #4
 8002062:	f023 0307 	bic.w	r3, r3, #7
 8002066:	ea43 0300 	orr.w	r3, r3, r0
 800206a:	d132      	bne.n	80020d2 <HAL_DMA_Init+0xd6>
 800206c:	6aa0      	ldr	r0, [r4, #40]	; 0x28
 800206e:	6ae5      	ldr	r5, [r4, #44]	; 0x2c
 8002070:	4303      	orrs	r3, r0
 8002072:	b375      	cbz	r5, 80020d2 <HAL_DMA_Init+0xd6>
 8002074:	b991      	cbnz	r1, 800209c <HAL_DMA_Init+0xa0>
 8002076:	2801      	cmp	r0, #1
 8002078:	d020      	beq.n	80020bc <HAL_DMA_Init+0xc0>
 800207a:	f030 0102 	bics.w	r1, r0, #2
 800207e:	d128      	bne.n	80020d2 <HAL_DMA_Init+0xd6>
 8002080:	01e9      	lsls	r1, r5, #7
 8002082:	d526      	bpl.n	80020d2 <HAL_DMA_Init+0xd6>
 8002084:	e01d      	b.n	80020c2 <HAL_DMA_Init+0xc6>
 8002086:	f7ff ff23 	bl	8001ed0 <HAL_GetTick>
 800208a:	1b40      	subs	r0, r0, r5
 800208c:	2805      	cmp	r0, #5
 800208e:	d9c7      	bls.n	8002020 <HAL_DMA_Init+0x24>
 8002090:	2320      	movs	r3, #32
 8002092:	6563      	str	r3, [r4, #84]	; 0x54
 8002094:	2003      	movs	r0, #3
 8002096:	f884 0035 	strb.w	r0, [r4, #53]	; 0x35
 800209a:	bd70      	pop	{r4, r5, r6, pc}
 800209c:	f5b1 5f00 	cmp.w	r1, #8192	; 0x2000
 80020a0:	d113      	bne.n	80020ca <HAL_DMA_Init+0xce>
 80020a2:	2803      	cmp	r0, #3
 80020a4:	d815      	bhi.n	80020d2 <HAL_DMA_Init+0xd6>
 80020a6:	a101      	add	r1, pc, #4	; (adr r1, 80020ac <HAL_DMA_Init+0xb0>)
 80020a8:	f851 f020 	ldr.w	pc, [r1, r0, lsl #2]
 80020ac:	080020c3 	.word	0x080020c3
 80020b0:	08002081 	.word	0x08002081
 80020b4:	080020c3 	.word	0x080020c3
 80020b8:	080020bd 	.word	0x080020bd
 80020bc:	f1b5 7fc0 	cmp.w	r5, #25165824	; 0x1800000
 80020c0:	d107      	bne.n	80020d2 <HAL_DMA_Init+0xd6>
 80020c2:	2340      	movs	r3, #64	; 0x40
 80020c4:	6563      	str	r3, [r4, #84]	; 0x54
 80020c6:	2001      	movs	r0, #1
 80020c8:	e7e5      	b.n	8002096 <HAL_DMA_Init+0x9a>
 80020ca:	2802      	cmp	r0, #2
 80020cc:	d9f9      	bls.n	80020c2 <HAL_DMA_Init+0xc6>
 80020ce:	2803      	cmp	r0, #3
 80020d0:	d0d6      	beq.n	8002080 <HAL_DMA_Init+0x84>
 80020d2:	6153      	str	r3, [r2, #20]
 80020d4:	4620      	mov	r0, r4
 80020d6:	f7ff ff7b 	bl	8001fd0 <DMA_CalcBaseAndBitshift>
 80020da:	6de2      	ldr	r2, [r4, #92]	; 0x5c
 80020dc:	233f      	movs	r3, #63	; 0x3f
 80020de:	4093      	lsls	r3, r2
 80020e0:	6083      	str	r3, [r0, #8]
 80020e2:	2000      	movs	r0, #0
 80020e4:	2301      	movs	r3, #1
 80020e6:	6560      	str	r0, [r4, #84]	; 0x54
 80020e8:	f884 3035 	strb.w	r3, [r4, #53]	; 0x35
 80020ec:	e7d5      	b.n	800209a <HAL_DMA_Init+0x9e>
 80020ee:	2001      	movs	r0, #1
 80020f0:	e7d3      	b.n	800209a <HAL_DMA_Init+0x9e>
 80020f2:	bf00      	nop
 80020f4:	f010803f 	.word	0xf010803f

080020f8 <HAL_DMA_DeInit>:
 80020f8:	b538      	push	{r3, r4, r5, lr}
 80020fa:	4605      	mov	r5, r0
 80020fc:	b320      	cbz	r0, 8002148 <HAL_DMA_DeInit+0x50>
 80020fe:	f890 3035 	ldrb.w	r3, [r0, #53]	; 0x35
 8002102:	2b02      	cmp	r3, #2
 8002104:	b2dc      	uxtb	r4, r3
 8002106:	d01d      	beq.n	8002144 <HAL_DMA_DeInit+0x4c>
 8002108:	6803      	ldr	r3, [r0, #0]
 800210a:	681a      	ldr	r2, [r3, #0]
 800210c:	f022 0201 	bic.w	r2, r2, #1
 8002110:	2400      	movs	r4, #0
 8002112:	601a      	str	r2, [r3, #0]
 8002114:	2221      	movs	r2, #33	; 0x21
 8002116:	601c      	str	r4, [r3, #0]
 8002118:	605c      	str	r4, [r3, #4]
 800211a:	609c      	str	r4, [r3, #8]
 800211c:	60dc      	str	r4, [r3, #12]
 800211e:	611c      	str	r4, [r3, #16]
 8002120:	615a      	str	r2, [r3, #20]
 8002122:	f7ff ff55 	bl	8001fd0 <DMA_CalcBaseAndBitshift>
 8002126:	6dea      	ldr	r2, [r5, #92]	; 0x5c
 8002128:	233f      	movs	r3, #63	; 0x3f
 800212a:	4093      	lsls	r3, r2
 800212c:	e9c5 440f 	strd	r4, r4, [r5, #60]	; 0x3c
 8002130:	e9c5 4411 	strd	r4, r4, [r5, #68]	; 0x44
 8002134:	e9c5 4413 	strd	r4, r4, [r5, #76]	; 0x4c
 8002138:	6083      	str	r3, [r0, #8]
 800213a:	656c      	str	r4, [r5, #84]	; 0x54
 800213c:	f885 4034 	strb.w	r4, [r5, #52]	; 0x34
 8002140:	f885 4035 	strb.w	r4, [r5, #53]	; 0x35
 8002144:	4620      	mov	r0, r4
 8002146:	bd38      	pop	{r3, r4, r5, pc}
 8002148:	2401      	movs	r4, #1
 800214a:	e7fb      	b.n	8002144 <HAL_DMA_DeInit+0x4c>

0800214c <HAL_DMA_Start_IT>:
 800214c:	b570      	push	{r4, r5, r6, lr}
 800214e:	f890 4034 	ldrb.w	r4, [r0, #52]	; 0x34
 8002152:	6d86      	ldr	r6, [r0, #88]	; 0x58
 8002154:	2c01      	cmp	r4, #1
 8002156:	d031      	beq.n	80021bc <HAL_DMA_Start_IT+0x70>
 8002158:	2401      	movs	r4, #1
 800215a:	f880 4034 	strb.w	r4, [r0, #52]	; 0x34
 800215e:	f890 4035 	ldrb.w	r4, [r0, #53]	; 0x35
 8002162:	2c01      	cmp	r4, #1
 8002164:	f04f 0500 	mov.w	r5, #0
 8002168:	f04f 0402 	mov.w	r4, #2
 800216c:	d124      	bne.n	80021b8 <HAL_DMA_Start_IT+0x6c>
 800216e:	f880 4035 	strb.w	r4, [r0, #53]	; 0x35
 8002172:	6804      	ldr	r4, [r0, #0]
 8002174:	6545      	str	r5, [r0, #84]	; 0x54
 8002176:	6825      	ldr	r5, [r4, #0]
 8002178:	f425 2580 	bic.w	r5, r5, #262144	; 0x40000
 800217c:	6025      	str	r5, [r4, #0]
 800217e:	6063      	str	r3, [r4, #4]
 8002180:	6883      	ldr	r3, [r0, #8]
 8002182:	2b40      	cmp	r3, #64	; 0x40
 8002184:	bf0e      	itee	eq
 8002186:	60a2      	streq	r2, [r4, #8]
 8002188:	60a1      	strne	r1, [r4, #8]
 800218a:	60e2      	strne	r2, [r4, #12]
 800218c:	6dc2      	ldr	r2, [r0, #92]	; 0x5c
 800218e:	bf08      	it	eq
 8002190:	60e1      	streq	r1, [r4, #12]
 8002192:	233f      	movs	r3, #63	; 0x3f
 8002194:	4093      	lsls	r3, r2
 8002196:	60b3      	str	r3, [r6, #8]
 8002198:	6823      	ldr	r3, [r4, #0]
 800219a:	f043 0316 	orr.w	r3, r3, #22
 800219e:	6023      	str	r3, [r4, #0]
 80021a0:	6c03      	ldr	r3, [r0, #64]	; 0x40
 80021a2:	b11b      	cbz	r3, 80021ac <HAL_DMA_Start_IT+0x60>
 80021a4:	6823      	ldr	r3, [r4, #0]
 80021a6:	f043 0308 	orr.w	r3, r3, #8
 80021aa:	6023      	str	r3, [r4, #0]
 80021ac:	6823      	ldr	r3, [r4, #0]
 80021ae:	f043 0301 	orr.w	r3, r3, #1
 80021b2:	6023      	str	r3, [r4, #0]
 80021b4:	2000      	movs	r0, #0
 80021b6:	bd70      	pop	{r4, r5, r6, pc}
 80021b8:	f880 5034 	strb.w	r5, [r0, #52]	; 0x34
 80021bc:	2002      	movs	r0, #2
 80021be:	e7fa      	b.n	80021b6 <HAL_DMA_Start_IT+0x6a>

080021c0 <HAL_DMA_Abort>:
 80021c0:	b570      	push	{r4, r5, r6, lr}
 80021c2:	4604      	mov	r4, r0
 80021c4:	6d86      	ldr	r6, [r0, #88]	; 0x58
 80021c6:	f7ff fe83 	bl	8001ed0 <HAL_GetTick>
 80021ca:	f894 3035 	ldrb.w	r3, [r4, #53]	; 0x35
 80021ce:	2b02      	cmp	r3, #2
 80021d0:	4605      	mov	r5, r0
 80021d2:	d006      	beq.n	80021e2 <HAL_DMA_Abort+0x22>
 80021d4:	2380      	movs	r3, #128	; 0x80
 80021d6:	6563      	str	r3, [r4, #84]	; 0x54
 80021d8:	2001      	movs	r0, #1
 80021da:	2300      	movs	r3, #0
 80021dc:	f884 3034 	strb.w	r3, [r4, #52]	; 0x34
 80021e0:	bd70      	pop	{r4, r5, r6, pc}
 80021e2:	6823      	ldr	r3, [r4, #0]
 80021e4:	681a      	ldr	r2, [r3, #0]
 80021e6:	f022 0216 	bic.w	r2, r2, #22
 80021ea:	601a      	str	r2, [r3, #0]
 80021ec:	695a      	ldr	r2, [r3, #20]
 80021ee:	f022 0280 	bic.w	r2, r2, #128	; 0x80
 80021f2:	615a      	str	r2, [r3, #20]
 80021f4:	6c22      	ldr	r2, [r4, #64]	; 0x40
 80021f6:	b90a      	cbnz	r2, 80021fc <HAL_DMA_Abort+0x3c>
 80021f8:	6ca2      	ldr	r2, [r4, #72]	; 0x48
 80021fa:	b11a      	cbz	r2, 8002204 <HAL_DMA_Abort+0x44>
 80021fc:	681a      	ldr	r2, [r3, #0]
 80021fe:	f022 0208 	bic.w	r2, r2, #8
 8002202:	601a      	str	r2, [r3, #0]
 8002204:	681a      	ldr	r2, [r3, #0]
 8002206:	f022 0201 	bic.w	r2, r2, #1
 800220a:	601a      	str	r2, [r3, #0]
 800220c:	6823      	ldr	r3, [r4, #0]
 800220e:	681b      	ldr	r3, [r3, #0]
 8002210:	f013 0301 	ands.w	r3, r3, #1
 8002214:	d108      	bne.n	8002228 <HAL_DMA_Abort+0x68>
 8002216:	6de1      	ldr	r1, [r4, #92]	; 0x5c
 8002218:	223f      	movs	r2, #63	; 0x3f
 800221a:	408a      	lsls	r2, r1
 800221c:	60b2      	str	r2, [r6, #8]
 800221e:	2201      	movs	r2, #1
 8002220:	f884 2035 	strb.w	r2, [r4, #53]	; 0x35
 8002224:	4618      	mov	r0, r3
 8002226:	e7d8      	b.n	80021da <HAL_DMA_Abort+0x1a>
 8002228:	f7ff fe52 	bl	8001ed0 <HAL_GetTick>
 800222c:	1b40      	subs	r0, r0, r5
 800222e:	2805      	cmp	r0, #5
 8002230:	d9ec      	bls.n	800220c <HAL_DMA_Abort+0x4c>
 8002232:	2320      	movs	r3, #32
 8002234:	2003      	movs	r0, #3
 8002236:	6563      	str	r3, [r4, #84]	; 0x54
 8002238:	f884 0035 	strb.w	r0, [r4, #53]	; 0x35
 800223c:	e7cd      	b.n	80021da <HAL_DMA_Abort+0x1a>

0800223e <HAL_DMA_Abort_IT>:
 800223e:	f890 3035 	ldrb.w	r3, [r0, #53]	; 0x35
 8002242:	2b02      	cmp	r3, #2
 8002244:	d003      	beq.n	800224e <HAL_DMA_Abort_IT+0x10>
 8002246:	2380      	movs	r3, #128	; 0x80
 8002248:	6543      	str	r3, [r0, #84]	; 0x54
 800224a:	2001      	movs	r0, #1
 800224c:	4770      	bx	lr
 800224e:	6802      	ldr	r2, [r0, #0]
 8002250:	2305      	movs	r3, #5
 8002252:	f880 3035 	strb.w	r3, [r0, #53]	; 0x35
 8002256:	6813      	ldr	r3, [r2, #0]
 8002258:	f023 0301 	bic.w	r3, r3, #1
 800225c:	6013      	str	r3, [r2, #0]
 800225e:	2000      	movs	r0, #0
 8002260:	4770      	bx	lr
	...

08002264 <HAL_DMA_IRQHandler>:
 8002264:	b5f7      	push	{r0, r1, r2, r4, r5, r6, r7, lr}
 8002266:	2300      	movs	r3, #0
 8002268:	9301      	str	r3, [sp, #4]
 800226a:	4b5c      	ldr	r3, [pc, #368]	; (80023dc <HAL_DMA_IRQHandler+0x178>)
 800226c:	6d85      	ldr	r5, [r0, #88]	; 0x58
 800226e:	681f      	ldr	r7, [r3, #0]
 8002270:	6dc3      	ldr	r3, [r0, #92]	; 0x5c
 8002272:	682e      	ldr	r6, [r5, #0]
 8002274:	2208      	movs	r2, #8
 8002276:	409a      	lsls	r2, r3
 8002278:	4232      	tst	r2, r6
 800227a:	4604      	mov	r4, r0
 800227c:	d00c      	beq.n	8002298 <HAL_DMA_IRQHandler+0x34>
 800227e:	6801      	ldr	r1, [r0, #0]
 8002280:	6808      	ldr	r0, [r1, #0]
 8002282:	0740      	lsls	r0, r0, #29
 8002284:	d508      	bpl.n	8002298 <HAL_DMA_IRQHandler+0x34>
 8002286:	6808      	ldr	r0, [r1, #0]
 8002288:	f020 0004 	bic.w	r0, r0, #4
 800228c:	6008      	str	r0, [r1, #0]
 800228e:	60aa      	str	r2, [r5, #8]
 8002290:	6d62      	ldr	r2, [r4, #84]	; 0x54
 8002292:	f042 0201 	orr.w	r2, r2, #1
 8002296:	6562      	str	r2, [r4, #84]	; 0x54
 8002298:	2201      	movs	r2, #1
 800229a:	409a      	lsls	r2, r3
 800229c:	4232      	tst	r2, r6
 800229e:	d008      	beq.n	80022b2 <HAL_DMA_IRQHandler+0x4e>
 80022a0:	6821      	ldr	r1, [r4, #0]
 80022a2:	6949      	ldr	r1, [r1, #20]
 80022a4:	0609      	lsls	r1, r1, #24
 80022a6:	bf41      	itttt	mi
 80022a8:	60aa      	strmi	r2, [r5, #8]
 80022aa:	6d62      	ldrmi	r2, [r4, #84]	; 0x54
 80022ac:	f042 0202 	orrmi.w	r2, r2, #2
 80022b0:	6562      	strmi	r2, [r4, #84]	; 0x54
 80022b2:	2204      	movs	r2, #4
 80022b4:	409a      	lsls	r2, r3
 80022b6:	4232      	tst	r2, r6
 80022b8:	d008      	beq.n	80022cc <HAL_DMA_IRQHandler+0x68>
 80022ba:	6821      	ldr	r1, [r4, #0]
 80022bc:	6809      	ldr	r1, [r1, #0]
 80022be:	0788      	lsls	r0, r1, #30
 80022c0:	bf41      	itttt	mi
 80022c2:	60aa      	strmi	r2, [r5, #8]
 80022c4:	6d62      	ldrmi	r2, [r4, #84]	; 0x54
 80022c6:	f042 0204 	orrmi.w	r2, r2, #4
 80022ca:	6562      	strmi	r2, [r4, #84]	; 0x54
 80022cc:	2210      	movs	r2, #16
 80022ce:	409a      	lsls	r2, r3
 80022d0:	4232      	tst	r2, r6
 80022d2:	d010      	beq.n	80022f6 <HAL_DMA_IRQHandler+0x92>
 80022d4:	6823      	ldr	r3, [r4, #0]
 80022d6:	6819      	ldr	r1, [r3, #0]
 80022d8:	0709      	lsls	r1, r1, #28
 80022da:	d50c      	bpl.n	80022f6 <HAL_DMA_IRQHandler+0x92>
 80022dc:	60aa      	str	r2, [r5, #8]
 80022de:	681a      	ldr	r2, [r3, #0]
 80022e0:	0350      	lsls	r0, r2, #13
 80022e2:	d537      	bpl.n	8002354 <HAL_DMA_IRQHandler+0xf0>
 80022e4:	681b      	ldr	r3, [r3, #0]
 80022e6:	0319      	lsls	r1, r3, #12
 80022e8:	d401      	bmi.n	80022ee <HAL_DMA_IRQHandler+0x8a>
 80022ea:	6c23      	ldr	r3, [r4, #64]	; 0x40
 80022ec:	e000      	b.n	80022f0 <HAL_DMA_IRQHandler+0x8c>
 80022ee:	6ca3      	ldr	r3, [r4, #72]	; 0x48
 80022f0:	b10b      	cbz	r3, 80022f6 <HAL_DMA_IRQHandler+0x92>
 80022f2:	4620      	mov	r0, r4
 80022f4:	4798      	blx	r3
 80022f6:	6de1      	ldr	r1, [r4, #92]	; 0x5c
 80022f8:	2220      	movs	r2, #32
 80022fa:	408a      	lsls	r2, r1
 80022fc:	4232      	tst	r2, r6
 80022fe:	d03a      	beq.n	8002376 <HAL_DMA_IRQHandler+0x112>
 8002300:	6823      	ldr	r3, [r4, #0]
 8002302:	6818      	ldr	r0, [r3, #0]
 8002304:	06c6      	lsls	r6, r0, #27
 8002306:	d536      	bpl.n	8002376 <HAL_DMA_IRQHandler+0x112>
 8002308:	60aa      	str	r2, [r5, #8]
 800230a:	f894 2035 	ldrb.w	r2, [r4, #53]	; 0x35
 800230e:	2a05      	cmp	r2, #5
 8002310:	681a      	ldr	r2, [r3, #0]
 8002312:	d127      	bne.n	8002364 <HAL_DMA_IRQHandler+0x100>
 8002314:	f022 0216 	bic.w	r2, r2, #22
 8002318:	601a      	str	r2, [r3, #0]
 800231a:	695a      	ldr	r2, [r3, #20]
 800231c:	f022 0280 	bic.w	r2, r2, #128	; 0x80
 8002320:	615a      	str	r2, [r3, #20]
 8002322:	6c22      	ldr	r2, [r4, #64]	; 0x40
 8002324:	b90a      	cbnz	r2, 800232a <HAL_DMA_IRQHandler+0xc6>
 8002326:	6ca2      	ldr	r2, [r4, #72]	; 0x48
 8002328:	b11a      	cbz	r2, 8002332 <HAL_DMA_IRQHandler+0xce>
 800232a:	681a      	ldr	r2, [r3, #0]
 800232c:	f022 0208 	bic.w	r2, r2, #8
 8002330:	601a      	str	r2, [r3, #0]
 8002332:	233f      	movs	r3, #63	; 0x3f
 8002334:	408b      	lsls	r3, r1
 8002336:	60ab      	str	r3, [r5, #8]
 8002338:	2301      	movs	r3, #1
 800233a:	f884 3035 	strb.w	r3, [r4, #53]	; 0x35
 800233e:	2300      	movs	r3, #0
 8002340:	f884 3034 	strb.w	r3, [r4, #52]	; 0x34
 8002344:	6d23      	ldr	r3, [r4, #80]	; 0x50
 8002346:	2b00      	cmp	r3, #0
 8002348:	d045      	beq.n	80023d6 <HAL_DMA_IRQHandler+0x172>
 800234a:	4620      	mov	r0, r4
 800234c:	b003      	add	sp, #12
 800234e:	e8bd 40f0 	ldmia.w	sp!, {r4, r5, r6, r7, lr}
 8002352:	4718      	bx	r3
 8002354:	681a      	ldr	r2, [r3, #0]
 8002356:	05d2      	lsls	r2, r2, #23
 8002358:	bf5e      	ittt	pl
 800235a:	681a      	ldrpl	r2, [r3, #0]
 800235c:	f022 0208 	bicpl.w	r2, r2, #8
 8002360:	601a      	strpl	r2, [r3, #0]
 8002362:	e7c2      	b.n	80022ea <HAL_DMA_IRQHandler+0x86>
 8002364:	0350      	lsls	r0, r2, #13
 8002366:	d527      	bpl.n	80023b8 <HAL_DMA_IRQHandler+0x154>
 8002368:	681b      	ldr	r3, [r3, #0]
 800236a:	0319      	lsls	r1, r3, #12
 800236c:	d431      	bmi.n	80023d2 <HAL_DMA_IRQHandler+0x16e>
 800236e:	6c63      	ldr	r3, [r4, #68]	; 0x44
 8002370:	b10b      	cbz	r3, 8002376 <HAL_DMA_IRQHandler+0x112>
 8002372:	4620      	mov	r0, r4
 8002374:	4798      	blx	r3
 8002376:	6d63      	ldr	r3, [r4, #84]	; 0x54
 8002378:	b36b      	cbz	r3, 80023d6 <HAL_DMA_IRQHandler+0x172>
 800237a:	6d63      	ldr	r3, [r4, #84]	; 0x54
 800237c:	07da      	lsls	r2, r3, #31
 800237e:	d519      	bpl.n	80023b4 <HAL_DMA_IRQHandler+0x150>
 8002380:	6822      	ldr	r2, [r4, #0]
 8002382:	f44f 5316 	mov.w	r3, #9600	; 0x2580
 8002386:	fbb7 f7f3 	udiv	r7, r7, r3
 800238a:	2305      	movs	r3, #5
 800238c:	f884 3035 	strb.w	r3, [r4, #53]	; 0x35
 8002390:	6813      	ldr	r3, [r2, #0]
 8002392:	f023 0301 	bic.w	r3, r3, #1
 8002396:	6013      	str	r3, [r2, #0]
 8002398:	9b01      	ldr	r3, [sp, #4]
 800239a:	3301      	adds	r3, #1
 800239c:	42bb      	cmp	r3, r7
 800239e:	9301      	str	r3, [sp, #4]
 80023a0:	d802      	bhi.n	80023a8 <HAL_DMA_IRQHandler+0x144>
 80023a2:	6813      	ldr	r3, [r2, #0]
 80023a4:	07db      	lsls	r3, r3, #31
 80023a6:	d4f7      	bmi.n	8002398 <HAL_DMA_IRQHandler+0x134>
 80023a8:	2301      	movs	r3, #1
 80023aa:	f884 3035 	strb.w	r3, [r4, #53]	; 0x35
 80023ae:	2300      	movs	r3, #0
 80023b0:	f884 3034 	strb.w	r3, [r4, #52]	; 0x34
 80023b4:	6ce3      	ldr	r3, [r4, #76]	; 0x4c
 80023b6:	e7c6      	b.n	8002346 <HAL_DMA_IRQHandler+0xe2>
 80023b8:	681a      	ldr	r2, [r3, #0]
 80023ba:	f412 7280 	ands.w	r2, r2, #256	; 0x100
 80023be:	d108      	bne.n	80023d2 <HAL_DMA_IRQHandler+0x16e>
 80023c0:	6819      	ldr	r1, [r3, #0]
 80023c2:	f021 0110 	bic.w	r1, r1, #16
 80023c6:	6019      	str	r1, [r3, #0]
 80023c8:	2301      	movs	r3, #1
 80023ca:	f884 3035 	strb.w	r3, [r4, #53]	; 0x35
 80023ce:	f884 2034 	strb.w	r2, [r4, #52]	; 0x34
 80023d2:	6be3      	ldr	r3, [r4, #60]	; 0x3c
 80023d4:	e7cc      	b.n	8002370 <HAL_DMA_IRQHandler+0x10c>
 80023d6:	b003      	add	sp, #12
 80023d8:	bdf0      	pop	{r4, r5, r6, r7, pc}
 80023da:	bf00      	nop
 80023dc:	2000007c 	.word	0x2000007c

080023e0 <HAL_GPIO_Init>:
 80023e0:	e92d 4ff7 	stmdb	sp!, {r0, r1, r2, r4, r5, r6, r7, r8, r9, sl, fp, lr}
 80023e4:	f8df 9184 	ldr.w	r9, [pc, #388]	; 800256c <HAL_GPIO_Init+0x18c>
 80023e8:	4a5e      	ldr	r2, [pc, #376]	; (8002564 <HAL_GPIO_Init+0x184>)
 80023ea:	2300      	movs	r3, #0
 80023ec:	680d      	ldr	r5, [r1, #0]
 80023ee:	2401      	movs	r4, #1
 80023f0:	409c      	lsls	r4, r3
 80023f2:	ea04 0c05 	and.w	ip, r4, r5
 80023f6:	43ac      	bics	r4, r5
 80023f8:	f040 80a5 	bne.w	8002546 <HAL_GPIO_Init+0x166>
 80023fc:	684d      	ldr	r5, [r1, #4]
 80023fe:	f005 0403 	and.w	r4, r5, #3
 8002402:	ea4f 0843 	mov.w	r8, r3, lsl #1
 8002406:	2603      	movs	r6, #3
 8002408:	1e67      	subs	r7, r4, #1
 800240a:	fa06 f608 	lsl.w	r6, r6, r8
 800240e:	2f01      	cmp	r7, #1
 8002410:	ea6f 0606 	mvn.w	r6, r6
 8002414:	d834      	bhi.n	8002480 <HAL_GPIO_Init+0xa0>
 8002416:	6887      	ldr	r7, [r0, #8]
 8002418:	ea07 0e06 	and.w	lr, r7, r6
 800241c:	68cf      	ldr	r7, [r1, #12]
 800241e:	fa07 f708 	lsl.w	r7, r7, r8
 8002422:	ea47 070e 	orr.w	r7, r7, lr
 8002426:	6087      	str	r7, [r0, #8]
 8002428:	6847      	ldr	r7, [r0, #4]
 800242a:	ea27 0e0c 	bic.w	lr, r7, ip
 800242e:	f3c5 1700 	ubfx	r7, r5, #4, #1
 8002432:	409f      	lsls	r7, r3
 8002434:	ea47 070e 	orr.w	r7, r7, lr
 8002438:	6047      	str	r7, [r0, #4]
 800243a:	68c7      	ldr	r7, [r0, #12]
 800243c:	ea07 0e06 	and.w	lr, r7, r6
 8002440:	688f      	ldr	r7, [r1, #8]
 8002442:	fa07 f708 	lsl.w	r7, r7, r8
 8002446:	ea47 070e 	orr.w	r7, r7, lr
 800244a:	2c02      	cmp	r4, #2
 800244c:	60c7      	str	r7, [r0, #12]
 800244e:	d119      	bne.n	8002484 <HAL_GPIO_Init+0xa4>
 8002450:	ea4f 0ad3 	mov.w	sl, r3, lsr #3
 8002454:	eb00 0a8a 	add.w	sl, r0, sl, lsl #2
 8002458:	f003 0b07 	and.w	fp, r3, #7
 800245c:	f8da 7020 	ldr.w	r7, [sl, #32]
 8002460:	ea4f 0b8b 	mov.w	fp, fp, lsl #2
 8002464:	f04f 0e0f 	mov.w	lr, #15
 8002468:	fa0e fe0b 	lsl.w	lr, lr, fp
 800246c:	ea27 0e0e 	bic.w	lr, r7, lr
 8002470:	690f      	ldr	r7, [r1, #16]
 8002472:	fa07 f70b 	lsl.w	r7, r7, fp
 8002476:	ea47 070e 	orr.w	r7, r7, lr
 800247a:	f8ca 7020 	str.w	r7, [sl, #32]
 800247e:	e001      	b.n	8002484 <HAL_GPIO_Init+0xa4>
 8002480:	2c03      	cmp	r4, #3
 8002482:	d1da      	bne.n	800243a <HAL_GPIO_Init+0x5a>
 8002484:	6807      	ldr	r7, [r0, #0]
 8002486:	fa04 f408 	lsl.w	r4, r4, r8
 800248a:	4037      	ands	r7, r6
 800248c:	433c      	orrs	r4, r7
 800248e:	f415 3f40 	tst.w	r5, #196608	; 0x30000
 8002492:	6004      	str	r4, [r0, #0]
 8002494:	d057      	beq.n	8002546 <HAL_GPIO_Init+0x166>
 8002496:	f04f 0a00 	mov.w	sl, #0
 800249a:	f8cd a004 	str.w	sl, [sp, #4]
 800249e:	f8d9 6044 	ldr.w	r6, [r9, #68]	; 0x44
 80024a2:	4c31      	ldr	r4, [pc, #196]	; (8002568 <HAL_GPIO_Init+0x188>)
 80024a4:	f446 4680 	orr.w	r6, r6, #16384	; 0x4000
 80024a8:	f8c9 6044 	str.w	r6, [r9, #68]	; 0x44
 80024ac:	f8d9 6044 	ldr.w	r6, [r9, #68]	; 0x44
 80024b0:	f406 4680 	and.w	r6, r6, #16384	; 0x4000
 80024b4:	9601      	str	r6, [sp, #4]
 80024b6:	9e01      	ldr	r6, [sp, #4]
 80024b8:	f023 0603 	bic.w	r6, r3, #3
 80024bc:	f106 4680 	add.w	r6, r6, #1073741824	; 0x40000000
 80024c0:	f506 369c 	add.w	r6, r6, #79872	; 0x13800
 80024c4:	f003 0e03 	and.w	lr, r3, #3
 80024c8:	f8d6 8008 	ldr.w	r8, [r6, #8]
 80024cc:	ea4f 0e8e 	mov.w	lr, lr, lsl #2
 80024d0:	270f      	movs	r7, #15
 80024d2:	fa07 f70e 	lsl.w	r7, r7, lr
 80024d6:	42a0      	cmp	r0, r4
 80024d8:	ea28 0707 	bic.w	r7, r8, r7
 80024dc:	d03a      	beq.n	8002554 <HAL_GPIO_Init+0x174>
 80024de:	f504 6480 	add.w	r4, r4, #1024	; 0x400
 80024e2:	42a0      	cmp	r0, r4
 80024e4:	d038      	beq.n	8002558 <HAL_GPIO_Init+0x178>
 80024e6:	f504 6480 	add.w	r4, r4, #1024	; 0x400
 80024ea:	42a0      	cmp	r0, r4
 80024ec:	d036      	beq.n	800255c <HAL_GPIO_Init+0x17c>
 80024ee:	f504 6480 	add.w	r4, r4, #1024	; 0x400
 80024f2:	42a0      	cmp	r0, r4
 80024f4:	d034      	beq.n	8002560 <HAL_GPIO_Init+0x180>
 80024f6:	f504 6480 	add.w	r4, r4, #1024	; 0x400
 80024fa:	42a0      	cmp	r0, r4
 80024fc:	bf0c      	ite	eq
 80024fe:	2404      	moveq	r4, #4
 8002500:	2407      	movne	r4, #7
 8002502:	fa04 f40e 	lsl.w	r4, r4, lr
 8002506:	433c      	orrs	r4, r7
 8002508:	60b4      	str	r4, [r6, #8]
 800250a:	6894      	ldr	r4, [r2, #8]
 800250c:	ea6f 060c 	mvn.w	r6, ip
 8002510:	02ef      	lsls	r7, r5, #11
 8002512:	bf54      	ite	pl
 8002514:	4034      	andpl	r4, r6
 8002516:	ea4c 0404 	orrmi.w	r4, ip, r4
 800251a:	6094      	str	r4, [r2, #8]
 800251c:	68d4      	ldr	r4, [r2, #12]
 800251e:	02af      	lsls	r7, r5, #10
 8002520:	bf54      	ite	pl
 8002522:	4034      	andpl	r4, r6
 8002524:	ea4c 0404 	orrmi.w	r4, ip, r4
 8002528:	60d4      	str	r4, [r2, #12]
 800252a:	6854      	ldr	r4, [r2, #4]
 800252c:	03af      	lsls	r7, r5, #14
 800252e:	bf54      	ite	pl
 8002530:	4034      	andpl	r4, r6
 8002532:	ea4c 0404 	orrmi.w	r4, ip, r4
 8002536:	6054      	str	r4, [r2, #4]
 8002538:	6814      	ldr	r4, [r2, #0]
 800253a:	03ed      	lsls	r5, r5, #15
 800253c:	bf54      	ite	pl
 800253e:	4034      	andpl	r4, r6
 8002540:	ea4c 0404 	orrmi.w	r4, ip, r4
 8002544:	6014      	str	r4, [r2, #0]
 8002546:	3301      	adds	r3, #1
 8002548:	2b10      	cmp	r3, #16
 800254a:	f47f af4f 	bne.w	80023ec <HAL_GPIO_Init+0xc>
 800254e:	b003      	add	sp, #12
 8002550:	e8bd 8ff0 	ldmia.w	sp!, {r4, r5, r6, r7, r8, r9, sl, fp, pc}
 8002554:	4654      	mov	r4, sl
 8002556:	e7d4      	b.n	8002502 <HAL_GPIO_Init+0x122>
 8002558:	2401      	movs	r4, #1
 800255a:	e7d2      	b.n	8002502 <HAL_GPIO_Init+0x122>
 800255c:	2402      	movs	r4, #2
 800255e:	e7d0      	b.n	8002502 <HAL_GPIO_Init+0x122>
 8002560:	2403      	movs	r4, #3
 8002562:	e7ce      	b.n	8002502 <HAL_GPIO_Init+0x122>
 8002564:	40013c00 	.word	0x40013c00
 8002568:	40020000 	.word	0x40020000
 800256c:	40023800 	.word	0x40023800

08002570 <HAL_GPIO_DeInit>:
 8002570:	4a3b      	ldr	r2, [pc, #236]	; (8002660 <HAL_GPIO_DeInit+0xf0>)
 8002572:	e92d 4ff0 	stmdb	sp!, {r4, r5, r6, r7, r8, r9, sl, fp, lr}
 8002576:	2300      	movs	r3, #0
 8002578:	f04f 0a01 	mov.w	sl, #1
 800257c:	f04f 080f 	mov.w	r8, #15
 8002580:	f04f 0b03 	mov.w	fp, #3
 8002584:	fa0a fc03 	lsl.w	ip, sl, r3
 8002588:	ea3c 0401 	bics.w	r4, ip, r1
 800258c:	ea0c 0601 	and.w	r6, ip, r1
 8002590:	d158      	bne.n	8002644 <HAL_GPIO_DeInit+0xd4>
 8002592:	f023 0403 	bic.w	r4, r3, #3
 8002596:	f104 4480 	add.w	r4, r4, #1073741824	; 0x40000000
 800259a:	f504 349c 	add.w	r4, r4, #79872	; 0x13800
 800259e:	f003 0703 	and.w	r7, r3, #3
 80025a2:	68a5      	ldr	r5, [r4, #8]
 80025a4:	00bf      	lsls	r7, r7, #2
 80025a6:	fa08 f907 	lsl.w	r9, r8, r7
 80025aa:	ea09 0e05 	and.w	lr, r9, r5
 80025ae:	4d2d      	ldr	r5, [pc, #180]	; (8002664 <HAL_GPIO_DeInit+0xf4>)
 80025b0:	42a8      	cmp	r0, r5
 80025b2:	d04c      	beq.n	800264e <HAL_GPIO_DeInit+0xde>
 80025b4:	f505 6580 	add.w	r5, r5, #1024	; 0x400
 80025b8:	42a8      	cmp	r0, r5
 80025ba:	d04a      	beq.n	8002652 <HAL_GPIO_DeInit+0xe2>
 80025bc:	f505 6580 	add.w	r5, r5, #1024	; 0x400
 80025c0:	42a8      	cmp	r0, r5
 80025c2:	d048      	beq.n	8002656 <HAL_GPIO_DeInit+0xe6>
 80025c4:	f505 6580 	add.w	r5, r5, #1024	; 0x400
 80025c8:	42a8      	cmp	r0, r5
 80025ca:	d046      	beq.n	800265a <HAL_GPIO_DeInit+0xea>
 80025cc:	f505 6580 	add.w	r5, r5, #1024	; 0x400
 80025d0:	42a8      	cmp	r0, r5
 80025d2:	bf0c      	ite	eq
 80025d4:	2504      	moveq	r5, #4
 80025d6:	2507      	movne	r5, #7
 80025d8:	40bd      	lsls	r5, r7
 80025da:	4575      	cmp	r5, lr
 80025dc:	d113      	bne.n	8002606 <HAL_GPIO_DeInit+0x96>
 80025de:	6815      	ldr	r5, [r2, #0]
 80025e0:	ea25 0506 	bic.w	r5, r5, r6
 80025e4:	6015      	str	r5, [r2, #0]
 80025e6:	6855      	ldr	r5, [r2, #4]
 80025e8:	ea25 0506 	bic.w	r5, r5, r6
 80025ec:	6055      	str	r5, [r2, #4]
 80025ee:	68d5      	ldr	r5, [r2, #12]
 80025f0:	ea25 0506 	bic.w	r5, r5, r6
 80025f4:	60d5      	str	r5, [r2, #12]
 80025f6:	6895      	ldr	r5, [r2, #8]
 80025f8:	ea25 0506 	bic.w	r5, r5, r6
 80025fc:	6095      	str	r5, [r2, #8]
 80025fe:	68a5      	ldr	r5, [r4, #8]
 8002600:	ea25 0509 	bic.w	r5, r5, r9
 8002604:	60a5      	str	r5, [r4, #8]
 8002606:	6805      	ldr	r5, [r0, #0]
 8002608:	005c      	lsls	r4, r3, #1
 800260a:	fa0b f404 	lsl.w	r4, fp, r4
 800260e:	08de      	lsrs	r6, r3, #3
 8002610:	ea25 0504 	bic.w	r5, r5, r4
 8002614:	eb00 0686 	add.w	r6, r0, r6, lsl #2
 8002618:	6005      	str	r5, [r0, #0]
 800261a:	f003 0507 	and.w	r5, r3, #7
 800261e:	6a37      	ldr	r7, [r6, #32]
 8002620:	00ad      	lsls	r5, r5, #2
 8002622:	fa08 f505 	lsl.w	r5, r8, r5
 8002626:	ea27 0705 	bic.w	r7, r7, r5
 800262a:	6237      	str	r7, [r6, #32]
 800262c:	68c5      	ldr	r5, [r0, #12]
 800262e:	ea25 0504 	bic.w	r5, r5, r4
 8002632:	60c5      	str	r5, [r0, #12]
 8002634:	6845      	ldr	r5, [r0, #4]
 8002636:	ea25 050c 	bic.w	r5, r5, ip
 800263a:	6045      	str	r5, [r0, #4]
 800263c:	6885      	ldr	r5, [r0, #8]
 800263e:	ea25 0404 	bic.w	r4, r5, r4
 8002642:	6084      	str	r4, [r0, #8]
 8002644:	3301      	adds	r3, #1
 8002646:	2b10      	cmp	r3, #16
 8002648:	d19c      	bne.n	8002584 <HAL_GPIO_DeInit+0x14>
 800264a:	e8bd 8ff0 	ldmia.w	sp!, {r4, r5, r6, r7, r8, r9, sl, fp, pc}
 800264e:	2500      	movs	r5, #0
 8002650:	e7c2      	b.n	80025d8 <HAL_GPIO_DeInit+0x68>
 8002652:	2501      	movs	r5, #1
 8002654:	e7c0      	b.n	80025d8 <HAL_GPIO_DeInit+0x68>
 8002656:	2502      	movs	r5, #2
 8002658:	e7be      	b.n	80025d8 <HAL_GPIO_DeInit+0x68>
 800265a:	2503      	movs	r5, #3
 800265c:	e7bc      	b.n	80025d8 <HAL_GPIO_DeInit+0x68>
 800265e:	bf00      	nop
 8002660:	40013c00 	.word	0x40013c00
 8002664:	40020000 	.word	0x40020000

08002668 <HAL_GPIO_WritePin>:
 8002668:	b10a      	cbz	r2, 800266e <HAL_GPIO_WritePin+0x6>
 800266a:	6181      	str	r1, [r0, #24]
 800266c:	4770      	bx	lr
 800266e:	0409      	lsls	r1, r1, #16
 8002670:	e7fb      	b.n	800266a <HAL_GPIO_WritePin+0x2>
	...

08002674 <HAL_GPIO_EXTI_IRQHandler>:
 8002674:	4a04      	ldr	r2, [pc, #16]	; (8002688 <HAL_GPIO_EXTI_IRQHandler+0x14>)
 8002676:	6951      	ldr	r1, [r2, #20]
 8002678:	4201      	tst	r1, r0
 800267a:	b508      	push	{r3, lr}
 800267c:	d002      	beq.n	8002684 <HAL_GPIO_EXTI_IRQHandler+0x10>
 800267e:	6150      	str	r0, [r2, #20]
 8002680:	f7fe ff96 	bl	80015b0 <HAL_GPIO_EXTI_Callback>
 8002684:	bd08      	pop	{r3, pc}
 8002686:	bf00      	nop
 8002688:	40013c00 	.word	0x40013c00

0800268c <HAL_HCD_HC_Init>:
 800268c:	e92d 43f0 	stmdb	sp!, {r4, r5, r6, r7, r8, r9, lr}
 8002690:	4605      	mov	r5, r0
 8002692:	b085      	sub	sp, #20
 8002694:	f895 42f8 	ldrb.w	r4, [r5, #760]	; 0x2f8
 8002698:	f89d e030 	ldrb.w	lr, [sp, #48]	; 0x30
 800269c:	f89d 8034 	ldrb.w	r8, [sp, #52]	; 0x34
 80026a0:	f8bd 9038 	ldrh.w	r9, [sp, #56]	; 0x38
 80026a4:	2c01      	cmp	r4, #1
 80026a6:	d025      	beq.n	80026f4 <HAL_HCD_HC_Init+0x68>
 80026a8:	2401      	movs	r4, #1
 80026aa:	f885 42f8 	strb.w	r4, [r5, #760]	; 0x2f8
 80026ae:	242c      	movs	r4, #44	; 0x2c
 80026b0:	fb04 5401 	mla	r4, r4, r1, r5
 80026b4:	09d0      	lsrs	r0, r2, #7
 80026b6:	2700      	movs	r7, #0
 80026b8:	f002 067f 	and.w	r6, r2, #127	; 0x7f
 80026bc:	f884 703d 	strb.w	r7, [r4, #61]	; 0x3d
 80026c0:	f884 3038 	strb.w	r3, [r4, #56]	; 0x38
 80026c4:	f884 1039 	strb.w	r1, [r4, #57]	; 0x39
 80026c8:	f884 803f 	strb.w	r8, [r4, #63]	; 0x3f
 80026cc:	f884 603a 	strb.w	r6, [r4, #58]	; 0x3a
 80026d0:	f884 003b 	strb.w	r0, [r4, #59]	; 0x3b
 80026d4:	f884 e03c 	strb.w	lr, [r4, #60]	; 0x3c
 80026d8:	f8a4 9040 	strh.w	r9, [r4, #64]	; 0x40
 80026dc:	6828      	ldr	r0, [r5, #0]
 80026de:	f8cd e000 	str.w	lr, [sp]
 80026e2:	e9cd 8901 	strd	r8, r9, [sp, #4]
 80026e6:	f002 fe6f 	bl	80053c8 <USB_HC_Init>
 80026ea:	f885 72f8 	strb.w	r7, [r5, #760]	; 0x2f8
 80026ee:	b005      	add	sp, #20
 80026f0:	e8bd 83f0 	ldmia.w	sp!, {r4, r5, r6, r7, r8, r9, pc}
 80026f4:	2002      	movs	r0, #2
 80026f6:	e7fa      	b.n	80026ee <HAL_HCD_HC_Init+0x62>

080026f8 <HAL_HCD_HC_Halt>:
 80026f8:	b510      	push	{r4, lr}
 80026fa:	f890 32f8 	ldrb.w	r3, [r0, #760]	; 0x2f8
 80026fe:	2b01      	cmp	r3, #1
 8002700:	4604      	mov	r4, r0
 8002702:	d009      	beq.n	8002718 <HAL_HCD_HC_Halt+0x20>
 8002704:	2301      	movs	r3, #1
 8002706:	f880 32f8 	strb.w	r3, [r0, #760]	; 0x2f8
 800270a:	6800      	ldr	r0, [r0, #0]
 800270c:	f002 fee1 	bl	80054d2 <USB_HC_Halt>
 8002710:	2000      	movs	r0, #0
 8002712:	f884 02f8 	strb.w	r0, [r4, #760]	; 0x2f8
 8002716:	bd10      	pop	{r4, pc}
 8002718:	2002      	movs	r0, #2
 800271a:	e7fc      	b.n	8002716 <HAL_HCD_HC_Halt+0x1e>

0800271c <HAL_HCD_Init>:
 800271c:	e92d 41f0 	stmdb	sp!, {r4, r5, r6, r7, r8, lr}
 8002720:	4606      	mov	r6, r0
 8002722:	b08a      	sub	sp, #40	; 0x28
 8002724:	2800      	cmp	r0, #0
 8002726:	d043      	beq.n	80027b0 <HAL_HCD_Init+0x94>
 8002728:	f890 32f9 	ldrb.w	r3, [r0, #761]	; 0x2f9
 800272c:	6804      	ldr	r4, [r0, #0]
 800272e:	f003 02ff 	and.w	r2, r3, #255	; 0xff
 8002732:	b91b      	cbnz	r3, 800273c <HAL_HCD_Init+0x20>
 8002734:	f880 22f8 	strb.w	r2, [r0, #760]	; 0x2f8
 8002738:	f006 f9e2 	bl	8008b00 <HAL_HCD_MspInit>
 800273c:	2303      	movs	r3, #3
 800273e:	f886 32f9 	strb.w	r3, [r6, #761]	; 0x2f9
 8002742:	6be3      	ldr	r3, [r4, #60]	; 0x3c
 8002744:	4634      	mov	r4, r6
 8002746:	f413 7380 	ands.w	r3, r3, #256	; 0x100
 800274a:	f854 0b10 	ldr.w	r0, [r4], #16
 800274e:	bf08      	it	eq
 8002750:	6133      	streq	r3, [r6, #16]
 8002752:	f002 fca7 	bl	80050a4 <USB_DisableGlobalInt>
 8002756:	cc0f      	ldmia	r4!, {r0, r1, r2, r3}
 8002758:	466d      	mov	r5, sp
 800275a:	c50f      	stmia	r5!, {r0, r1, r2, r3}
 800275c:	cc0f      	ldmia	r4!, {r0, r1, r2, r3}
 800275e:	c50f      	stmia	r5!, {r0, r1, r2, r3}
 8002760:	e894 0003 	ldmia.w	r4, {r0, r1}
 8002764:	e885 0003 	stmia.w	r5, {r0, r1}
 8002768:	f106 0804 	add.w	r8, r6, #4
 800276c:	4637      	mov	r7, r6
 800276e:	e898 000e 	ldmia.w	r8, {r1, r2, r3}
 8002772:	6830      	ldr	r0, [r6, #0]
 8002774:	f002 fc50 	bl	8005018 <USB_CoreInit>
 8002778:	f857 0b10 	ldr.w	r0, [r7], #16
 800277c:	2101      	movs	r1, #1
 800277e:	f002 fc97 	bl	80050b0 <USB_SetCurrentMode>
 8002782:	cf0f      	ldmia	r7!, {r0, r1, r2, r3}
 8002784:	46ec      	mov	ip, sp
 8002786:	e8ac 000f 	stmia.w	ip!, {r0, r1, r2, r3}
 800278a:	cf0f      	ldmia	r7!, {r0, r1, r2, r3}
 800278c:	e8ac 000f 	stmia.w	ip!, {r0, r1, r2, r3}
 8002790:	e894 0003 	ldmia.w	r4, {r0, r1}
 8002794:	e885 0003 	stmia.w	r5, {r0, r1}
 8002798:	e898 000e 	ldmia.w	r8, {r1, r2, r3}
 800279c:	6830      	ldr	r0, [r6, #0]
 800279e:	f002 fd3d 	bl	800521c <USB_HostInit>
 80027a2:	2301      	movs	r3, #1
 80027a4:	f886 32f9 	strb.w	r3, [r6, #761]	; 0x2f9
 80027a8:	2000      	movs	r0, #0
 80027aa:	b00a      	add	sp, #40	; 0x28
 80027ac:	e8bd 81f0 	ldmia.w	sp!, {r4, r5, r6, r7, r8, pc}
 80027b0:	2001      	movs	r0, #1
 80027b2:	e7fa      	b.n	80027aa <HAL_HCD_Init+0x8e>

080027b4 <HAL_HCD_HC_SubmitRequest>:
 80027b4:	b4f0      	push	{r4, r5, r6, r7}
 80027b6:	262c      	movs	r6, #44	; 0x2c
 80027b8:	fb06 0601 	mla	r6, r6, r1, r0
 80027bc:	f89d 7010 	ldrb.w	r7, [sp, #16]
 80027c0:	9d05      	ldr	r5, [sp, #20]
 80027c2:	f8bd 4018 	ldrh.w	r4, [sp, #24]
 80027c6:	f89d c01c 	ldrb.w	ip, [sp, #28]
 80027ca:	f886 203b 	strb.w	r2, [r6, #59]	; 0x3b
 80027ce:	f886 303f 	strb.w	r3, [r6, #63]	; 0x3f
 80027d2:	b97f      	cbnz	r7, 80027f4 <HAL_HCD_HC_SubmitRequest+0x40>
 80027d4:	2703      	movs	r7, #3
 80027d6:	2b02      	cmp	r3, #2
 80027d8:	f886 7042 	strb.w	r7, [r6, #66]	; 0x42
 80027dc:	f886 c03d 	strb.w	ip, [r6, #61]	; 0x3d
 80027e0:	d03c      	beq.n	800285c <HAL_HCD_HC_SubmitRequest+0xa8>
 80027e2:	42bb      	cmp	r3, r7
 80027e4:	d03a      	beq.n	800285c <HAL_HCD_HC_SubmitRequest+0xa8>
 80027e6:	2b01      	cmp	r3, #1
 80027e8:	d11f      	bne.n	800282a <HAL_HCD_HC_SubmitRequest+0x76>
 80027ea:	232c      	movs	r3, #44	; 0x2c
 80027ec:	fb03 0301 	mla	r3, r3, r1, r0
 80027f0:	2200      	movs	r2, #0
 80027f2:	e030      	b.n	8002856 <HAL_HCD_HC_SubmitRequest+0xa2>
 80027f4:	f04f 0c02 	mov.w	ip, #2
 80027f8:	f886 c042 	strb.w	ip, [r6, #66]	; 0x42
 80027fc:	2b03      	cmp	r3, #3
 80027fe:	d814      	bhi.n	800282a <HAL_HCD_HC_SubmitRequest+0x76>
 8002800:	a601      	add	r6, pc, #4	; (adr r6, 8002808 <HAL_HCD_HC_SubmitRequest+0x54>)
 8002802:	f856 f023 	ldr.w	pc, [r6, r3, lsl #2]
 8002806:	bf00      	nop
 8002808:	08002819 	.word	0x08002819
 800280c:	080027eb 	.word	0x080027eb
 8002810:	0800285d 	.word	0x0800285d
 8002814:	0800285d 	.word	0x0800285d
 8002818:	2f01      	cmp	r7, #1
 800281a:	d106      	bne.n	800282a <HAL_HCD_HC_SubmitRequest+0x76>
 800281c:	b92a      	cbnz	r2, 800282a <HAL_HCD_HC_SubmitRequest+0x76>
 800281e:	232c      	movs	r3, #44	; 0x2c
 8002820:	fb03 0301 	mla	r3, r3, r1, r0
 8002824:	b99c      	cbnz	r4, 800284e <HAL_HCD_HC_SubmitRequest+0x9a>
 8002826:	f883 7055 	strb.w	r7, [r3, #85]	; 0x55
 800282a:	222c      	movs	r2, #44	; 0x2c
 800282c:	fb02 0301 	mla	r3, r2, r1, r0
 8002830:	64dc      	str	r4, [r3, #76]	; 0x4c
 8002832:	2400      	movs	r4, #0
 8002834:	f883 1039 	strb.w	r1, [r3, #57]	; 0x39
 8002838:	f8a3 4060 	strh.w	r4, [r3, #96]	; 0x60
 800283c:	4619      	mov	r1, r3
 800283e:	7c02      	ldrb	r2, [r0, #16]
 8002840:	645d      	str	r5, [r3, #68]	; 0x44
 8002842:	651c      	str	r4, [r3, #80]	; 0x50
 8002844:	6800      	ldr	r0, [r0, #0]
 8002846:	bcf0      	pop	{r4, r5, r6, r7}
 8002848:	3138      	adds	r1, #56	; 0x38
 800284a:	f002 beb1 	b.w	80055b0 <USB_HC_StartXfer>
 800284e:	f893 6055 	ldrb.w	r6, [r3, #85]	; 0x55
 8002852:	2e00      	cmp	r6, #0
 8002854:	d1e9      	bne.n	800282a <HAL_HCD_HC_SubmitRequest+0x76>
 8002856:	f883 2042 	strb.w	r2, [r3, #66]	; 0x42
 800285a:	e7e6      	b.n	800282a <HAL_HCD_HC_SubmitRequest+0x76>
 800285c:	232c      	movs	r3, #44	; 0x2c
 800285e:	fb03 0301 	mla	r3, r3, r1, r0
 8002862:	b92a      	cbnz	r2, 8002870 <HAL_HCD_HC_SubmitRequest+0xbc>
 8002864:	f893 6055 	ldrb.w	r6, [r3, #85]	; 0x55
 8002868:	2e00      	cmp	r6, #0
 800286a:	d0f4      	beq.n	8002856 <HAL_HCD_HC_SubmitRequest+0xa2>
 800286c:	2202      	movs	r2, #2
 800286e:	e7f2      	b.n	8002856 <HAL_HCD_HC_SubmitRequest+0xa2>
 8002870:	f893 2054 	ldrb.w	r2, [r3, #84]	; 0x54
 8002874:	2a00      	cmp	r2, #0
 8002876:	d1f9      	bne.n	800286c <HAL_HCD_HC_SubmitRequest+0xb8>
 8002878:	e7ed      	b.n	8002856 <HAL_HCD_HC_SubmitRequest+0xa2>
 800287a:	bf00      	nop

0800287c <HAL_HCD_IRQHandler>:
 800287c:	e92d 4ff0 	stmdb	sp!, {r4, r5, r6, r7, r8, r9, sl, fp, lr}
 8002880:	6807      	ldr	r7, [r0, #0]
 8002882:	b085      	sub	sp, #20
 8002884:	4604      	mov	r4, r0
 8002886:	4638      	mov	r0, r7
 8002888:	f002 fcc3 	bl	8005212 <USB_GetMode>
 800288c:	2801      	cmp	r0, #1
 800288e:	f040 80f8 	bne.w	8002a82 <HAL_HCD_IRQHandler+0x206>
 8002892:	6820      	ldr	r0, [r4, #0]
 8002894:	f002 fcb9 	bl	800520a <USB_ReadInterrupts>
 8002898:	2800      	cmp	r0, #0
 800289a:	f000 80f2 	beq.w	8002a82 <HAL_HCD_IRQHandler+0x206>
 800289e:	6820      	ldr	r0, [r4, #0]
 80028a0:	f002 fcb3 	bl	800520a <USB_ReadInterrupts>
 80028a4:	0285      	lsls	r5, r0, #10
 80028a6:	bf48      	it	mi
 80028a8:	6823      	ldrmi	r3, [r4, #0]
 80028aa:	6820      	ldr	r0, [r4, #0]
 80028ac:	bf44      	itt	mi
 80028ae:	f44f 1200 	movmi.w	r2, #2097152	; 0x200000
 80028b2:	615a      	strmi	r2, [r3, #20]
 80028b4:	f002 fca9 	bl	800520a <USB_ReadInterrupts>
 80028b8:	02c0      	lsls	r0, r0, #11
 80028ba:	bf48      	it	mi
 80028bc:	6823      	ldrmi	r3, [r4, #0]
 80028be:	6820      	ldr	r0, [r4, #0]
 80028c0:	bf44      	itt	mi
 80028c2:	f44f 1280 	movmi.w	r2, #1048576	; 0x100000
 80028c6:	615a      	strmi	r2, [r3, #20]
 80028c8:	f002 fc9f 	bl	800520a <USB_ReadInterrupts>
 80028cc:	0141      	lsls	r1, r0, #5
 80028ce:	bf48      	it	mi
 80028d0:	6823      	ldrmi	r3, [r4, #0]
 80028d2:	6820      	ldr	r0, [r4, #0]
 80028d4:	bf44      	itt	mi
 80028d6:	f04f 6280 	movmi.w	r2, #67108864	; 0x4000000
 80028da:	615a      	strmi	r2, [r3, #20]
 80028dc:	f002 fc95 	bl	800520a <USB_ReadInterrupts>
 80028e0:	0782      	lsls	r2, r0, #30
 80028e2:	bf48      	it	mi
 80028e4:	6823      	ldrmi	r3, [r4, #0]
 80028e6:	6820      	ldr	r0, [r4, #0]
 80028e8:	bf44      	itt	mi
 80028ea:	2202      	movmi	r2, #2
 80028ec:	615a      	strmi	r2, [r3, #20]
 80028ee:	f002 fc8c 	bl	800520a <USB_ReadInterrupts>
 80028f2:	0083      	lsls	r3, r0, #2
 80028f4:	d515      	bpl.n	8002922 <HAL_HCD_IRQHandler+0xa6>
 80028f6:	6823      	ldr	r3, [r4, #0]
 80028f8:	f04f 5200 	mov.w	r2, #536870912	; 0x20000000
 80028fc:	615a      	str	r2, [r3, #20]
 80028fe:	f8d7 3440 	ldr.w	r3, [r7, #1088]	; 0x440
 8002902:	07de      	lsls	r6, r3, #31
 8002904:	d40d      	bmi.n	8002922 <HAL_HCD_IRQHandler+0xa6>
 8002906:	2110      	movs	r1, #16
 8002908:	4638      	mov	r0, r7
 800290a:	f002 fc01 	bl	8005110 <USB_FlushTxFifo>
 800290e:	4638      	mov	r0, r7
 8002910:	f002 fc24 	bl	800515c <USB_FlushRxFifo>
 8002914:	6820      	ldr	r0, [r4, #0]
 8002916:	2101      	movs	r1, #1
 8002918:	f002 fcec 	bl	80052f4 <USB_InitFSLSPClkSel>
 800291c:	4620      	mov	r0, r4
 800291e:	f006 f941 	bl	8008ba4 <HAL_HCD_Disconnect_Callback>
 8002922:	6820      	ldr	r0, [r4, #0]
 8002924:	f002 fc71 	bl	800520a <USB_ReadInterrupts>
 8002928:	01c5      	lsls	r5, r0, #7
 800292a:	d53d      	bpl.n	80029a8 <HAL_HCD_IRQHandler+0x12c>
 800292c:	6825      	ldr	r5, [r4, #0]
 800292e:	f8d5 3440 	ldr.w	r3, [r5, #1088]	; 0x440
 8002932:	9302      	str	r3, [sp, #8]
 8002934:	f8d5 3440 	ldr.w	r3, [r5, #1088]	; 0x440
 8002938:	9303      	str	r3, [sp, #12]
 800293a:	9b03      	ldr	r3, [sp, #12]
 800293c:	f023 032e 	bic.w	r3, r3, #46	; 0x2e
 8002940:	9303      	str	r3, [sp, #12]
 8002942:	9b02      	ldr	r3, [sp, #8]
 8002944:	0798      	lsls	r0, r3, #30
 8002946:	d509      	bpl.n	800295c <HAL_HCD_IRQHandler+0xe0>
 8002948:	9b02      	ldr	r3, [sp, #8]
 800294a:	07d9      	lsls	r1, r3, #31
 800294c:	d502      	bpl.n	8002954 <HAL_HCD_IRQHandler+0xd8>
 800294e:	4620      	mov	r0, r4
 8002950:	f006 f924 	bl	8008b9c <HAL_HCD_Connect_Callback>
 8002954:	9b03      	ldr	r3, [sp, #12]
 8002956:	f043 0302 	orr.w	r3, r3, #2
 800295a:	9303      	str	r3, [sp, #12]
 800295c:	9b02      	ldr	r3, [sp, #8]
 800295e:	071a      	lsls	r2, r3, #28
 8002960:	d518      	bpl.n	8002994 <HAL_HCD_IRQHandler+0x118>
 8002962:	9b03      	ldr	r3, [sp, #12]
 8002964:	f043 0308 	orr.w	r3, r3, #8
 8002968:	9303      	str	r3, [sp, #12]
 800296a:	9b02      	ldr	r3, [sp, #8]
 800296c:	075b      	lsls	r3, r3, #29
 800296e:	f140 8093 	bpl.w	8002a98 <HAL_HCD_IRQHandler+0x21c>
 8002972:	69a1      	ldr	r1, [r4, #24]
 8002974:	2902      	cmp	r1, #2
 8002976:	f040 8087 	bne.w	8002a88 <HAL_HCD_IRQHandler+0x20c>
 800297a:	9b02      	ldr	r3, [sp, #8]
 800297c:	6820      	ldr	r0, [r4, #0]
 800297e:	f403 23c0 	and.w	r3, r3, #393216	; 0x60000
 8002982:	f5b3 2f80 	cmp.w	r3, #262144	; 0x40000
 8002986:	bf18      	it	ne
 8002988:	2101      	movne	r1, #1
 800298a:	f002 fcb3 	bl	80052f4 <USB_InitFSLSPClkSel>
 800298e:	4620      	mov	r0, r4
 8002990:	f006 f90d 	bl	8008bae <HAL_HCD_PortEnabled_Callback>
 8002994:	9b02      	ldr	r3, [sp, #8]
 8002996:	069e      	lsls	r6, r3, #26
 8002998:	bf42      	ittt	mi
 800299a:	9b03      	ldrmi	r3, [sp, #12]
 800299c:	f043 0320 	orrmi.w	r3, r3, #32
 80029a0:	9303      	strmi	r3, [sp, #12]
 80029a2:	9b03      	ldr	r3, [sp, #12]
 80029a4:	f8c5 3440 	str.w	r3, [r5, #1088]	; 0x440
 80029a8:	6820      	ldr	r0, [r4, #0]
 80029aa:	f002 fc2e 	bl	800520a <USB_ReadInterrupts>
 80029ae:	0705      	lsls	r5, r0, #28
 80029b0:	d505      	bpl.n	80029be <HAL_HCD_IRQHandler+0x142>
 80029b2:	4620      	mov	r0, r4
 80029b4:	f006 f8ee 	bl	8008b94 <HAL_HCD_SOF_Callback>
 80029b8:	6823      	ldr	r3, [r4, #0]
 80029ba:	2208      	movs	r2, #8
 80029bc:	615a      	str	r2, [r3, #20]
 80029be:	6820      	ldr	r0, [r4, #0]
 80029c0:	f002 fc23 	bl	800520a <USB_ReadInterrupts>
 80029c4:	06c0      	lsls	r0, r0, #27
 80029c6:	d544      	bpl.n	8002a52 <HAL_HCD_IRQHandler+0x1d6>
 80029c8:	6826      	ldr	r6, [r4, #0]
 80029ca:	69b3      	ldr	r3, [r6, #24]
 80029cc:	f023 0310 	bic.w	r3, r3, #16
 80029d0:	61b3      	str	r3, [r6, #24]
 80029d2:	6a33      	ldr	r3, [r6, #32]
 80029d4:	f3c3 4243 	ubfx	r2, r3, #17, #4
 80029d8:	2a02      	cmp	r2, #2
 80029da:	d135      	bne.n	8002a48 <HAL_HCD_IRQHandler+0x1cc>
 80029dc:	f3c3 190a 	ubfx	r9, r3, #4, #11
 80029e0:	f1b9 0f00 	cmp.w	r9, #0
 80029e4:	d030      	beq.n	8002a48 <HAL_HCD_IRQHandler+0x1cc>
 80029e6:	f003 080f 	and.w	r8, r3, #15
 80029ea:	252c      	movs	r5, #44	; 0x2c
 80029ec:	fb05 4508 	mla	r5, r5, r8, r4
 80029f0:	6c69      	ldr	r1, [r5, #68]	; 0x44
 80029f2:	b349      	cbz	r1, 8002a48 <HAL_HCD_IRQHandler+0x1cc>
 80029f4:	6d2b      	ldr	r3, [r5, #80]	; 0x50
 80029f6:	6cea      	ldr	r2, [r5, #76]	; 0x4c
 80029f8:	444b      	add	r3, r9
 80029fa:	4293      	cmp	r3, r2
 80029fc:	d850      	bhi.n	8002aa0 <HAL_HCD_IRQHandler+0x224>
 80029fe:	464a      	mov	r2, r9
 8002a00:	4630      	mov	r0, r6
 8002a02:	f002 fbe2 	bl	80051ca <USB_ReadPacket>
 8002a06:	6c6b      	ldr	r3, [r5, #68]	; 0x44
 8002a08:	f8b5 1040 	ldrh.w	r1, [r5, #64]	; 0x40
 8002a0c:	444b      	add	r3, r9
 8002a0e:	646b      	str	r3, [r5, #68]	; 0x44
 8002a10:	f506 66a0 	add.w	r6, r6, #1280	; 0x500
 8002a14:	6d2b      	ldr	r3, [r5, #80]	; 0x50
 8002a16:	ea4f 1248 	mov.w	r2, r8, lsl #5
 8002a1a:	eb06 1848 	add.w	r8, r6, r8, lsl #5
 8002a1e:	444b      	add	r3, r9
 8002a20:	4589      	cmp	r9, r1
 8002a22:	652b      	str	r3, [r5, #80]	; 0x50
 8002a24:	f8d8 3010 	ldr.w	r3, [r8, #16]
 8002a28:	d10e      	bne.n	8002a48 <HAL_HCD_IRQHandler+0x1cc>
 8002a2a:	f3c3 43c9 	ubfx	r3, r3, #19, #10
 8002a2e:	b15b      	cbz	r3, 8002a48 <HAL_HCD_IRQHandler+0x1cc>
 8002a30:	58b3      	ldr	r3, [r6, r2]
 8002a32:	f023 4380 	bic.w	r3, r3, #1073741824	; 0x40000000
 8002a36:	f043 4300 	orr.w	r3, r3, #2147483648	; 0x80000000
 8002a3a:	50b3      	str	r3, [r6, r2]
 8002a3c:	f895 3054 	ldrb.w	r3, [r5, #84]	; 0x54
 8002a40:	f083 0301 	eor.w	r3, r3, #1
 8002a44:	f885 3054 	strb.w	r3, [r5, #84]	; 0x54
 8002a48:	6822      	ldr	r2, [r4, #0]
 8002a4a:	6993      	ldr	r3, [r2, #24]
 8002a4c:	f043 0310 	orr.w	r3, r3, #16
 8002a50:	6193      	str	r3, [r2, #24]
 8002a52:	6820      	ldr	r0, [r4, #0]
 8002a54:	f002 fbd9 	bl	800520a <USB_ReadInterrupts>
 8002a58:	0181      	lsls	r1, r0, #6
 8002a5a:	d512      	bpl.n	8002a82 <HAL_HCD_IRQHandler+0x206>
 8002a5c:	6820      	ldr	r0, [r4, #0]
 8002a5e:	f002 fd33 	bl	80054c8 <USB_HC_ReadInterrupt>
 8002a62:	f507 63a0 	add.w	r3, r7, #1280	; 0x500
 8002a66:	9001      	str	r0, [sp, #4]
 8002a68:	9300      	str	r3, [sp, #0]
 8002a6a:	f04f 0a00 	mov.w	sl, #0
 8002a6e:	262c      	movs	r6, #44	; 0x2c
 8002a70:	f04f 0802 	mov.w	r8, #2
 8002a74:	68a3      	ldr	r3, [r4, #8]
 8002a76:	6820      	ldr	r0, [r4, #0]
 8002a78:	4553      	cmp	r3, sl
 8002a7a:	d815      	bhi.n	8002aa8 <HAL_HCD_IRQHandler+0x22c>
 8002a7c:	f04f 7300 	mov.w	r3, #33554432	; 0x2000000
 8002a80:	6143      	str	r3, [r0, #20]
 8002a82:	b005      	add	sp, #20
 8002a84:	e8bd 8ff0 	ldmia.w	sp!, {r4, r5, r6, r7, r8, r9, sl, fp, pc}
 8002a88:	68e3      	ldr	r3, [r4, #12]
 8002a8a:	2b01      	cmp	r3, #1
 8002a8c:	bf04      	itt	eq
 8002a8e:	f64e 2260 	movweq	r2, #60000	; 0xea60
 8002a92:	f8c5 2404 	streq.w	r2, [r5, #1028]	; 0x404
 8002a96:	e77a      	b.n	800298e <HAL_HCD_IRQHandler+0x112>
 8002a98:	4620      	mov	r0, r4
 8002a9a:	f006 f88c 	bl	8008bb6 <HAL_HCD_PortDisabled_Callback>
 8002a9e:	e779      	b.n	8002994 <HAL_HCD_IRQHandler+0x118>
 8002aa0:	2304      	movs	r3, #4
 8002aa2:	f885 3060 	strb.w	r3, [r5, #96]	; 0x60
 8002aa6:	e7cf      	b.n	8002a48 <HAL_HCD_IRQHandler+0x1cc>
 8002aa8:	9a01      	ldr	r2, [sp, #4]
 8002aaa:	f00a 030f 	and.w	r3, sl, #15
 8002aae:	fa22 f303 	lsr.w	r3, r2, r3
 8002ab2:	07da      	lsls	r2, r3, #31
 8002ab4:	f140 8091 	bpl.w	8002bda <HAL_HCD_IRQHandler+0x35e>
 8002ab8:	9b00      	ldr	r3, [sp, #0]
 8002aba:	fa5f f58a 	uxtb.w	r5, sl
 8002abe:	681a      	ldr	r2, [r3, #0]
 8002ac0:	f500 67a0 	add.w	r7, r0, #1280	; 0x500
 8002ac4:	eb07 1b45 	add.w	fp, r7, r5, lsl #5
 8002ac8:	f412 4f00 	tst.w	r2, #32768	; 0x8000
 8002acc:	ea4f 1945 	mov.w	r9, r5, lsl #5
 8002ad0:	f8db 2008 	ldr.w	r2, [fp, #8]
 8002ad4:	f000 80fe 	beq.w	8002cd4 <HAL_HCD_IRQHandler+0x458>
 8002ad8:	0753      	lsls	r3, r2, #29
 8002ada:	d506      	bpl.n	8002aea <HAL_HCD_IRQHandler+0x26e>
 8002adc:	2204      	movs	r2, #4
 8002ade:	f8cb 2008 	str.w	r2, [fp, #8]
 8002ae2:	2106      	movs	r1, #6
 8002ae4:	fb06 4205 	mla	r2, r6, r5, r4
 8002ae8:	e00a      	b.n	8002b00 <HAL_HCD_IRQHandler+0x284>
 8002aea:	f8db 2008 	ldr.w	r2, [fp, #8]
 8002aee:	05d1      	lsls	r1, r2, #23
 8002af0:	d50c      	bpl.n	8002b0c <HAL_HCD_IRQHandler+0x290>
 8002af2:	f44f 7280 	mov.w	r2, #256	; 0x100
 8002af6:	f8cb 2008 	str.w	r2, [fp, #8]
 8002afa:	2107      	movs	r1, #7
 8002afc:	fb06 4205 	mla	r2, r6, r5, r4
 8002b00:	f882 1061 	strb.w	r1, [r2, #97]	; 0x61
 8002b04:	4629      	mov	r1, r5
 8002b06:	f002 fce4 	bl	80054d2 <USB_HC_Halt>
 8002b0a:	e006      	b.n	8002b1a <HAL_HCD_IRQHandler+0x29e>
 8002b0c:	f8db 2008 	ldr.w	r2, [fp, #8]
 8002b10:	0692      	lsls	r2, r2, #26
 8002b12:	d50f      	bpl.n	8002b34 <HAL_HCD_IRQHandler+0x2b8>
 8002b14:	2220      	movs	r2, #32
 8002b16:	f8cb 2008 	str.w	r2, [fp, #8]
 8002b1a:	f8db 2008 	ldr.w	r2, [fp, #8]
 8002b1e:	0593      	lsls	r3, r2, #22
 8002b20:	d525      	bpl.n	8002b6e <HAL_HCD_IRQHandler+0x2f2>
 8002b22:	6820      	ldr	r0, [r4, #0]
 8002b24:	4629      	mov	r1, r5
 8002b26:	f002 fcd4 	bl	80054d2 <USB_HC_Halt>
 8002b2a:	f44f 7200 	mov.w	r2, #512	; 0x200
 8002b2e:	f8cb 2008 	str.w	r2, [fp, #8]
 8002b32:	e052      	b.n	8002bda <HAL_HCD_IRQHandler+0x35e>
 8002b34:	f8db 2008 	ldr.w	r2, [fp, #8]
 8002b38:	0713      	lsls	r3, r2, #28
 8002b3a:	d506      	bpl.n	8002b4a <HAL_HCD_IRQHandler+0x2ce>
 8002b3c:	2208      	movs	r2, #8
 8002b3e:	f8cb 2008 	str.w	r2, [fp, #8]
 8002b42:	2105      	movs	r1, #5
 8002b44:	fb06 4205 	mla	r2, r6, r5, r4
 8002b48:	e7da      	b.n	8002b00 <HAL_HCD_IRQHandler+0x284>
 8002b4a:	f8db 2008 	ldr.w	r2, [fp, #8]
 8002b4e:	0551      	lsls	r1, r2, #21
 8002b50:	d507      	bpl.n	8002b62 <HAL_HCD_IRQHandler+0x2e6>
 8002b52:	f44f 6280 	mov.w	r2, #1024	; 0x400
 8002b56:	f8cb 2008 	str.w	r2, [fp, #8]
 8002b5a:	2108      	movs	r1, #8
 8002b5c:	fb06 4205 	mla	r2, r6, r5, r4
 8002b60:	e7ce      	b.n	8002b00 <HAL_HCD_IRQHandler+0x284>
 8002b62:	f8db 2008 	ldr.w	r2, [fp, #8]
 8002b66:	0612      	lsls	r2, r2, #24
 8002b68:	d5d7      	bpl.n	8002b1a <HAL_HCD_IRQHandler+0x29e>
 8002b6a:	2280      	movs	r2, #128	; 0x80
 8002b6c:	e7b7      	b.n	8002ade <HAL_HCD_IRQHandler+0x262>
 8002b6e:	f8db 2008 	ldr.w	r2, [fp, #8]
 8002b72:	07d0      	lsls	r0, r2, #31
 8002b74:	d546      	bpl.n	8002c04 <HAL_HCD_IRQHandler+0x388>
 8002b76:	6922      	ldr	r2, [r4, #16]
 8002b78:	b142      	cbz	r2, 8002b8c <HAL_HCD_IRQHandler+0x310>
 8002b7a:	fb06 4005 	mla	r0, r6, r5, r4
 8002b7e:	f8db 1010 	ldr.w	r1, [fp, #16]
 8002b82:	6c82      	ldr	r2, [r0, #72]	; 0x48
 8002b84:	f3c1 0112 	ubfx	r1, r1, #0, #19
 8002b88:	1a52      	subs	r2, r2, r1
 8002b8a:	6502      	str	r2, [r0, #80]	; 0x50
 8002b8c:	fb06 4105 	mla	r1, r6, r5, r4
 8002b90:	2201      	movs	r2, #1
 8002b92:	2000      	movs	r0, #0
 8002b94:	f881 2061 	strb.w	r2, [r1, #97]	; 0x61
 8002b98:	65c8      	str	r0, [r1, #92]	; 0x5c
 8002b9a:	f8cb 2008 	str.w	r2, [fp, #8]
 8002b9e:	f891 203f 	ldrb.w	r2, [r1, #63]	; 0x3f
 8002ba2:	f012 02fd 	ands.w	r2, r2, #253	; 0xfd
 8002ba6:	d11e      	bne.n	8002be6 <HAL_HCD_IRQHandler+0x36a>
 8002ba8:	6820      	ldr	r0, [r4, #0]
 8002baa:	4629      	mov	r1, r5
 8002bac:	f002 fc91 	bl	80054d2 <USB_HC_Halt>
 8002bb0:	2210      	movs	r2, #16
 8002bb2:	f8cb 2008 	str.w	r2, [fp, #8]
 8002bb6:	6923      	ldr	r3, [r4, #16]
 8002bb8:	2b01      	cmp	r3, #1
 8002bba:	fb06 4505 	mla	r5, r6, r5, r4
 8002bbe:	d106      	bne.n	8002bce <HAL_HCD_IRQHandler+0x352>
 8002bc0:	f8b5 2040 	ldrh.w	r2, [r5, #64]	; 0x40
 8002bc4:	6cab      	ldr	r3, [r5, #72]	; 0x48
 8002bc6:	fbb3 f3f2 	udiv	r3, r3, r2
 8002bca:	07d9      	lsls	r1, r3, #31
 8002bcc:	d505      	bpl.n	8002bda <HAL_HCD_IRQHandler+0x35e>
 8002bce:	f895 3054 	ldrb.w	r3, [r5, #84]	; 0x54
 8002bd2:	f083 0301 	eor.w	r3, r3, #1
 8002bd6:	f885 3054 	strb.w	r3, [r5, #84]	; 0x54
 8002bda:	9b00      	ldr	r3, [sp, #0]
 8002bdc:	3320      	adds	r3, #32
 8002bde:	f10a 0a01 	add.w	sl, sl, #1
 8002be2:	9300      	str	r3, [sp, #0]
 8002be4:	e746      	b.n	8002a74 <HAL_HCD_IRQHandler+0x1f8>
 8002be6:	2a01      	cmp	r2, #1
 8002be8:	d1e5      	bne.n	8002bb6 <HAL_HCD_IRQHandler+0x33a>
 8002bea:	f857 3009 	ldr.w	r3, [r7, r9]
 8002bee:	f043 5300 	orr.w	r3, r3, #536870912	; 0x20000000
 8002bf2:	f847 3009 	str.w	r3, [r7, r9]
 8002bf6:	4620      	mov	r0, r4
 8002bf8:	f881 2060 	strb.w	r2, [r1, #96]	; 0x60
 8002bfc:	4629      	mov	r1, r5
 8002bfe:	f005 ffd5 	bl	8008bac <HAL_HCD_HC_NotifyURBChange_Callback>
 8002c02:	e7d8      	b.n	8002bb6 <HAL_HCD_IRQHandler+0x33a>
 8002c04:	f8db 3008 	ldr.w	r3, [fp, #8]
 8002c08:	f013 0302 	ands.w	r3, r3, #2
 8002c0c:	d046      	beq.n	8002c9c <HAL_HCD_IRQHandler+0x420>
 8002c0e:	fb06 4105 	mla	r1, r6, r5, r4
 8002c12:	f891 2061 	ldrb.w	r2, [r1, #97]	; 0x61
 8002c16:	2a01      	cmp	r2, #1
 8002c18:	d10c      	bne.n	8002c34 <HAL_HCD_IRQHandler+0x3b8>
 8002c1a:	f881 2060 	strb.w	r2, [r1, #96]	; 0x60
 8002c1e:	fb06 4305 	mla	r3, r6, r5, r4
 8002c22:	f8cb 8008 	str.w	r8, [fp, #8]
 8002c26:	f893 2060 	ldrb.w	r2, [r3, #96]	; 0x60
 8002c2a:	4629      	mov	r1, r5
 8002c2c:	4620      	mov	r0, r4
 8002c2e:	f005 ffbd 	bl	8008bac <HAL_HCD_HC_NotifyURBChange_Callback>
 8002c32:	e7d2      	b.n	8002bda <HAL_HCD_IRQHandler+0x35e>
 8002c34:	3a03      	subs	r2, #3
 8002c36:	2a05      	cmp	r2, #5
 8002c38:	d8f1      	bhi.n	8002c1e <HAL_HCD_IRQHandler+0x3a2>
 8002c3a:	a101      	add	r1, pc, #4	; (adr r1, 8002c40 <HAL_HCD_IRQHandler+0x3c4>)
 8002c3c:	f851 f022 	ldr.w	pc, [r1, r2, lsl #2]
 8002c40:	08002c71 	.word	0x08002c71
 8002c44:	08002c1f 	.word	0x08002c1f
 8002c48:	08002ebb 	.word	0x08002ebb
 8002c4c:	08002c59 	.word	0x08002c59
 8002c50:	08002c8b 	.word	0x08002c8b
 8002c54:	08002c59 	.word	0x08002c59
 8002c58:	fb06 4105 	mla	r1, r6, r5, r4
 8002c5c:	6dca      	ldr	r2, [r1, #92]	; 0x5c
 8002c5e:	3201      	adds	r2, #1
 8002c60:	2a02      	cmp	r2, #2
 8002c62:	65ca      	str	r2, [r1, #92]	; 0x5c
 8002c64:	f240 812d 	bls.w	8002ec2 <HAL_HCD_IRQHandler+0x646>
 8002c68:	2200      	movs	r2, #0
 8002c6a:	65ca      	str	r2, [r1, #92]	; 0x5c
 8002c6c:	2204      	movs	r2, #4
 8002c6e:	e7d4      	b.n	8002c1a <HAL_HCD_IRQHandler+0x39e>
 8002c70:	fb06 4205 	mla	r2, r6, r5, r4
 8002c74:	f882 8060 	strb.w	r8, [r2, #96]	; 0x60
 8002c78:	f857 2009 	ldr.w	r2, [r7, r9]
 8002c7c:	f022 4280 	bic.w	r2, r2, #1073741824	; 0x40000000
 8002c80:	f042 4200 	orr.w	r2, r2, #2147483648	; 0x80000000
 8002c84:	f847 2009 	str.w	r2, [r7, r9]
 8002c88:	e7c9      	b.n	8002c1e <HAL_HCD_IRQHandler+0x3a2>
 8002c8a:	fb06 4205 	mla	r2, r6, r5, r4
 8002c8e:	6dd1      	ldr	r1, [r2, #92]	; 0x5c
 8002c90:	3101      	adds	r1, #1
 8002c92:	65d1      	str	r1, [r2, #92]	; 0x5c
 8002c94:	2104      	movs	r1, #4
 8002c96:	f882 1060 	strb.w	r1, [r2, #96]	; 0x60
 8002c9a:	e7c0      	b.n	8002c1e <HAL_HCD_IRQHandler+0x3a2>
 8002c9c:	f8db 2008 	ldr.w	r2, [fp, #8]
 8002ca0:	6820      	ldr	r0, [r4, #0]
 8002ca2:	06d2      	lsls	r2, r2, #27
 8002ca4:	d599      	bpl.n	8002bda <HAL_HCD_IRQHandler+0x35e>
 8002ca6:	fb06 4105 	mla	r1, r6, r5, r4
 8002caa:	f891 203f 	ldrb.w	r2, [r1, #63]	; 0x3f
 8002cae:	2a03      	cmp	r2, #3
 8002cb0:	d105      	bne.n	8002cbe <HAL_HCD_IRQHandler+0x442>
 8002cb2:	65cb      	str	r3, [r1, #92]	; 0x5c
 8002cb4:	4629      	mov	r1, r5
 8002cb6:	f002 fc0c 	bl	80054d2 <USB_HC_Halt>
 8002cba:	2210      	movs	r2, #16
 8002cbc:	e737      	b.n	8002b2e <HAL_HCD_IRQHandler+0x2b2>
 8002cbe:	f012 02fd 	ands.w	r2, r2, #253	; 0xfd
 8002cc2:	d1fa      	bne.n	8002cba <HAL_HCD_IRQHandler+0x43e>
 8002cc4:	65ca      	str	r2, [r1, #92]	; 0x5c
 8002cc6:	6922      	ldr	r2, [r4, #16]
 8002cc8:	2a00      	cmp	r2, #0
 8002cca:	d1f6      	bne.n	8002cba <HAL_HCD_IRQHandler+0x43e>
 8002ccc:	2203      	movs	r2, #3
 8002cce:	f881 2061 	strb.w	r2, [r1, #97]	; 0x61
 8002cd2:	e7ef      	b.n	8002cb4 <HAL_HCD_IRQHandler+0x438>
 8002cd4:	f012 0204 	ands.w	r2, r2, #4
 8002cd8:	d008      	beq.n	8002cec <HAL_HCD_IRQHandler+0x470>
 8002cda:	2204      	movs	r2, #4
 8002cdc:	f8cb 2008 	str.w	r2, [fp, #8]
 8002ce0:	fb06 4305 	mla	r3, r6, r5, r4
 8002ce4:	2206      	movs	r2, #6
 8002ce6:	f883 2061 	strb.w	r2, [r3, #97]	; 0x61
 8002cea:	e011      	b.n	8002d10 <HAL_HCD_IRQHandler+0x494>
 8002cec:	f8db 1008 	ldr.w	r1, [fp, #8]
 8002cf0:	068b      	lsls	r3, r1, #26
 8002cf2:	d511      	bpl.n	8002d18 <HAL_HCD_IRQHandler+0x49c>
 8002cf4:	2120      	movs	r1, #32
 8002cf6:	fb06 4305 	mla	r3, r6, r5, r4
 8002cfa:	f8cb 1008 	str.w	r1, [fp, #8]
 8002cfe:	f893 103d 	ldrb.w	r1, [r3, #61]	; 0x3d
 8002d02:	2901      	cmp	r1, #1
 8002d04:	f47f af69 	bne.w	8002bda <HAL_HCD_IRQHandler+0x35e>
 8002d08:	f883 203d 	strb.w	r2, [r3, #61]	; 0x3d
 8002d0c:	f883 8060 	strb.w	r8, [r3, #96]	; 0x60
 8002d10:	4629      	mov	r1, r5
 8002d12:	f002 fbde 	bl	80054d2 <USB_HC_Halt>
 8002d16:	e760      	b.n	8002bda <HAL_HCD_IRQHandler+0x35e>
 8002d18:	f8db 1008 	ldr.w	r1, [fp, #8]
 8002d1c:	f411 7100 	ands.w	r1, r1, #512	; 0x200
 8002d20:	d004      	beq.n	8002d2c <HAL_HCD_IRQHandler+0x4b0>
 8002d22:	f44f 7200 	mov.w	r2, #512	; 0x200
 8002d26:	f8cb 2008 	str.w	r2, [fp, #8]
 8002d2a:	e7f1      	b.n	8002d10 <HAL_HCD_IRQHandler+0x494>
 8002d2c:	f8db 3008 	ldr.w	r3, [fp, #8]
 8002d30:	f013 0301 	ands.w	r3, r3, #1
 8002d34:	d012      	beq.n	8002d5c <HAL_HCD_IRQHandler+0x4e0>
 8002d36:	fb06 4205 	mla	r2, r6, r5, r4
 8002d3a:	fb06 4305 	mla	r3, r6, r5, r4
 8002d3e:	65d1      	str	r1, [r2, #92]	; 0x5c
 8002d40:	f8db 1008 	ldr.w	r1, [fp, #8]
 8002d44:	0649      	lsls	r1, r1, #25
 8002d46:	bf41      	itttt	mi
 8002d48:	2101      	movmi	r1, #1
 8002d4a:	f882 103d 	strbmi.w	r1, [r2, #61]	; 0x3d
 8002d4e:	2240      	movmi	r2, #64	; 0x40
 8002d50:	f8cb 2008 	strmi.w	r2, [fp, #8]
 8002d54:	2201      	movs	r2, #1
 8002d56:	f8cb 2008 	str.w	r2, [fp, #8]
 8002d5a:	e7c4      	b.n	8002ce6 <HAL_HCD_IRQHandler+0x46a>
 8002d5c:	f8db 2008 	ldr.w	r2, [fp, #8]
 8002d60:	0652      	lsls	r2, r2, #25
 8002d62:	d50d      	bpl.n	8002d80 <HAL_HCD_IRQHandler+0x504>
 8002d64:	fb06 4205 	mla	r2, r6, r5, r4
 8002d68:	2104      	movs	r1, #4
 8002d6a:	f882 1061 	strb.w	r1, [r2, #97]	; 0x61
 8002d6e:	2101      	movs	r1, #1
 8002d70:	f882 103d 	strb.w	r1, [r2, #61]	; 0x3d
 8002d74:	65d3      	str	r3, [r2, #92]	; 0x5c
 8002d76:	4629      	mov	r1, r5
 8002d78:	f002 fbab 	bl	80054d2 <USB_HC_Halt>
 8002d7c:	2240      	movs	r2, #64	; 0x40
 8002d7e:	e6d6      	b.n	8002b2e <HAL_HCD_IRQHandler+0x2b2>
 8002d80:	f8db 2008 	ldr.w	r2, [fp, #8]
 8002d84:	0711      	lsls	r1, r2, #28
 8002d86:	d506      	bpl.n	8002d96 <HAL_HCD_IRQHandler+0x51a>
 8002d88:	2208      	movs	r2, #8
 8002d8a:	f8cb 2008 	str.w	r2, [fp, #8]
 8002d8e:	fb06 4305 	mla	r3, r6, r5, r4
 8002d92:	2205      	movs	r2, #5
 8002d94:	e7a7      	b.n	8002ce6 <HAL_HCD_IRQHandler+0x46a>
 8002d96:	f8db 2008 	ldr.w	r2, [fp, #8]
 8002d9a:	06d2      	lsls	r2, r2, #27
 8002d9c:	d514      	bpl.n	8002dc8 <HAL_HCD_IRQHandler+0x54c>
 8002d9e:	fb06 4205 	mla	r2, r6, r5, r4
 8002da2:	2100      	movs	r1, #0
 8002da4:	65d1      	str	r1, [r2, #92]	; 0x5c
 8002da6:	2103      	movs	r1, #3
 8002da8:	f882 1061 	strb.w	r1, [r2, #97]	; 0x61
 8002dac:	f892 103d 	ldrb.w	r1, [r2, #61]	; 0x3d
 8002db0:	2900      	cmp	r1, #0
 8002db2:	f47f af7f 	bne.w	8002cb4 <HAL_HCD_IRQHandler+0x438>
 8002db6:	f892 103c 	ldrb.w	r1, [r2, #60]	; 0x3c
 8002dba:	2900      	cmp	r1, #0
 8002dbc:	f47f af7a 	bne.w	8002cb4 <HAL_HCD_IRQHandler+0x438>
 8002dc0:	2101      	movs	r1, #1
 8002dc2:	f882 103d 	strb.w	r1, [r2, #61]	; 0x3d
 8002dc6:	e775      	b.n	8002cb4 <HAL_HCD_IRQHandler+0x438>
 8002dc8:	f8db 2008 	ldr.w	r2, [fp, #8]
 8002dcc:	0613      	lsls	r3, r2, #24
 8002dce:	d51f      	bpl.n	8002e10 <HAL_HCD_IRQHandler+0x594>
 8002dd0:	6922      	ldr	r2, [r4, #16]
 8002dd2:	b94a      	cbnz	r2, 8002de8 <HAL_HCD_IRQHandler+0x56c>
 8002dd4:	fb06 4205 	mla	r2, r6, r5, r4
 8002dd8:	2106      	movs	r1, #6
 8002dda:	f882 1061 	strb.w	r1, [r2, #97]	; 0x61
 8002dde:	4629      	mov	r1, r5
 8002de0:	f002 fb77 	bl	80054d2 <USB_HC_Halt>
 8002de4:	2280      	movs	r2, #128	; 0x80
 8002de6:	e6a2      	b.n	8002b2e <HAL_HCD_IRQHandler+0x2b2>
 8002de8:	fb06 4105 	mla	r1, r6, r5, r4
 8002dec:	6dca      	ldr	r2, [r1, #92]	; 0x5c
 8002dee:	3201      	adds	r2, #1
 8002df0:	2a02      	cmp	r2, #2
 8002df2:	65ca      	str	r2, [r1, #92]	; 0x5c
 8002df4:	d909      	bls.n	8002e0a <HAL_HCD_IRQHandler+0x58e>
 8002df6:	2200      	movs	r2, #0
 8002df8:	65ca      	str	r2, [r1, #92]	; 0x5c
 8002dfa:	2204      	movs	r2, #4
 8002dfc:	f881 2060 	strb.w	r2, [r1, #96]	; 0x60
 8002e00:	4620      	mov	r0, r4
 8002e02:	4629      	mov	r1, r5
 8002e04:	f005 fed2 	bl	8008bac <HAL_HCD_HC_NotifyURBChange_Callback>
 8002e08:	e7ec      	b.n	8002de4 <HAL_HCD_IRQHandler+0x568>
 8002e0a:	f881 8060 	strb.w	r8, [r1, #96]	; 0x60
 8002e0e:	e7e9      	b.n	8002de4 <HAL_HCD_IRQHandler+0x568>
 8002e10:	f8db 2008 	ldr.w	r2, [fp, #8]
 8002e14:	0551      	lsls	r1, r2, #21
 8002e16:	d50a      	bpl.n	8002e2e <HAL_HCD_IRQHandler+0x5b2>
 8002e18:	fb06 4205 	mla	r2, r6, r5, r4
 8002e1c:	2108      	movs	r1, #8
 8002e1e:	f882 1061 	strb.w	r1, [r2, #97]	; 0x61
 8002e22:	4629      	mov	r1, r5
 8002e24:	f002 fb55 	bl	80054d2 <USB_HC_Halt>
 8002e28:	f44f 6280 	mov.w	r2, #1024	; 0x400
 8002e2c:	e67f      	b.n	8002b2e <HAL_HCD_IRQHandler+0x2b2>
 8002e2e:	f8db 2008 	ldr.w	r2, [fp, #8]
 8002e32:	0792      	lsls	r2, r2, #30
 8002e34:	f57f aed1 	bpl.w	8002bda <HAL_HCD_IRQHandler+0x35e>
 8002e38:	fb06 4205 	mla	r2, r6, r5, r4
 8002e3c:	f892 1061 	ldrb.w	r1, [r2, #97]	; 0x61
 8002e40:	2901      	cmp	r1, #1
 8002e42:	d121      	bne.n	8002e88 <HAL_HCD_IRQHandler+0x60c>
 8002e44:	f882 1060 	strb.w	r1, [r2, #96]	; 0x60
 8002e48:	f892 103f 	ldrb.w	r1, [r2, #63]	; 0x3f
 8002e4c:	3902      	subs	r1, #2
 8002e4e:	2901      	cmp	r1, #1
 8002e50:	f63f aee5 	bhi.w	8002c1e <HAL_HCD_IRQHandler+0x3a2>
 8002e54:	6921      	ldr	r1, [r4, #16]
 8002e56:	b931      	cbnz	r1, 8002e66 <HAL_HCD_IRQHandler+0x5ea>
 8002e58:	f892 1055 	ldrb.w	r1, [r2, #85]	; 0x55
 8002e5c:	f081 0101 	eor.w	r1, r1, #1
 8002e60:	f882 1055 	strb.w	r1, [r2, #85]	; 0x55
 8002e64:	e6db      	b.n	8002c1e <HAL_HCD_IRQHandler+0x3a2>
 8002e66:	2901      	cmp	r1, #1
 8002e68:	f47f aed9 	bne.w	8002c1e <HAL_HCD_IRQHandler+0x3a2>
 8002e6c:	6cd1      	ldr	r1, [r2, #76]	; 0x4c
 8002e6e:	2900      	cmp	r1, #0
 8002e70:	f43f aed5 	beq.w	8002c1e <HAL_HCD_IRQHandler+0x3a2>
 8002e74:	f8b2 0040 	ldrh.w	r0, [r2, #64]	; 0x40
 8002e78:	3901      	subs	r1, #1
 8002e7a:	4401      	add	r1, r0
 8002e7c:	fbb1 f1f0 	udiv	r1, r1, r0
 8002e80:	07cb      	lsls	r3, r1, #31
 8002e82:	f57f aecc 	bpl.w	8002c1e <HAL_HCD_IRQHandler+0x3a2>
 8002e86:	e7e7      	b.n	8002e58 <HAL_HCD_IRQHandler+0x5dc>
 8002e88:	3903      	subs	r1, #3
 8002e8a:	2905      	cmp	r1, #5
 8002e8c:	f63f aec7 	bhi.w	8002c1e <HAL_HCD_IRQHandler+0x3a2>
 8002e90:	a201      	add	r2, pc, #4	; (adr r2, 8002e98 <HAL_HCD_IRQHandler+0x61c>)
 8002e92:	f852 f021 	ldr.w	pc, [r2, r1, lsl #2]
 8002e96:	bf00      	nop
 8002e98:	08002eb1 	.word	0x08002eb1
 8002e9c:	08002eb1 	.word	0x08002eb1
 8002ea0:	08002ebb 	.word	0x08002ebb
 8002ea4:	08002c59 	.word	0x08002c59
 8002ea8:	08002c1f 	.word	0x08002c1f
 8002eac:	08002c59 	.word	0x08002c59
 8002eb0:	fb06 4205 	mla	r2, r6, r5, r4
 8002eb4:	f882 8060 	strb.w	r8, [r2, #96]	; 0x60
 8002eb8:	e6b1      	b.n	8002c1e <HAL_HCD_IRQHandler+0x3a2>
 8002eba:	fb06 4205 	mla	r2, r6, r5, r4
 8002ebe:	2105      	movs	r1, #5
 8002ec0:	e6e9      	b.n	8002c96 <HAL_HCD_IRQHandler+0x41a>
 8002ec2:	f881 8060 	strb.w	r8, [r1, #96]	; 0x60
 8002ec6:	e6d7      	b.n	8002c78 <HAL_HCD_IRQHandler+0x3fc>

08002ec8 <HAL_HCD_Start>:
 8002ec8:	b510      	push	{r4, lr}
 8002eca:	f890 32f8 	ldrb.w	r3, [r0, #760]	; 0x2f8
 8002ece:	2b01      	cmp	r3, #1
 8002ed0:	4604      	mov	r4, r0
 8002ed2:	d00c      	beq.n	8002eee <HAL_HCD_Start+0x26>
 8002ed4:	2101      	movs	r1, #1
 8002ed6:	f880 12f8 	strb.w	r1, [r0, #760]	; 0x2f8
 8002eda:	6800      	ldr	r0, [r0, #0]
 8002edc:	f002 fa44 	bl	8005368 <USB_DriveVbus>
 8002ee0:	6820      	ldr	r0, [r4, #0]
 8002ee2:	f002 f8d9 	bl	8005098 <USB_EnableGlobalInt>
 8002ee6:	2000      	movs	r0, #0
 8002ee8:	f884 02f8 	strb.w	r0, [r4, #760]	; 0x2f8
 8002eec:	bd10      	pop	{r4, pc}
 8002eee:	2002      	movs	r0, #2
 8002ef0:	e7fc      	b.n	8002eec <HAL_HCD_Start+0x24>

08002ef2 <HAL_HCD_Stop>:
 8002ef2:	b510      	push	{r4, lr}
 8002ef4:	f890 32f8 	ldrb.w	r3, [r0, #760]	; 0x2f8
 8002ef8:	2b01      	cmp	r3, #1
 8002efa:	4604      	mov	r4, r0
 8002efc:	d009      	beq.n	8002f12 <HAL_HCD_Stop+0x20>
 8002efe:	2301      	movs	r3, #1
 8002f00:	f880 32f8 	strb.w	r3, [r0, #760]	; 0x2f8
 8002f04:	6800      	ldr	r0, [r0, #0]
 8002f06:	f002 fbf9 	bl	80056fc <USB_StopHost>
 8002f0a:	2000      	movs	r0, #0
 8002f0c:	f884 02f8 	strb.w	r0, [r4, #760]	; 0x2f8
 8002f10:	bd10      	pop	{r4, pc}
 8002f12:	2002      	movs	r0, #2
 8002f14:	e7fc      	b.n	8002f10 <HAL_HCD_Stop+0x1e>

08002f16 <HAL_HCD_ResetPort>:
 8002f16:	6800      	ldr	r0, [r0, #0]
 8002f18:	f002 ba08 	b.w	800532c <USB_ResetPort>

08002f1c <HAL_HCD_HC_GetURBState>:
 8002f1c:	232c      	movs	r3, #44	; 0x2c
 8002f1e:	fb03 0101 	mla	r1, r3, r1, r0
 8002f22:	f891 0060 	ldrb.w	r0, [r1, #96]	; 0x60
 8002f26:	4770      	bx	lr

08002f28 <HAL_HCD_HC_GetXferCount>:
 8002f28:	232c      	movs	r3, #44	; 0x2c
 8002f2a:	fb03 0101 	mla	r1, r3, r1, r0
 8002f2e:	6d08      	ldr	r0, [r1, #80]	; 0x50
 8002f30:	4770      	bx	lr

08002f32 <HAL_HCD_GetCurrentFrame>:
 8002f32:	6800      	ldr	r0, [r0, #0]
 8002f34:	f002 ba43 	b.w	80053be <USB_GetCurrentFrame>

08002f38 <HAL_HCD_GetCurrentSpeed>:
 8002f38:	6800      	ldr	r0, [r0, #0]
 8002f3a:	f002 ba35 	b.w	80053a8 <USB_GetHostSpeed>

08002f3e <I2C_IsAcknowledgeFailed>:
 8002f3e:	6801      	ldr	r1, [r0, #0]
 8002f40:	694b      	ldr	r3, [r1, #20]
 8002f42:	f413 6380 	ands.w	r3, r3, #1024	; 0x400
 8002f46:	f04f 0200 	mov.w	r2, #0
 8002f4a:	d010      	beq.n	8002f6e <I2C_IsAcknowledgeFailed+0x30>
 8002f4c:	f46f 6380 	mvn.w	r3, #1024	; 0x400
 8002f50:	614b      	str	r3, [r1, #20]
 8002f52:	2320      	movs	r3, #32
 8002f54:	6302      	str	r2, [r0, #48]	; 0x30
 8002f56:	f880 303d 	strb.w	r3, [r0, #61]	; 0x3d
 8002f5a:	f880 203e 	strb.w	r2, [r0, #62]	; 0x3e
 8002f5e:	6c03      	ldr	r3, [r0, #64]	; 0x40
 8002f60:	f880 203c 	strb.w	r2, [r0, #60]	; 0x3c
 8002f64:	f043 0304 	orr.w	r3, r3, #4
 8002f68:	6403      	str	r3, [r0, #64]	; 0x40
 8002f6a:	2001      	movs	r0, #1
 8002f6c:	4770      	bx	lr
 8002f6e:	4618      	mov	r0, r3
 8002f70:	4770      	bx	lr

08002f72 <I2C_WaitOnFlagUntilTimeout>:
 8002f72:	e92d 46f8 	stmdb	sp!, {r3, r4, r5, r6, r7, r9, sl, lr}
 8002f76:	4606      	mov	r6, r0
 8002f78:	460f      	mov	r7, r1
 8002f7a:	4691      	mov	r9, r2
 8002f7c:	461d      	mov	r5, r3
 8002f7e:	ea4f 4a11 	mov.w	sl, r1, lsr #16
 8002f82:	6833      	ldr	r3, [r6, #0]
 8002f84:	f1ba 0f01 	cmp.w	sl, #1
 8002f88:	bf0c      	ite	eq
 8002f8a:	695c      	ldreq	r4, [r3, #20]
 8002f8c:	699c      	ldrne	r4, [r3, #24]
 8002f8e:	ea27 0404 	bic.w	r4, r7, r4
 8002f92:	b2a4      	uxth	r4, r4
 8002f94:	fab4 f484 	clz	r4, r4
 8002f98:	0964      	lsrs	r4, r4, #5
 8002f9a:	45a1      	cmp	r9, r4
 8002f9c:	d001      	beq.n	8002fa2 <I2C_WaitOnFlagUntilTimeout+0x30>
 8002f9e:	2000      	movs	r0, #0
 8002fa0:	e017      	b.n	8002fd2 <I2C_WaitOnFlagUntilTimeout+0x60>
 8002fa2:	1c6a      	adds	r2, r5, #1
 8002fa4:	d0ee      	beq.n	8002f84 <I2C_WaitOnFlagUntilTimeout+0x12>
 8002fa6:	f7fe ff93 	bl	8001ed0 <HAL_GetTick>
 8002faa:	9b08      	ldr	r3, [sp, #32]
 8002fac:	1ac0      	subs	r0, r0, r3
 8002fae:	42a8      	cmp	r0, r5
 8002fb0:	d801      	bhi.n	8002fb6 <I2C_WaitOnFlagUntilTimeout+0x44>
 8002fb2:	2d00      	cmp	r5, #0
 8002fb4:	d1e5      	bne.n	8002f82 <I2C_WaitOnFlagUntilTimeout+0x10>
 8002fb6:	2300      	movs	r3, #0
 8002fb8:	2220      	movs	r2, #32
 8002fba:	6333      	str	r3, [r6, #48]	; 0x30
 8002fbc:	f886 203d 	strb.w	r2, [r6, #61]	; 0x3d
 8002fc0:	f886 303e 	strb.w	r3, [r6, #62]	; 0x3e
 8002fc4:	6c32      	ldr	r2, [r6, #64]	; 0x40
 8002fc6:	f886 303c 	strb.w	r3, [r6, #60]	; 0x3c
 8002fca:	f042 0220 	orr.w	r2, r2, #32
 8002fce:	6432      	str	r2, [r6, #64]	; 0x40
 8002fd0:	2001      	movs	r0, #1
 8002fd2:	e8bd 86f8 	ldmia.w	sp!, {r3, r4, r5, r6, r7, r9, sl, pc}

08002fd6 <I2C_WaitOnMasterAddressFlagUntilTimeout>:
 8002fd6:	e92d 41f0 	stmdb	sp!, {r4, r5, r6, r7, r8, lr}
 8002fda:	4604      	mov	r4, r0
 8002fdc:	460f      	mov	r7, r1
 8002fde:	4616      	mov	r6, r2
 8002fe0:	4698      	mov	r8, r3
 8002fe2:	6825      	ldr	r5, [r4, #0]
 8002fe4:	6968      	ldr	r0, [r5, #20]
 8002fe6:	ea27 0000 	bic.w	r0, r7, r0
 8002fea:	b280      	uxth	r0, r0
 8002fec:	b1b8      	cbz	r0, 800301e <I2C_WaitOnMasterAddressFlagUntilTimeout+0x48>
 8002fee:	696b      	ldr	r3, [r5, #20]
 8002ff0:	055a      	lsls	r2, r3, #21
 8002ff2:	d516      	bpl.n	8003022 <I2C_WaitOnMasterAddressFlagUntilTimeout+0x4c>
 8002ff4:	682b      	ldr	r3, [r5, #0]
 8002ff6:	f443 7300 	orr.w	r3, r3, #512	; 0x200
 8002ffa:	602b      	str	r3, [r5, #0]
 8002ffc:	f46f 6380 	mvn.w	r3, #1024	; 0x400
 8003000:	616b      	str	r3, [r5, #20]
 8003002:	2220      	movs	r2, #32
 8003004:	2300      	movs	r3, #0
 8003006:	6323      	str	r3, [r4, #48]	; 0x30
 8003008:	f884 203d 	strb.w	r2, [r4, #61]	; 0x3d
 800300c:	f884 303e 	strb.w	r3, [r4, #62]	; 0x3e
 8003010:	6c22      	ldr	r2, [r4, #64]	; 0x40
 8003012:	f042 0204 	orr.w	r2, r2, #4
 8003016:	6422      	str	r2, [r4, #64]	; 0x40
 8003018:	f884 303c 	strb.w	r3, [r4, #60]	; 0x3c
 800301c:	2001      	movs	r0, #1
 800301e:	e8bd 81f0 	ldmia.w	sp!, {r4, r5, r6, r7, r8, pc}
 8003022:	1c73      	adds	r3, r6, #1
 8003024:	d0de      	beq.n	8002fe4 <I2C_WaitOnMasterAddressFlagUntilTimeout+0xe>
 8003026:	f7fe ff53 	bl	8001ed0 <HAL_GetTick>
 800302a:	eba0 0008 	sub.w	r0, r0, r8
 800302e:	42b0      	cmp	r0, r6
 8003030:	d801      	bhi.n	8003036 <I2C_WaitOnMasterAddressFlagUntilTimeout+0x60>
 8003032:	2e00      	cmp	r6, #0
 8003034:	d1d5      	bne.n	8002fe2 <I2C_WaitOnMasterAddressFlagUntilTimeout+0xc>
 8003036:	2300      	movs	r3, #0
 8003038:	2220      	movs	r2, #32
 800303a:	6323      	str	r3, [r4, #48]	; 0x30
 800303c:	f884 203d 	strb.w	r2, [r4, #61]	; 0x3d
 8003040:	f884 303e 	strb.w	r3, [r4, #62]	; 0x3e
 8003044:	6c22      	ldr	r2, [r4, #64]	; 0x40
 8003046:	f042 0220 	orr.w	r2, r2, #32
 800304a:	e7e4      	b.n	8003016 <I2C_WaitOnMasterAddressFlagUntilTimeout+0x40>

0800304c <I2C_WaitOnRXNEFlagUntilTimeout>:
 800304c:	b570      	push	{r4, r5, r6, lr}
 800304e:	4604      	mov	r4, r0
 8003050:	460d      	mov	r5, r1
 8003052:	4616      	mov	r6, r2
 8003054:	6821      	ldr	r1, [r4, #0]
 8003056:	694b      	ldr	r3, [r1, #20]
 8003058:	f013 0340 	ands.w	r3, r3, #64	; 0x40
 800305c:	d001      	beq.n	8003062 <I2C_WaitOnRXNEFlagUntilTimeout+0x16>
 800305e:	2000      	movs	r0, #0
 8003060:	e010      	b.n	8003084 <I2C_WaitOnRXNEFlagUntilTimeout+0x38>
 8003062:	694a      	ldr	r2, [r1, #20]
 8003064:	06d2      	lsls	r2, r2, #27
 8003066:	d50e      	bpl.n	8003086 <I2C_WaitOnRXNEFlagUntilTimeout+0x3a>
 8003068:	f06f 0210 	mvn.w	r2, #16
 800306c:	614a      	str	r2, [r1, #20]
 800306e:	2220      	movs	r2, #32
 8003070:	6323      	str	r3, [r4, #48]	; 0x30
 8003072:	f884 203d 	strb.w	r2, [r4, #61]	; 0x3d
 8003076:	f884 303e 	strb.w	r3, [r4, #62]	; 0x3e
 800307a:	6c22      	ldr	r2, [r4, #64]	; 0x40
 800307c:	6422      	str	r2, [r4, #64]	; 0x40
 800307e:	f884 303c 	strb.w	r3, [r4, #60]	; 0x3c
 8003082:	2001      	movs	r0, #1
 8003084:	bd70      	pop	{r4, r5, r6, pc}
 8003086:	f7fe ff23 	bl	8001ed0 <HAL_GetTick>
 800308a:	1b80      	subs	r0, r0, r6
 800308c:	42a8      	cmp	r0, r5
 800308e:	d801      	bhi.n	8003094 <I2C_WaitOnRXNEFlagUntilTimeout+0x48>
 8003090:	2d00      	cmp	r5, #0
 8003092:	d1df      	bne.n	8003054 <I2C_WaitOnRXNEFlagUntilTimeout+0x8>
 8003094:	2300      	movs	r3, #0
 8003096:	2220      	movs	r2, #32
 8003098:	6323      	str	r3, [r4, #48]	; 0x30
 800309a:	f884 203d 	strb.w	r2, [r4, #61]	; 0x3d
 800309e:	f884 303e 	strb.w	r3, [r4, #62]	; 0x3e
 80030a2:	6c22      	ldr	r2, [r4, #64]	; 0x40
 80030a4:	f042 0220 	orr.w	r2, r2, #32
 80030a8:	e7e8      	b.n	800307c <I2C_WaitOnRXNEFlagUntilTimeout+0x30>

080030aa <I2C_WaitOnTXEFlagUntilTimeout>:
 80030aa:	b570      	push	{r4, r5, r6, lr}
 80030ac:	4604      	mov	r4, r0
 80030ae:	460d      	mov	r5, r1
 80030b0:	4616      	mov	r6, r2
 80030b2:	6823      	ldr	r3, [r4, #0]
 80030b4:	695b      	ldr	r3, [r3, #20]
 80030b6:	061b      	lsls	r3, r3, #24
 80030b8:	d501      	bpl.n	80030be <I2C_WaitOnTXEFlagUntilTimeout+0x14>
 80030ba:	2000      	movs	r0, #0
 80030bc:	bd70      	pop	{r4, r5, r6, pc}
 80030be:	4620      	mov	r0, r4
 80030c0:	f7ff ff3d 	bl	8002f3e <I2C_IsAcknowledgeFailed>
 80030c4:	b9a8      	cbnz	r0, 80030f2 <I2C_WaitOnTXEFlagUntilTimeout+0x48>
 80030c6:	1c6a      	adds	r2, r5, #1
 80030c8:	d0f3      	beq.n	80030b2 <I2C_WaitOnTXEFlagUntilTimeout+0x8>
 80030ca:	f7fe ff01 	bl	8001ed0 <HAL_GetTick>
 80030ce:	1b80      	subs	r0, r0, r6
 80030d0:	42a8      	cmp	r0, r5
 80030d2:	d801      	bhi.n	80030d8 <I2C_WaitOnTXEFlagUntilTimeout+0x2e>
 80030d4:	2d00      	cmp	r5, #0
 80030d6:	d1ec      	bne.n	80030b2 <I2C_WaitOnTXEFlagUntilTimeout+0x8>
 80030d8:	2300      	movs	r3, #0
 80030da:	2220      	movs	r2, #32
 80030dc:	6323      	str	r3, [r4, #48]	; 0x30
 80030de:	f884 203d 	strb.w	r2, [r4, #61]	; 0x3d
 80030e2:	f884 303e 	strb.w	r3, [r4, #62]	; 0x3e
 80030e6:	6c22      	ldr	r2, [r4, #64]	; 0x40
 80030e8:	f884 303c 	strb.w	r3, [r4, #60]	; 0x3c
 80030ec:	f042 0220 	orr.w	r2, r2, #32
 80030f0:	6422      	str	r2, [r4, #64]	; 0x40
 80030f2:	2001      	movs	r0, #1
 80030f4:	e7e2      	b.n	80030bc <I2C_WaitOnTXEFlagUntilTimeout+0x12>
	...

080030f8 <I2C_RequestMemoryWrite>:
 80030f8:	e92d 43f0 	stmdb	sp!, {r4, r5, r6, r7, r8, r9, lr}
 80030fc:	4615      	mov	r5, r2
 80030fe:	6802      	ldr	r2, [r0, #0]
 8003100:	b085      	sub	sp, #20
 8003102:	e9dd 780c 	ldrd	r7, r8, [sp, #48]	; 0x30
 8003106:	4699      	mov	r9, r3
 8003108:	6813      	ldr	r3, [r2, #0]
 800310a:	f443 7380 	orr.w	r3, r3, #256	; 0x100
 800310e:	6013      	str	r3, [r2, #0]
 8003110:	460e      	mov	r6, r1
 8003112:	463b      	mov	r3, r7
 8003114:	f8cd 8000 	str.w	r8, [sp]
 8003118:	2200      	movs	r2, #0
 800311a:	f04f 1101 	mov.w	r1, #65537	; 0x10001
 800311e:	4604      	mov	r4, r0
 8003120:	f7ff ff27 	bl	8002f72 <I2C_WaitOnFlagUntilTimeout>
 8003124:	6823      	ldr	r3, [r4, #0]
 8003126:	b138      	cbz	r0, 8003138 <I2C_RequestMemoryWrite+0x40>
 8003128:	681b      	ldr	r3, [r3, #0]
 800312a:	05db      	lsls	r3, r3, #23
 800312c:	d502      	bpl.n	8003134 <I2C_RequestMemoryWrite+0x3c>
 800312e:	f44f 7300 	mov.w	r3, #512	; 0x200
 8003132:	6423      	str	r3, [r4, #64]	; 0x40
 8003134:	2003      	movs	r0, #3
 8003136:	e00a      	b.n	800314e <I2C_RequestMemoryWrite+0x56>
 8003138:	f006 06fe 	and.w	r6, r6, #254	; 0xfe
 800313c:	611e      	str	r6, [r3, #16]
 800313e:	4919      	ldr	r1, [pc, #100]	; (80031a4 <I2C_RequestMemoryWrite+0xac>)
 8003140:	4643      	mov	r3, r8
 8003142:	463a      	mov	r2, r7
 8003144:	4620      	mov	r0, r4
 8003146:	f7ff ff46 	bl	8002fd6 <I2C_WaitOnMasterAddressFlagUntilTimeout>
 800314a:	b118      	cbz	r0, 8003154 <I2C_RequestMemoryWrite+0x5c>
 800314c:	2001      	movs	r0, #1
 800314e:	b005      	add	sp, #20
 8003150:	e8bd 83f0 	ldmia.w	sp!, {r4, r5, r6, r7, r8, r9, pc}
 8003154:	6823      	ldr	r3, [r4, #0]
 8003156:	9003      	str	r0, [sp, #12]
 8003158:	695a      	ldr	r2, [r3, #20]
 800315a:	9203      	str	r2, [sp, #12]
 800315c:	699b      	ldr	r3, [r3, #24]
 800315e:	9303      	str	r3, [sp, #12]
 8003160:	4642      	mov	r2, r8
 8003162:	4639      	mov	r1, r7
 8003164:	4620      	mov	r0, r4
 8003166:	9b03      	ldr	r3, [sp, #12]
 8003168:	f7ff ff9f 	bl	80030aa <I2C_WaitOnTXEFlagUntilTimeout>
 800316c:	b140      	cbz	r0, 8003180 <I2C_RequestMemoryWrite+0x88>
 800316e:	6c23      	ldr	r3, [r4, #64]	; 0x40
 8003170:	2b04      	cmp	r3, #4
 8003172:	bf01      	itttt	eq
 8003174:	6822      	ldreq	r2, [r4, #0]
 8003176:	6813      	ldreq	r3, [r2, #0]
 8003178:	f443 7300 	orreq.w	r3, r3, #512	; 0x200
 800317c:	6013      	streq	r3, [r2, #0]
 800317e:	e7e5      	b.n	800314c <I2C_RequestMemoryWrite+0x54>
 8003180:	f1b9 0f01 	cmp.w	r9, #1
 8003184:	6823      	ldr	r3, [r4, #0]
 8003186:	d102      	bne.n	800318e <I2C_RequestMemoryWrite+0x96>
 8003188:	b2ed      	uxtb	r5, r5
 800318a:	611d      	str	r5, [r3, #16]
 800318c:	e7df      	b.n	800314e <I2C_RequestMemoryWrite+0x56>
 800318e:	0a2a      	lsrs	r2, r5, #8
 8003190:	611a      	str	r2, [r3, #16]
 8003192:	4639      	mov	r1, r7
 8003194:	4642      	mov	r2, r8
 8003196:	4620      	mov	r0, r4
 8003198:	f7ff ff87 	bl	80030aa <I2C_WaitOnTXEFlagUntilTimeout>
 800319c:	2800      	cmp	r0, #0
 800319e:	d1e6      	bne.n	800316e <I2C_RequestMemoryWrite+0x76>
 80031a0:	6823      	ldr	r3, [r4, #0]
 80031a2:	e7f1      	b.n	8003188 <I2C_RequestMemoryWrite+0x90>
 80031a4:	00010002 	.word	0x00010002

080031a8 <I2C_RequestMemoryRead>:
 80031a8:	e92d 47ff 	stmdb	sp!, {r0, r1, r2, r3, r4, r5, r6, r7, r8, r9, sl, lr}
 80031ac:	469a      	mov	sl, r3
 80031ae:	6803      	ldr	r3, [r0, #0]
 80031b0:	4615      	mov	r5, r2
 80031b2:	681a      	ldr	r2, [r3, #0]
 80031b4:	f442 6280 	orr.w	r2, r2, #1024	; 0x400
 80031b8:	601a      	str	r2, [r3, #0]
 80031ba:	681a      	ldr	r2, [r3, #0]
 80031bc:	e9dd 780c 	ldrd	r7, r8, [sp, #48]	; 0x30
 80031c0:	f442 7280 	orr.w	r2, r2, #256	; 0x100
 80031c4:	601a      	str	r2, [r3, #0]
 80031c6:	460e      	mov	r6, r1
 80031c8:	463b      	mov	r3, r7
 80031ca:	f8cd 8000 	str.w	r8, [sp]
 80031ce:	2200      	movs	r2, #0
 80031d0:	f04f 1101 	mov.w	r1, #65537	; 0x10001
 80031d4:	4604      	mov	r4, r0
 80031d6:	f7ff fecc 	bl	8002f72 <I2C_WaitOnFlagUntilTimeout>
 80031da:	6823      	ldr	r3, [r4, #0]
 80031dc:	b148      	cbz	r0, 80031f2 <I2C_RequestMemoryRead+0x4a>
 80031de:	681b      	ldr	r3, [r3, #0]
 80031e0:	05db      	lsls	r3, r3, #23
 80031e2:	d502      	bpl.n	80031ea <I2C_RequestMemoryRead+0x42>
 80031e4:	f44f 7300 	mov.w	r3, #512	; 0x200
 80031e8:	6423      	str	r3, [r4, #64]	; 0x40
 80031ea:	2003      	movs	r0, #3
 80031ec:	b004      	add	sp, #16
 80031ee:	e8bd 87f0 	ldmia.w	sp!, {r4, r5, r6, r7, r8, r9, sl, pc}
 80031f2:	fa5f f986 	uxtb.w	r9, r6
 80031f6:	f006 06fe 	and.w	r6, r6, #254	; 0xfe
 80031fa:	611e      	str	r6, [r3, #16]
 80031fc:	492a      	ldr	r1, [pc, #168]	; (80032a8 <I2C_RequestMemoryRead+0x100>)
 80031fe:	4643      	mov	r3, r8
 8003200:	463a      	mov	r2, r7
 8003202:	4620      	mov	r0, r4
 8003204:	f7ff fee7 	bl	8002fd6 <I2C_WaitOnMasterAddressFlagUntilTimeout>
 8003208:	b108      	cbz	r0, 800320e <I2C_RequestMemoryRead+0x66>
 800320a:	2001      	movs	r0, #1
 800320c:	e7ee      	b.n	80031ec <I2C_RequestMemoryRead+0x44>
 800320e:	6823      	ldr	r3, [r4, #0]
 8003210:	9003      	str	r0, [sp, #12]
 8003212:	695a      	ldr	r2, [r3, #20]
 8003214:	9203      	str	r2, [sp, #12]
 8003216:	699b      	ldr	r3, [r3, #24]
 8003218:	9303      	str	r3, [sp, #12]
 800321a:	4642      	mov	r2, r8
 800321c:	4639      	mov	r1, r7
 800321e:	4620      	mov	r0, r4
 8003220:	9b03      	ldr	r3, [sp, #12]
 8003222:	f7ff ff42 	bl	80030aa <I2C_WaitOnTXEFlagUntilTimeout>
 8003226:	b140      	cbz	r0, 800323a <I2C_RequestMemoryRead+0x92>
 8003228:	6c23      	ldr	r3, [r4, #64]	; 0x40
 800322a:	2b04      	cmp	r3, #4
 800322c:	bf01      	itttt	eq
 800322e:	6822      	ldreq	r2, [r4, #0]
 8003230:	6813      	ldreq	r3, [r2, #0]
 8003232:	f443 7300 	orreq.w	r3, r3, #512	; 0x200
 8003236:	6013      	streq	r3, [r2, #0]
 8003238:	e7e7      	b.n	800320a <I2C_RequestMemoryRead+0x62>
 800323a:	f1ba 0f01 	cmp.w	sl, #1
 800323e:	6823      	ldr	r3, [r4, #0]
 8003240:	d11a      	bne.n	8003278 <I2C_RequestMemoryRead+0xd0>
 8003242:	b2ed      	uxtb	r5, r5
 8003244:	4642      	mov	r2, r8
 8003246:	611d      	str	r5, [r3, #16]
 8003248:	4639      	mov	r1, r7
 800324a:	4620      	mov	r0, r4
 800324c:	f7ff ff2d 	bl	80030aa <I2C_WaitOnTXEFlagUntilTimeout>
 8003250:	4602      	mov	r2, r0
 8003252:	2800      	cmp	r0, #0
 8003254:	d1e8      	bne.n	8003228 <I2C_RequestMemoryRead+0x80>
 8003256:	6821      	ldr	r1, [r4, #0]
 8003258:	680b      	ldr	r3, [r1, #0]
 800325a:	f443 7380 	orr.w	r3, r3, #256	; 0x100
 800325e:	600b      	str	r3, [r1, #0]
 8003260:	4620      	mov	r0, r4
 8003262:	f8cd 8000 	str.w	r8, [sp]
 8003266:	463b      	mov	r3, r7
 8003268:	f04f 1101 	mov.w	r1, #65537	; 0x10001
 800326c:	f7ff fe81 	bl	8002f72 <I2C_WaitOnFlagUntilTimeout>
 8003270:	6822      	ldr	r2, [r4, #0]
 8003272:	b160      	cbz	r0, 800328e <I2C_RequestMemoryRead+0xe6>
 8003274:	6813      	ldr	r3, [r2, #0]
 8003276:	e7b3      	b.n	80031e0 <I2C_RequestMemoryRead+0x38>
 8003278:	0a2a      	lsrs	r2, r5, #8
 800327a:	611a      	str	r2, [r3, #16]
 800327c:	4639      	mov	r1, r7
 800327e:	4642      	mov	r2, r8
 8003280:	4620      	mov	r0, r4
 8003282:	f7ff ff12 	bl	80030aa <I2C_WaitOnTXEFlagUntilTimeout>
 8003286:	2800      	cmp	r0, #0
 8003288:	d1ce      	bne.n	8003228 <I2C_RequestMemoryRead+0x80>
 800328a:	6823      	ldr	r3, [r4, #0]
 800328c:	e7d9      	b.n	8003242 <I2C_RequestMemoryRead+0x9a>
 800328e:	f049 0301 	orr.w	r3, r9, #1
 8003292:	6113      	str	r3, [r2, #16]
 8003294:	4904      	ldr	r1, [pc, #16]	; (80032a8 <I2C_RequestMemoryRead+0x100>)
 8003296:	4643      	mov	r3, r8
 8003298:	463a      	mov	r2, r7
 800329a:	4620      	mov	r0, r4
 800329c:	f7ff fe9b 	bl	8002fd6 <I2C_WaitOnMasterAddressFlagUntilTimeout>
 80032a0:	3800      	subs	r0, #0
 80032a2:	bf18      	it	ne
 80032a4:	2001      	movne	r0, #1
 80032a6:	e7a1      	b.n	80031ec <I2C_RequestMemoryRead+0x44>
 80032a8:	00010002 	.word	0x00010002

080032ac <I2C_WaitOnBTFFlagUntilTimeout>:
 80032ac:	b570      	push	{r4, r5, r6, lr}
 80032ae:	4604      	mov	r4, r0
 80032b0:	460d      	mov	r5, r1
 80032b2:	4616      	mov	r6, r2
 80032b4:	6823      	ldr	r3, [r4, #0]
 80032b6:	695b      	ldr	r3, [r3, #20]
 80032b8:	075b      	lsls	r3, r3, #29
 80032ba:	d501      	bpl.n	80032c0 <I2C_WaitOnBTFFlagUntilTimeout+0x14>
 80032bc:	2000      	movs	r0, #0
 80032be:	bd70      	pop	{r4, r5, r6, pc}
 80032c0:	4620      	mov	r0, r4
 80032c2:	f7ff fe3c 	bl	8002f3e <I2C_IsAcknowledgeFailed>
 80032c6:	b9a8      	cbnz	r0, 80032f4 <I2C_WaitOnBTFFlagUntilTimeout+0x48>
 80032c8:	1c6a      	adds	r2, r5, #1
 80032ca:	d0f3      	beq.n	80032b4 <I2C_WaitOnBTFFlagUntilTimeout+0x8>
 80032cc:	f7fe fe00 	bl	8001ed0 <HAL_GetTick>
 80032d0:	1b80      	subs	r0, r0, r6
 80032d2:	42a8      	cmp	r0, r5
 80032d4:	d801      	bhi.n	80032da <I2C_WaitOnBTFFlagUntilTimeout+0x2e>
 80032d6:	2d00      	cmp	r5, #0
 80032d8:	d1ec      	bne.n	80032b4 <I2C_WaitOnBTFFlagUntilTimeout+0x8>
 80032da:	2300      	movs	r3, #0
 80032dc:	2220      	movs	r2, #32
 80032de:	6323      	str	r3, [r4, #48]	; 0x30
 80032e0:	f884 203d 	strb.w	r2, [r4, #61]	; 0x3d
 80032e4:	f884 303e 	strb.w	r3, [r4, #62]	; 0x3e
 80032e8:	6c22      	ldr	r2, [r4, #64]	; 0x40
 80032ea:	f884 303c 	strb.w	r3, [r4, #60]	; 0x3c
 80032ee:	f042 0220 	orr.w	r2, r2, #32
 80032f2:	6422      	str	r2, [r4, #64]	; 0x40
 80032f4:	2001      	movs	r0, #1
 80032f6:	e7e2      	b.n	80032be <I2C_WaitOnBTFFlagUntilTimeout+0x12>

080032f8 <HAL_I2C_Init>:
 80032f8:	b570      	push	{r4, r5, r6, lr}
 80032fa:	4604      	mov	r4, r0
 80032fc:	b908      	cbnz	r0, 8003302 <HAL_I2C_Init+0xa>
 80032fe:	2001      	movs	r0, #1
 8003300:	bd70      	pop	{r4, r5, r6, pc}
 8003302:	f890 303d 	ldrb.w	r3, [r0, #61]	; 0x3d
 8003306:	f003 02ff 	and.w	r2, r3, #255	; 0xff
 800330a:	b91b      	cbnz	r3, 8003314 <HAL_I2C_Init+0x1c>
 800330c:	f880 203c 	strb.w	r2, [r0, #60]	; 0x3c
 8003310:	f7fd fed2 	bl	80010b8 <HAL_I2C_MspInit>
 8003314:	2324      	movs	r3, #36	; 0x24
 8003316:	f884 303d 	strb.w	r3, [r4, #61]	; 0x3d
 800331a:	6823      	ldr	r3, [r4, #0]
 800331c:	681a      	ldr	r2, [r3, #0]
 800331e:	f022 0201 	bic.w	r2, r2, #1
 8003322:	601a      	str	r2, [r3, #0]
 8003324:	681a      	ldr	r2, [r3, #0]
 8003326:	f442 4200 	orr.w	r2, r2, #32768	; 0x8000
 800332a:	601a      	str	r2, [r3, #0]
 800332c:	681a      	ldr	r2, [r3, #0]
 800332e:	f422 4200 	bic.w	r2, r2, #32768	; 0x8000
 8003332:	601a      	str	r2, [r3, #0]
 8003334:	f001 faa4 	bl	8004880 <HAL_RCC_GetPCLK1Freq>
 8003338:	4b3f      	ldr	r3, [pc, #252]	; (8003438 <HAL_I2C_Init+0x140>)
 800333a:	6865      	ldr	r5, [r4, #4]
 800333c:	429d      	cmp	r5, r3
 800333e:	bf94      	ite	ls
 8003340:	4b3e      	ldrls	r3, [pc, #248]	; (800343c <HAL_I2C_Init+0x144>)
 8003342:	4b3f      	ldrhi	r3, [pc, #252]	; (8003440 <HAL_I2C_Init+0x148>)
 8003344:	4298      	cmp	r0, r3
 8003346:	bf8c      	ite	hi
 8003348:	2300      	movhi	r3, #0
 800334a:	2301      	movls	r3, #1
 800334c:	2b00      	cmp	r3, #0
 800334e:	d1d6      	bne.n	80032fe <HAL_I2C_Init+0x6>
 8003350:	6822      	ldr	r2, [r4, #0]
 8003352:	4e39      	ldr	r6, [pc, #228]	; (8003438 <HAL_I2C_Init+0x140>)
 8003354:	6851      	ldr	r1, [r2, #4]
 8003356:	4b3b      	ldr	r3, [pc, #236]	; (8003444 <HAL_I2C_Init+0x14c>)
 8003358:	fbb0 f3f3 	udiv	r3, r0, r3
 800335c:	f021 013f 	bic.w	r1, r1, #63	; 0x3f
 8003360:	4319      	orrs	r1, r3
 8003362:	42b5      	cmp	r5, r6
 8003364:	6051      	str	r1, [r2, #4]
 8003366:	bf88      	it	hi
 8003368:	f44f 7696 	movhi.w	r6, #300	; 0x12c
 800336c:	6a11      	ldr	r1, [r2, #32]
 800336e:	bf88      	it	hi
 8003370:	4373      	mulhi	r3, r6
 8003372:	f021 013f 	bic.w	r1, r1, #63	; 0x3f
 8003376:	bf84      	itt	hi
 8003378:	f44f 767a 	movhi.w	r6, #1000	; 0x3e8
 800337c:	fbb3 f3f6 	udivhi	r3, r3, r6
 8003380:	3301      	adds	r3, #1
 8003382:	430b      	orrs	r3, r1
 8003384:	6213      	str	r3, [r2, #32]
 8003386:	69d1      	ldr	r1, [r2, #28]
 8003388:	1e43      	subs	r3, r0, #1
 800338a:	482b      	ldr	r0, [pc, #172]	; (8003438 <HAL_I2C_Init+0x140>)
 800338c:	f421 414f 	bic.w	r1, r1, #52992	; 0xcf00
 8003390:	4285      	cmp	r5, r0
 8003392:	f021 01ff 	bic.w	r1, r1, #255	; 0xff
 8003396:	d832      	bhi.n	80033fe <HAL_I2C_Init+0x106>
 8003398:	006d      	lsls	r5, r5, #1
 800339a:	f640 70fc 	movw	r0, #4092	; 0xffc
 800339e:	fbb3 f3f5 	udiv	r3, r3, r5
 80033a2:	3301      	adds	r3, #1
 80033a4:	4203      	tst	r3, r0
 80033a6:	d042      	beq.n	800342e <HAL_I2C_Init+0x136>
 80033a8:	f3c3 030b 	ubfx	r3, r3, #0, #12
 80033ac:	4319      	orrs	r1, r3
 80033ae:	61d1      	str	r1, [r2, #28]
 80033b0:	e9d4 3007 	ldrd	r3, r0, [r4, #28]
 80033b4:	6811      	ldr	r1, [r2, #0]
 80033b6:	4303      	orrs	r3, r0
 80033b8:	f021 01c0 	bic.w	r1, r1, #192	; 0xc0
 80033bc:	430b      	orrs	r3, r1
 80033be:	6013      	str	r3, [r2, #0]
 80033c0:	6891      	ldr	r1, [r2, #8]
 80033c2:	e9d4 0303 	ldrd	r0, r3, [r4, #12]
 80033c6:	f421 4103 	bic.w	r1, r1, #33536	; 0x8300
 80033ca:	4303      	orrs	r3, r0
 80033cc:	f021 01ff 	bic.w	r1, r1, #255	; 0xff
 80033d0:	430b      	orrs	r3, r1
 80033d2:	6093      	str	r3, [r2, #8]
 80033d4:	e9d4 3005 	ldrd	r3, r0, [r4, #20]
 80033d8:	68d1      	ldr	r1, [r2, #12]
 80033da:	4303      	orrs	r3, r0
 80033dc:	f021 01ff 	bic.w	r1, r1, #255	; 0xff
 80033e0:	430b      	orrs	r3, r1
 80033e2:	60d3      	str	r3, [r2, #12]
 80033e4:	6813      	ldr	r3, [r2, #0]
 80033e6:	f043 0301 	orr.w	r3, r3, #1
 80033ea:	6013      	str	r3, [r2, #0]
 80033ec:	2000      	movs	r0, #0
 80033ee:	2320      	movs	r3, #32
 80033f0:	6420      	str	r0, [r4, #64]	; 0x40
 80033f2:	f884 303d 	strb.w	r3, [r4, #61]	; 0x3d
 80033f6:	6320      	str	r0, [r4, #48]	; 0x30
 80033f8:	f884 003e 	strb.w	r0, [r4, #62]	; 0x3e
 80033fc:	e780      	b.n	8003300 <HAL_I2C_Init+0x8>
 80033fe:	68a0      	ldr	r0, [r4, #8]
 8003400:	b950      	cbnz	r0, 8003418 <HAL_I2C_Init+0x120>
 8003402:	eb05 0545 	add.w	r5, r5, r5, lsl #1
 8003406:	fbb3 f3f5 	udiv	r3, r3, r5
 800340a:	3301      	adds	r3, #1
 800340c:	f3c3 030b 	ubfx	r3, r3, #0, #12
 8003410:	b17b      	cbz	r3, 8003432 <HAL_I2C_Init+0x13a>
 8003412:	f443 4300 	orr.w	r3, r3, #32768	; 0x8000
 8003416:	e7c9      	b.n	80033ac <HAL_I2C_Init+0xb4>
 8003418:	2019      	movs	r0, #25
 800341a:	4368      	muls	r0, r5
 800341c:	fbb3 f3f0 	udiv	r3, r3, r0
 8003420:	3301      	adds	r3, #1
 8003422:	f3c3 030b 	ubfx	r3, r3, #0, #12
 8003426:	b123      	cbz	r3, 8003432 <HAL_I2C_Init+0x13a>
 8003428:	f443 4340 	orr.w	r3, r3, #49152	; 0xc000
 800342c:	e7be      	b.n	80033ac <HAL_I2C_Init+0xb4>
 800342e:	2304      	movs	r3, #4
 8003430:	e7bc      	b.n	80033ac <HAL_I2C_Init+0xb4>
 8003432:	2301      	movs	r3, #1
 8003434:	e7ba      	b.n	80033ac <HAL_I2C_Init+0xb4>
 8003436:	bf00      	nop
 8003438:	000186a0 	.word	0x000186a0
 800343c:	001e847f 	.word	0x001e847f
 8003440:	003d08ff 	.word	0x003d08ff
 8003444:	000f4240 	.word	0x000f4240

08003448 <HAL_I2C_DeInit>:
 8003448:	b510      	push	{r4, lr}
 800344a:	4604      	mov	r4, r0
 800344c:	b198      	cbz	r0, 8003476 <HAL_I2C_DeInit+0x2e>
 800344e:	6802      	ldr	r2, [r0, #0]
 8003450:	2324      	movs	r3, #36	; 0x24
 8003452:	f880 303d 	strb.w	r3, [r0, #61]	; 0x3d
 8003456:	6813      	ldr	r3, [r2, #0]
 8003458:	f023 0301 	bic.w	r3, r3, #1
 800345c:	6013      	str	r3, [r2, #0]
 800345e:	f7fd fe7d 	bl	800115c <HAL_I2C_MspDeInit>
 8003462:	2000      	movs	r0, #0
 8003464:	6420      	str	r0, [r4, #64]	; 0x40
 8003466:	f884 003c 	strb.w	r0, [r4, #60]	; 0x3c
 800346a:	f884 003d 	strb.w	r0, [r4, #61]	; 0x3d
 800346e:	6320      	str	r0, [r4, #48]	; 0x30
 8003470:	f884 003e 	strb.w	r0, [r4, #62]	; 0x3e
 8003474:	bd10      	pop	{r4, pc}
 8003476:	2001      	movs	r0, #1
 8003478:	e7fc      	b.n	8003474 <HAL_I2C_DeInit+0x2c>
	...

0800347c <HAL_I2C_Master_Transmit>:
 800347c:	e92d 43f0 	stmdb	sp!, {r4, r5, r6, r7, r8, r9, lr}
 8003480:	4604      	mov	r4, r0
 8003482:	b085      	sub	sp, #20
 8003484:	4698      	mov	r8, r3
 8003486:	9f0c      	ldr	r7, [sp, #48]	; 0x30
 8003488:	460d      	mov	r5, r1
 800348a:	4691      	mov	r9, r2
 800348c:	f7fe fd20 	bl	8001ed0 <HAL_GetTick>
 8003490:	f894 303d 	ldrb.w	r3, [r4, #61]	; 0x3d
 8003494:	2b20      	cmp	r3, #32
 8003496:	4606      	mov	r6, r0
 8003498:	d004      	beq.n	80034a4 <HAL_I2C_Master_Transmit+0x28>
 800349a:	2502      	movs	r5, #2
 800349c:	4628      	mov	r0, r5
 800349e:	b005      	add	sp, #20
 80034a0:	e8bd 83f0 	ldmia.w	sp!, {r4, r5, r6, r7, r8, r9, pc}
 80034a4:	9000      	str	r0, [sp, #0]
 80034a6:	495d      	ldr	r1, [pc, #372]	; (800361c <HAL_I2C_Master_Transmit+0x1a0>)
 80034a8:	2319      	movs	r3, #25
 80034aa:	2201      	movs	r2, #1
 80034ac:	4620      	mov	r0, r4
 80034ae:	f7ff fd60 	bl	8002f72 <I2C_WaitOnFlagUntilTimeout>
 80034b2:	2800      	cmp	r0, #0
 80034b4:	d1f1      	bne.n	800349a <HAL_I2C_Master_Transmit+0x1e>
 80034b6:	f894 303c 	ldrb.w	r3, [r4, #60]	; 0x3c
 80034ba:	2b01      	cmp	r3, #1
 80034bc:	d0ed      	beq.n	800349a <HAL_I2C_Master_Transmit+0x1e>
 80034be:	6821      	ldr	r1, [r4, #0]
 80034c0:	2301      	movs	r3, #1
 80034c2:	f884 303c 	strb.w	r3, [r4, #60]	; 0x3c
 80034c6:	680b      	ldr	r3, [r1, #0]
 80034c8:	07da      	lsls	r2, r3, #31
 80034ca:	bf5e      	ittt	pl
 80034cc:	680b      	ldrpl	r3, [r1, #0]
 80034ce:	f043 0301 	orrpl.w	r3, r3, #1
 80034d2:	600b      	strpl	r3, [r1, #0]
 80034d4:	680b      	ldr	r3, [r1, #0]
 80034d6:	f423 6300 	bic.w	r3, r3, #2048	; 0x800
 80034da:	600b      	str	r3, [r1, #0]
 80034dc:	2321      	movs	r3, #33	; 0x21
 80034de:	f884 303d 	strb.w	r3, [r4, #61]	; 0x3d
 80034e2:	2310      	movs	r3, #16
 80034e4:	f884 303e 	strb.w	r3, [r4, #62]	; 0x3e
 80034e8:	2300      	movs	r3, #0
 80034ea:	6423      	str	r3, [r4, #64]	; 0x40
 80034ec:	f8a4 802a 	strh.w	r8, [r4, #42]	; 0x2a
 80034f0:	8d63      	ldrh	r3, [r4, #42]	; 0x2a
 80034f2:	8523      	strh	r3, [r4, #40]	; 0x28
 80034f4:	4b4a      	ldr	r3, [pc, #296]	; (8003620 <HAL_I2C_Master_Transmit+0x1a4>)
 80034f6:	62e3      	str	r3, [r4, #44]	; 0x2c
 80034f8:	6ae3      	ldr	r3, [r4, #44]	; 0x2c
 80034fa:	f8c4 9024 	str.w	r9, [r4, #36]	; 0x24
 80034fe:	2b08      	cmp	r3, #8
 8003500:	d004      	beq.n	800350c <HAL_I2C_Master_Transmit+0x90>
 8003502:	2b01      	cmp	r3, #1
 8003504:	d002      	beq.n	800350c <HAL_I2C_Master_Transmit+0x90>
 8003506:	f513 3f80 	cmn.w	r3, #65536	; 0x10000
 800350a:	d104      	bne.n	8003516 <HAL_I2C_Master_Transmit+0x9a>
 800350c:	680b      	ldr	r3, [r1, #0]
 800350e:	f443 7380 	orr.w	r3, r3, #256	; 0x100
 8003512:	600b      	str	r3, [r1, #0]
 8003514:	e002      	b.n	800351c <HAL_I2C_Master_Transmit+0xa0>
 8003516:	6b23      	ldr	r3, [r4, #48]	; 0x30
 8003518:	2b12      	cmp	r3, #18
 800351a:	d0f7      	beq.n	800350c <HAL_I2C_Master_Transmit+0x90>
 800351c:	2200      	movs	r2, #0
 800351e:	9600      	str	r6, [sp, #0]
 8003520:	463b      	mov	r3, r7
 8003522:	f04f 1101 	mov.w	r1, #65537	; 0x10001
 8003526:	4620      	mov	r0, r4
 8003528:	f7ff fd23 	bl	8002f72 <I2C_WaitOnFlagUntilTimeout>
 800352c:	6822      	ldr	r2, [r4, #0]
 800352e:	b138      	cbz	r0, 8003540 <HAL_I2C_Master_Transmit+0xc4>
 8003530:	6813      	ldr	r3, [r2, #0]
 8003532:	05db      	lsls	r3, r3, #23
 8003534:	bf44      	itt	mi
 8003536:	f44f 7300 	movmi.w	r3, #512	; 0x200
 800353a:	6423      	strmi	r3, [r4, #64]	; 0x40
 800353c:	2501      	movs	r5, #1
 800353e:	e7ad      	b.n	800349c <HAL_I2C_Master_Transmit+0x20>
 8003540:	6923      	ldr	r3, [r4, #16]
 8003542:	f5b3 4f80 	cmp.w	r3, #16384	; 0x4000
 8003546:	d121      	bne.n	800358c <HAL_I2C_Master_Transmit+0x110>
 8003548:	f005 05fe 	and.w	r5, r5, #254	; 0xfe
 800354c:	6115      	str	r5, [r2, #16]
 800354e:	4935      	ldr	r1, [pc, #212]	; (8003624 <HAL_I2C_Master_Transmit+0x1a8>)
 8003550:	4633      	mov	r3, r6
 8003552:	463a      	mov	r2, r7
 8003554:	4620      	mov	r0, r4
 8003556:	f7ff fd3e 	bl	8002fd6 <I2C_WaitOnMasterAddressFlagUntilTimeout>
 800355a:	4605      	mov	r5, r0
 800355c:	2800      	cmp	r0, #0
 800355e:	d1ed      	bne.n	800353c <HAL_I2C_Master_Transmit+0xc0>
 8003560:	6823      	ldr	r3, [r4, #0]
 8003562:	9003      	str	r0, [sp, #12]
 8003564:	695a      	ldr	r2, [r3, #20]
 8003566:	9203      	str	r2, [sp, #12]
 8003568:	699b      	ldr	r3, [r3, #24]
 800356a:	9303      	str	r3, [sp, #12]
 800356c:	9b03      	ldr	r3, [sp, #12]
 800356e:	8d23      	ldrh	r3, [r4, #40]	; 0x28
 8003570:	b9f3      	cbnz	r3, 80035b0 <HAL_I2C_Master_Transmit+0x134>
 8003572:	6821      	ldr	r1, [r4, #0]
 8003574:	680a      	ldr	r2, [r1, #0]
 8003576:	f442 7200 	orr.w	r2, r2, #512	; 0x200
 800357a:	600a      	str	r2, [r1, #0]
 800357c:	2220      	movs	r2, #32
 800357e:	f884 203d 	strb.w	r2, [r4, #61]	; 0x3d
 8003582:	f884 303c 	strb.w	r3, [r4, #60]	; 0x3c
 8003586:	f884 303e 	strb.w	r3, [r4, #62]	; 0x3e
 800358a:	e787      	b.n	800349c <HAL_I2C_Master_Transmit+0x20>
 800358c:	11eb      	asrs	r3, r5, #7
 800358e:	f003 0306 	and.w	r3, r3, #6
 8003592:	f043 03f0 	orr.w	r3, r3, #240	; 0xf0
 8003596:	6113      	str	r3, [r2, #16]
 8003598:	4923      	ldr	r1, [pc, #140]	; (8003628 <HAL_I2C_Master_Transmit+0x1ac>)
 800359a:	4633      	mov	r3, r6
 800359c:	463a      	mov	r2, r7
 800359e:	4620      	mov	r0, r4
 80035a0:	f7ff fd19 	bl	8002fd6 <I2C_WaitOnMasterAddressFlagUntilTimeout>
 80035a4:	2800      	cmp	r0, #0
 80035a6:	d1c9      	bne.n	800353c <HAL_I2C_Master_Transmit+0xc0>
 80035a8:	6823      	ldr	r3, [r4, #0]
 80035aa:	b2ed      	uxtb	r5, r5
 80035ac:	611d      	str	r5, [r3, #16]
 80035ae:	e7ce      	b.n	800354e <HAL_I2C_Master_Transmit+0xd2>
 80035b0:	4632      	mov	r2, r6
 80035b2:	4639      	mov	r1, r7
 80035b4:	4620      	mov	r0, r4
 80035b6:	f7ff fd78 	bl	80030aa <I2C_WaitOnTXEFlagUntilTimeout>
 80035ba:	b140      	cbz	r0, 80035ce <HAL_I2C_Master_Transmit+0x152>
 80035bc:	6c23      	ldr	r3, [r4, #64]	; 0x40
 80035be:	2b04      	cmp	r3, #4
 80035c0:	d1bc      	bne.n	800353c <HAL_I2C_Master_Transmit+0xc0>
 80035c2:	6822      	ldr	r2, [r4, #0]
 80035c4:	6813      	ldr	r3, [r2, #0]
 80035c6:	f443 7300 	orr.w	r3, r3, #512	; 0x200
 80035ca:	6013      	str	r3, [r2, #0]
 80035cc:	e7b6      	b.n	800353c <HAL_I2C_Master_Transmit+0xc0>
 80035ce:	6a63      	ldr	r3, [r4, #36]	; 0x24
 80035d0:	6820      	ldr	r0, [r4, #0]
 80035d2:	461a      	mov	r2, r3
 80035d4:	f812 1b01 	ldrb.w	r1, [r2], #1
 80035d8:	6101      	str	r1, [r0, #16]
 80035da:	6262      	str	r2, [r4, #36]	; 0x24
 80035dc:	8d62      	ldrh	r2, [r4, #42]	; 0x2a
 80035de:	3a01      	subs	r2, #1
 80035e0:	b292      	uxth	r2, r2
 80035e2:	8562      	strh	r2, [r4, #42]	; 0x2a
 80035e4:	8d22      	ldrh	r2, [r4, #40]	; 0x28
 80035e6:	f8d0 c014 	ldr.w	ip, [r0, #20]
 80035ea:	1e51      	subs	r1, r2, #1
 80035ec:	b289      	uxth	r1, r1
 80035ee:	f01c 0f04 	tst.w	ip, #4
 80035f2:	8521      	strh	r1, [r4, #40]	; 0x28
 80035f4:	d00a      	beq.n	800360c <HAL_I2C_Master_Transmit+0x190>
 80035f6:	b149      	cbz	r1, 800360c <HAL_I2C_Master_Transmit+0x190>
 80035f8:	7859      	ldrb	r1, [r3, #1]
 80035fa:	6101      	str	r1, [r0, #16]
 80035fc:	3302      	adds	r3, #2
 80035fe:	6263      	str	r3, [r4, #36]	; 0x24
 8003600:	8d63      	ldrh	r3, [r4, #42]	; 0x2a
 8003602:	3b01      	subs	r3, #1
 8003604:	b29b      	uxth	r3, r3
 8003606:	3a02      	subs	r2, #2
 8003608:	8563      	strh	r3, [r4, #42]	; 0x2a
 800360a:	8522      	strh	r2, [r4, #40]	; 0x28
 800360c:	4632      	mov	r2, r6
 800360e:	4639      	mov	r1, r7
 8003610:	4620      	mov	r0, r4
 8003612:	f7ff fe4b 	bl	80032ac <I2C_WaitOnBTFFlagUntilTimeout>
 8003616:	2800      	cmp	r0, #0
 8003618:	d0a9      	beq.n	800356e <HAL_I2C_Master_Transmit+0xf2>
 800361a:	e7cf      	b.n	80035bc <HAL_I2C_Master_Transmit+0x140>
 800361c:	00100002 	.word	0x00100002
 8003620:	ffff0000 	.word	0xffff0000
 8003624:	00010002 	.word	0x00010002
 8003628:	00010008 	.word	0x00010008

0800362c <HAL_I2C_Mem_Write>:
 800362c:	e92d 43f7 	stmdb	sp!, {r0, r1, r2, r4, r5, r6, r7, r8, r9, lr}
 8003630:	4604      	mov	r4, r0
 8003632:	4699      	mov	r9, r3
 8003634:	9e0c      	ldr	r6, [sp, #48]	; 0x30
 8003636:	460f      	mov	r7, r1
 8003638:	4690      	mov	r8, r2
 800363a:	f7fe fc49 	bl	8001ed0 <HAL_GetTick>
 800363e:	f894 303d 	ldrb.w	r3, [r4, #61]	; 0x3d
 8003642:	2b20      	cmp	r3, #32
 8003644:	4605      	mov	r5, r0
 8003646:	d003      	beq.n	8003650 <HAL_I2C_Mem_Write+0x24>
 8003648:	2002      	movs	r0, #2
 800364a:	b003      	add	sp, #12
 800364c:	e8bd 83f0 	ldmia.w	sp!, {r4, r5, r6, r7, r8, r9, pc}
 8003650:	9000      	str	r0, [sp, #0]
 8003652:	493c      	ldr	r1, [pc, #240]	; (8003744 <HAL_I2C_Mem_Write+0x118>)
 8003654:	2319      	movs	r3, #25
 8003656:	2201      	movs	r2, #1
 8003658:	4620      	mov	r0, r4
 800365a:	f7ff fc8a 	bl	8002f72 <I2C_WaitOnFlagUntilTimeout>
 800365e:	2800      	cmp	r0, #0
 8003660:	d1f2      	bne.n	8003648 <HAL_I2C_Mem_Write+0x1c>
 8003662:	f894 303c 	ldrb.w	r3, [r4, #60]	; 0x3c
 8003666:	2b01      	cmp	r3, #1
 8003668:	d0ee      	beq.n	8003648 <HAL_I2C_Mem_Write+0x1c>
 800366a:	6820      	ldr	r0, [r4, #0]
 800366c:	2301      	movs	r3, #1
 800366e:	f884 303c 	strb.w	r3, [r4, #60]	; 0x3c
 8003672:	6803      	ldr	r3, [r0, #0]
 8003674:	07d9      	lsls	r1, r3, #31
 8003676:	bf5e      	ittt	pl
 8003678:	6803      	ldrpl	r3, [r0, #0]
 800367a:	f043 0301 	orrpl.w	r3, r3, #1
 800367e:	6003      	strpl	r3, [r0, #0]
 8003680:	6803      	ldr	r3, [r0, #0]
 8003682:	f423 6300 	bic.w	r3, r3, #2048	; 0x800
 8003686:	6003      	str	r3, [r0, #0]
 8003688:	2321      	movs	r3, #33	; 0x21
 800368a:	f884 303d 	strb.w	r3, [r4, #61]	; 0x3d
 800368e:	2340      	movs	r3, #64	; 0x40
 8003690:	f884 303e 	strb.w	r3, [r4, #62]	; 0x3e
 8003694:	2300      	movs	r3, #0
 8003696:	6423      	str	r3, [r4, #64]	; 0x40
 8003698:	9b0a      	ldr	r3, [sp, #40]	; 0x28
 800369a:	6263      	str	r3, [r4, #36]	; 0x24
 800369c:	f8bd 302c 	ldrh.w	r3, [sp, #44]	; 0x2c
 80036a0:	8563      	strh	r3, [r4, #42]	; 0x2a
 80036a2:	8d63      	ldrh	r3, [r4, #42]	; 0x2a
 80036a4:	8523      	strh	r3, [r4, #40]	; 0x28
 80036a6:	4b28      	ldr	r3, [pc, #160]	; (8003748 <HAL_I2C_Mem_Write+0x11c>)
 80036a8:	62e3      	str	r3, [r4, #44]	; 0x2c
 80036aa:	e9cd 6500 	strd	r6, r5, [sp]
 80036ae:	464b      	mov	r3, r9
 80036b0:	4642      	mov	r2, r8
 80036b2:	4639      	mov	r1, r7
 80036b4:	4620      	mov	r0, r4
 80036b6:	f7ff fd1f 	bl	80030f8 <I2C_RequestMemoryWrite>
 80036ba:	2800      	cmp	r0, #0
 80036bc:	d02a      	beq.n	8003714 <HAL_I2C_Mem_Write+0xe8>
 80036be:	2001      	movs	r0, #1
 80036c0:	e7c3      	b.n	800364a <HAL_I2C_Mem_Write+0x1e>
 80036c2:	f7ff fcf2 	bl	80030aa <I2C_WaitOnTXEFlagUntilTimeout>
 80036c6:	b140      	cbz	r0, 80036da <HAL_I2C_Mem_Write+0xae>
 80036c8:	6c23      	ldr	r3, [r4, #64]	; 0x40
 80036ca:	2b04      	cmp	r3, #4
 80036cc:	bf01      	itttt	eq
 80036ce:	6822      	ldreq	r2, [r4, #0]
 80036d0:	6813      	ldreq	r3, [r2, #0]
 80036d2:	f443 7300 	orreq.w	r3, r3, #512	; 0x200
 80036d6:	6013      	streq	r3, [r2, #0]
 80036d8:	e7f1      	b.n	80036be <HAL_I2C_Mem_Write+0x92>
 80036da:	6a63      	ldr	r3, [r4, #36]	; 0x24
 80036dc:	6827      	ldr	r7, [r4, #0]
 80036de:	461a      	mov	r2, r3
 80036e0:	f812 1b01 	ldrb.w	r1, [r2], #1
 80036e4:	6139      	str	r1, [r7, #16]
 80036e6:	6262      	str	r2, [r4, #36]	; 0x24
 80036e8:	8d62      	ldrh	r2, [r4, #42]	; 0x2a
 80036ea:	8d21      	ldrh	r1, [r4, #40]	; 0x28
 80036ec:	3a01      	subs	r2, #1
 80036ee:	b292      	uxth	r2, r2
 80036f0:	8562      	strh	r2, [r4, #42]	; 0x2a
 80036f2:	697a      	ldr	r2, [r7, #20]
 80036f4:	1e48      	subs	r0, r1, #1
 80036f6:	b280      	uxth	r0, r0
 80036f8:	0752      	lsls	r2, r2, #29
 80036fa:	8520      	strh	r0, [r4, #40]	; 0x28
 80036fc:	d50a      	bpl.n	8003714 <HAL_I2C_Mem_Write+0xe8>
 80036fe:	b148      	cbz	r0, 8003714 <HAL_I2C_Mem_Write+0xe8>
 8003700:	785a      	ldrb	r2, [r3, #1]
 8003702:	613a      	str	r2, [r7, #16]
 8003704:	3302      	adds	r3, #2
 8003706:	6263      	str	r3, [r4, #36]	; 0x24
 8003708:	8d63      	ldrh	r3, [r4, #42]	; 0x2a
 800370a:	3b01      	subs	r3, #1
 800370c:	3902      	subs	r1, #2
 800370e:	b29b      	uxth	r3, r3
 8003710:	8521      	strh	r1, [r4, #40]	; 0x28
 8003712:	8563      	strh	r3, [r4, #42]	; 0x2a
 8003714:	8d23      	ldrh	r3, [r4, #40]	; 0x28
 8003716:	462a      	mov	r2, r5
 8003718:	4631      	mov	r1, r6
 800371a:	4620      	mov	r0, r4
 800371c:	2b00      	cmp	r3, #0
 800371e:	d1d0      	bne.n	80036c2 <HAL_I2C_Mem_Write+0x96>
 8003720:	f7ff fdc4 	bl	80032ac <I2C_WaitOnBTFFlagUntilTimeout>
 8003724:	2800      	cmp	r0, #0
 8003726:	d1cf      	bne.n	80036c8 <HAL_I2C_Mem_Write+0x9c>
 8003728:	6822      	ldr	r2, [r4, #0]
 800372a:	6813      	ldr	r3, [r2, #0]
 800372c:	f443 7300 	orr.w	r3, r3, #512	; 0x200
 8003730:	6013      	str	r3, [r2, #0]
 8003732:	2320      	movs	r3, #32
 8003734:	f884 303d 	strb.w	r3, [r4, #61]	; 0x3d
 8003738:	f884 003c 	strb.w	r0, [r4, #60]	; 0x3c
 800373c:	f884 003e 	strb.w	r0, [r4, #62]	; 0x3e
 8003740:	e783      	b.n	800364a <HAL_I2C_Mem_Write+0x1e>
 8003742:	bf00      	nop
 8003744:	00100002 	.word	0x00100002
 8003748:	ffff0000 	.word	0xffff0000

0800374c <HAL_I2C_Mem_Read>:
 800374c:	e92d 43f0 	stmdb	sp!, {r4, r5, r6, r7, r8, r9, lr}
 8003750:	4604      	mov	r4, r0
 8003752:	b087      	sub	sp, #28
 8003754:	4699      	mov	r9, r3
 8003756:	9f10      	ldr	r7, [sp, #64]	; 0x40
 8003758:	460d      	mov	r5, r1
 800375a:	4690      	mov	r8, r2
 800375c:	f7fe fbb8 	bl	8001ed0 <HAL_GetTick>
 8003760:	f894 303d 	ldrb.w	r3, [r4, #61]	; 0x3d
 8003764:	2b20      	cmp	r3, #32
 8003766:	4606      	mov	r6, r0
 8003768:	d004      	beq.n	8003774 <HAL_I2C_Mem_Read+0x28>
 800376a:	2502      	movs	r5, #2
 800376c:	4628      	mov	r0, r5
 800376e:	b007      	add	sp, #28
 8003770:	e8bd 83f0 	ldmia.w	sp!, {r4, r5, r6, r7, r8, r9, pc}
 8003774:	9000      	str	r0, [sp, #0]
 8003776:	4976      	ldr	r1, [pc, #472]	; (8003950 <HAL_I2C_Mem_Read+0x204>)
 8003778:	2319      	movs	r3, #25
 800377a:	2201      	movs	r2, #1
 800377c:	4620      	mov	r0, r4
 800377e:	f7ff fbf8 	bl	8002f72 <I2C_WaitOnFlagUntilTimeout>
 8003782:	2800      	cmp	r0, #0
 8003784:	d1f1      	bne.n	800376a <HAL_I2C_Mem_Read+0x1e>
 8003786:	f894 303c 	ldrb.w	r3, [r4, #60]	; 0x3c
 800378a:	2b01      	cmp	r3, #1
 800378c:	d0ed      	beq.n	800376a <HAL_I2C_Mem_Read+0x1e>
 800378e:	6820      	ldr	r0, [r4, #0]
 8003790:	2301      	movs	r3, #1
 8003792:	f884 303c 	strb.w	r3, [r4, #60]	; 0x3c
 8003796:	6803      	ldr	r3, [r0, #0]
 8003798:	07db      	lsls	r3, r3, #31
 800379a:	bf5e      	ittt	pl
 800379c:	6803      	ldrpl	r3, [r0, #0]
 800379e:	f043 0301 	orrpl.w	r3, r3, #1
 80037a2:	6003      	strpl	r3, [r0, #0]
 80037a4:	6803      	ldr	r3, [r0, #0]
 80037a6:	f423 6300 	bic.w	r3, r3, #2048	; 0x800
 80037aa:	6003      	str	r3, [r0, #0]
 80037ac:	2322      	movs	r3, #34	; 0x22
 80037ae:	f884 303d 	strb.w	r3, [r4, #61]	; 0x3d
 80037b2:	2340      	movs	r3, #64	; 0x40
 80037b4:	f884 303e 	strb.w	r3, [r4, #62]	; 0x3e
 80037b8:	2300      	movs	r3, #0
 80037ba:	6423      	str	r3, [r4, #64]	; 0x40
 80037bc:	9b0e      	ldr	r3, [sp, #56]	; 0x38
 80037be:	6263      	str	r3, [r4, #36]	; 0x24
 80037c0:	f8bd 303c 	ldrh.w	r3, [sp, #60]	; 0x3c
 80037c4:	8563      	strh	r3, [r4, #42]	; 0x2a
 80037c6:	8d63      	ldrh	r3, [r4, #42]	; 0x2a
 80037c8:	8523      	strh	r3, [r4, #40]	; 0x28
 80037ca:	4b62      	ldr	r3, [pc, #392]	; (8003954 <HAL_I2C_Mem_Read+0x208>)
 80037cc:	62e3      	str	r3, [r4, #44]	; 0x2c
 80037ce:	4629      	mov	r1, r5
 80037d0:	e9cd 7600 	strd	r7, r6, [sp]
 80037d4:	464b      	mov	r3, r9
 80037d6:	4642      	mov	r2, r8
 80037d8:	4620      	mov	r0, r4
 80037da:	f7ff fce5 	bl	80031a8 <I2C_RequestMemoryRead>
 80037de:	4605      	mov	r5, r0
 80037e0:	b108      	cbz	r0, 80037e6 <HAL_I2C_Mem_Read+0x9a>
 80037e2:	2501      	movs	r5, #1
 80037e4:	e7c2      	b.n	800376c <HAL_I2C_Mem_Read+0x20>
 80037e6:	8d22      	ldrh	r2, [r4, #40]	; 0x28
 80037e8:	6823      	ldr	r3, [r4, #0]
 80037ea:	b9b2      	cbnz	r2, 800381a <HAL_I2C_Mem_Read+0xce>
 80037ec:	9002      	str	r0, [sp, #8]
 80037ee:	695a      	ldr	r2, [r3, #20]
 80037f0:	9202      	str	r2, [sp, #8]
 80037f2:	699a      	ldr	r2, [r3, #24]
 80037f4:	9202      	str	r2, [sp, #8]
 80037f6:	9a02      	ldr	r2, [sp, #8]
 80037f8:	681a      	ldr	r2, [r3, #0]
 80037fa:	f442 7200 	orr.w	r2, r2, #512	; 0x200
 80037fe:	601a      	str	r2, [r3, #0]
 8003800:	f8df 8154 	ldr.w	r8, [pc, #340]	; 8003958 <HAL_I2C_Mem_Read+0x20c>
 8003804:	8d23      	ldrh	r3, [r4, #40]	; 0x28
 8003806:	2b00      	cmp	r3, #0
 8003808:	d12c      	bne.n	8003864 <HAL_I2C_Mem_Read+0x118>
 800380a:	2220      	movs	r2, #32
 800380c:	f884 203d 	strb.w	r2, [r4, #61]	; 0x3d
 8003810:	f884 303c 	strb.w	r3, [r4, #60]	; 0x3c
 8003814:	f884 303e 	strb.w	r3, [r4, #62]	; 0x3e
 8003818:	e7a8      	b.n	800376c <HAL_I2C_Mem_Read+0x20>
 800381a:	2a01      	cmp	r2, #1
 800381c:	d10a      	bne.n	8003834 <HAL_I2C_Mem_Read+0xe8>
 800381e:	681a      	ldr	r2, [r3, #0]
 8003820:	f422 6280 	bic.w	r2, r2, #1024	; 0x400
 8003824:	601a      	str	r2, [r3, #0]
 8003826:	9003      	str	r0, [sp, #12]
 8003828:	695a      	ldr	r2, [r3, #20]
 800382a:	9203      	str	r2, [sp, #12]
 800382c:	699a      	ldr	r2, [r3, #24]
 800382e:	9203      	str	r2, [sp, #12]
 8003830:	9a03      	ldr	r2, [sp, #12]
 8003832:	e7e1      	b.n	80037f8 <HAL_I2C_Mem_Read+0xac>
 8003834:	2a02      	cmp	r2, #2
 8003836:	d10e      	bne.n	8003856 <HAL_I2C_Mem_Read+0x10a>
 8003838:	681a      	ldr	r2, [r3, #0]
 800383a:	f422 6280 	bic.w	r2, r2, #1024	; 0x400
 800383e:	601a      	str	r2, [r3, #0]
 8003840:	681a      	ldr	r2, [r3, #0]
 8003842:	f442 6200 	orr.w	r2, r2, #2048	; 0x800
 8003846:	601a      	str	r2, [r3, #0]
 8003848:	9004      	str	r0, [sp, #16]
 800384a:	695a      	ldr	r2, [r3, #20]
 800384c:	9204      	str	r2, [sp, #16]
 800384e:	699b      	ldr	r3, [r3, #24]
 8003850:	9304      	str	r3, [sp, #16]
 8003852:	9b04      	ldr	r3, [sp, #16]
 8003854:	e7d4      	b.n	8003800 <HAL_I2C_Mem_Read+0xb4>
 8003856:	9005      	str	r0, [sp, #20]
 8003858:	695a      	ldr	r2, [r3, #20]
 800385a:	9205      	str	r2, [sp, #20]
 800385c:	699b      	ldr	r3, [r3, #24]
 800385e:	9305      	str	r3, [sp, #20]
 8003860:	9b05      	ldr	r3, [sp, #20]
 8003862:	e7cd      	b.n	8003800 <HAL_I2C_Mem_Read+0xb4>
 8003864:	2b03      	cmp	r3, #3
 8003866:	d856      	bhi.n	8003916 <HAL_I2C_Mem_Read+0x1ca>
 8003868:	2b01      	cmp	r3, #1
 800386a:	d115      	bne.n	8003898 <HAL_I2C_Mem_Read+0x14c>
 800386c:	4632      	mov	r2, r6
 800386e:	4639      	mov	r1, r7
 8003870:	4620      	mov	r0, r4
 8003872:	f7ff fbeb 	bl	800304c <I2C_WaitOnRXNEFlagUntilTimeout>
 8003876:	2800      	cmp	r0, #0
 8003878:	d1b3      	bne.n	80037e2 <HAL_I2C_Mem_Read+0x96>
 800387a:	6823      	ldr	r3, [r4, #0]
 800387c:	691a      	ldr	r2, [r3, #16]
 800387e:	6a63      	ldr	r3, [r4, #36]	; 0x24
 8003880:	701a      	strb	r2, [r3, #0]
 8003882:	6a63      	ldr	r3, [r4, #36]	; 0x24
 8003884:	3301      	adds	r3, #1
 8003886:	6263      	str	r3, [r4, #36]	; 0x24
 8003888:	8d23      	ldrh	r3, [r4, #40]	; 0x28
 800388a:	3b01      	subs	r3, #1
 800388c:	8523      	strh	r3, [r4, #40]	; 0x28
 800388e:	8d63      	ldrh	r3, [r4, #42]	; 0x2a
 8003890:	3b01      	subs	r3, #1
 8003892:	b29b      	uxth	r3, r3
 8003894:	8563      	strh	r3, [r4, #42]	; 0x2a
 8003896:	e7b5      	b.n	8003804 <HAL_I2C_Mem_Read+0xb8>
 8003898:	2b02      	cmp	r3, #2
 800389a:	9600      	str	r6, [sp, #0]
 800389c:	463b      	mov	r3, r7
 800389e:	f04f 0200 	mov.w	r2, #0
 80038a2:	4641      	mov	r1, r8
 80038a4:	4620      	mov	r0, r4
 80038a6:	d119      	bne.n	80038dc <HAL_I2C_Mem_Read+0x190>
 80038a8:	f7ff fb63 	bl	8002f72 <I2C_WaitOnFlagUntilTimeout>
 80038ac:	2800      	cmp	r0, #0
 80038ae:	d198      	bne.n	80037e2 <HAL_I2C_Mem_Read+0x96>
 80038b0:	6823      	ldr	r3, [r4, #0]
 80038b2:	681a      	ldr	r2, [r3, #0]
 80038b4:	f442 7200 	orr.w	r2, r2, #512	; 0x200
 80038b8:	601a      	str	r2, [r3, #0]
 80038ba:	691a      	ldr	r2, [r3, #16]
 80038bc:	6a63      	ldr	r3, [r4, #36]	; 0x24
 80038be:	701a      	strb	r2, [r3, #0]
 80038c0:	6a62      	ldr	r2, [r4, #36]	; 0x24
 80038c2:	1c53      	adds	r3, r2, #1
 80038c4:	6263      	str	r3, [r4, #36]	; 0x24
 80038c6:	8d23      	ldrh	r3, [r4, #40]	; 0x28
 80038c8:	3b01      	subs	r3, #1
 80038ca:	8523      	strh	r3, [r4, #40]	; 0x28
 80038cc:	8d63      	ldrh	r3, [r4, #42]	; 0x2a
 80038ce:	3b01      	subs	r3, #1
 80038d0:	b29b      	uxth	r3, r3
 80038d2:	8563      	strh	r3, [r4, #42]	; 0x2a
 80038d4:	6823      	ldr	r3, [r4, #0]
 80038d6:	691b      	ldr	r3, [r3, #16]
 80038d8:	7053      	strb	r3, [r2, #1]
 80038da:	e7d2      	b.n	8003882 <HAL_I2C_Mem_Read+0x136>
 80038dc:	f7ff fb49 	bl	8002f72 <I2C_WaitOnFlagUntilTimeout>
 80038e0:	4602      	mov	r2, r0
 80038e2:	2800      	cmp	r0, #0
 80038e4:	f47f af7d 	bne.w	80037e2 <HAL_I2C_Mem_Read+0x96>
 80038e8:	6823      	ldr	r3, [r4, #0]
 80038ea:	6819      	ldr	r1, [r3, #0]
 80038ec:	f421 6180 	bic.w	r1, r1, #1024	; 0x400
 80038f0:	6019      	str	r1, [r3, #0]
 80038f2:	6919      	ldr	r1, [r3, #16]
 80038f4:	6a63      	ldr	r3, [r4, #36]	; 0x24
 80038f6:	7019      	strb	r1, [r3, #0]
 80038f8:	6a63      	ldr	r3, [r4, #36]	; 0x24
 80038fa:	9600      	str	r6, [sp, #0]
 80038fc:	3301      	adds	r3, #1
 80038fe:	6263      	str	r3, [r4, #36]	; 0x24
 8003900:	8d23      	ldrh	r3, [r4, #40]	; 0x28
 8003902:	3b01      	subs	r3, #1
 8003904:	8523      	strh	r3, [r4, #40]	; 0x28
 8003906:	8d63      	ldrh	r3, [r4, #42]	; 0x2a
 8003908:	3b01      	subs	r3, #1
 800390a:	b29b      	uxth	r3, r3
 800390c:	8563      	strh	r3, [r4, #42]	; 0x2a
 800390e:	4641      	mov	r1, r8
 8003910:	463b      	mov	r3, r7
 8003912:	4620      	mov	r0, r4
 8003914:	e7c8      	b.n	80038a8 <HAL_I2C_Mem_Read+0x15c>
 8003916:	4632      	mov	r2, r6
 8003918:	4639      	mov	r1, r7
 800391a:	4620      	mov	r0, r4
 800391c:	f7ff fb96 	bl	800304c <I2C_WaitOnRXNEFlagUntilTimeout>
 8003920:	2800      	cmp	r0, #0
 8003922:	f47f af5e 	bne.w	80037e2 <HAL_I2C_Mem_Read+0x96>
 8003926:	6823      	ldr	r3, [r4, #0]
 8003928:	691a      	ldr	r2, [r3, #16]
 800392a:	6a63      	ldr	r3, [r4, #36]	; 0x24
 800392c:	701a      	strb	r2, [r3, #0]
 800392e:	6a62      	ldr	r2, [r4, #36]	; 0x24
 8003930:	1c53      	adds	r3, r2, #1
 8003932:	6263      	str	r3, [r4, #36]	; 0x24
 8003934:	8d23      	ldrh	r3, [r4, #40]	; 0x28
 8003936:	3b01      	subs	r3, #1
 8003938:	8523      	strh	r3, [r4, #40]	; 0x28
 800393a:	8d63      	ldrh	r3, [r4, #42]	; 0x2a
 800393c:	3b01      	subs	r3, #1
 800393e:	b29b      	uxth	r3, r3
 8003940:	8563      	strh	r3, [r4, #42]	; 0x2a
 8003942:	6823      	ldr	r3, [r4, #0]
 8003944:	6959      	ldr	r1, [r3, #20]
 8003946:	0749      	lsls	r1, r1, #29
 8003948:	f57f af5c 	bpl.w	8003804 <HAL_I2C_Mem_Read+0xb8>
 800394c:	e7c3      	b.n	80038d6 <HAL_I2C_Mem_Read+0x18a>
 800394e:	bf00      	nop
 8003950:	00100002 	.word	0x00100002
 8003954:	ffff0000 	.word	0xffff0000
 8003958:	00010004 	.word	0x00010004

0800395c <HAL_I2C_IsDeviceReady>:
 800395c:	e92d 4ff0 	stmdb	sp!, {r4, r5, r6, r7, r8, r9, sl, fp, lr}
 8003960:	4604      	mov	r4, r0
 8003962:	b085      	sub	sp, #20
 8003964:	461f      	mov	r7, r3
 8003966:	4688      	mov	r8, r1
 8003968:	4692      	mov	sl, r2
 800396a:	f7fe fab1 	bl	8001ed0 <HAL_GetTick>
 800396e:	f894 303d 	ldrb.w	r3, [r4, #61]	; 0x3d
 8003972:	2b20      	cmp	r3, #32
 8003974:	4605      	mov	r5, r0
 8003976:	d003      	beq.n	8003980 <HAL_I2C_IsDeviceReady+0x24>
 8003978:	2002      	movs	r0, #2
 800397a:	b005      	add	sp, #20
 800397c:	e8bd 8ff0 	ldmia.w	sp!, {r4, r5, r6, r7, r8, r9, sl, fp, pc}
 8003980:	9000      	str	r0, [sp, #0]
 8003982:	494c      	ldr	r1, [pc, #304]	; (8003ab4 <HAL_I2C_IsDeviceReady+0x158>)
 8003984:	2319      	movs	r3, #25
 8003986:	2201      	movs	r2, #1
 8003988:	4620      	mov	r0, r4
 800398a:	f7ff faf2 	bl	8002f72 <I2C_WaitOnFlagUntilTimeout>
 800398e:	2800      	cmp	r0, #0
 8003990:	d1f2      	bne.n	8003978 <HAL_I2C_IsDeviceReady+0x1c>
 8003992:	f894 303c 	ldrb.w	r3, [r4, #60]	; 0x3c
 8003996:	2b01      	cmp	r3, #1
 8003998:	d0ee      	beq.n	8003978 <HAL_I2C_IsDeviceReady+0x1c>
 800399a:	2301      	movs	r3, #1
 800399c:	f884 303c 	strb.w	r3, [r4, #60]	; 0x3c
 80039a0:	6823      	ldr	r3, [r4, #0]
 80039a2:	f8df b110 	ldr.w	fp, [pc, #272]	; 8003ab4 <HAL_I2C_IsDeviceReady+0x158>
 80039a6:	681a      	ldr	r2, [r3, #0]
 80039a8:	07d2      	lsls	r2, r2, #31
 80039aa:	bf5e      	ittt	pl
 80039ac:	681a      	ldrpl	r2, [r3, #0]
 80039ae:	f042 0201 	orrpl.w	r2, r2, #1
 80039b2:	601a      	strpl	r2, [r3, #0]
 80039b4:	681a      	ldr	r2, [r3, #0]
 80039b6:	f422 6200 	bic.w	r2, r2, #2048	; 0x800
 80039ba:	601a      	str	r2, [r3, #0]
 80039bc:	2324      	movs	r3, #36	; 0x24
 80039be:	f884 303d 	strb.w	r3, [r4, #61]	; 0x3d
 80039c2:	2600      	movs	r6, #0
 80039c4:	4b3c      	ldr	r3, [pc, #240]	; (8003ab8 <HAL_I2C_IsDeviceReady+0x15c>)
 80039c6:	6426      	str	r6, [r4, #64]	; 0x40
 80039c8:	f008 08fe 	and.w	r8, r8, #254	; 0xfe
 80039cc:	62e3      	str	r3, [r4, #44]	; 0x2c
 80039ce:	6822      	ldr	r2, [r4, #0]
 80039d0:	6813      	ldr	r3, [r2, #0]
 80039d2:	f443 7380 	orr.w	r3, r3, #256	; 0x100
 80039d6:	6013      	str	r3, [r2, #0]
 80039d8:	f04f 1101 	mov.w	r1, #65537	; 0x10001
 80039dc:	463b      	mov	r3, r7
 80039de:	9500      	str	r5, [sp, #0]
 80039e0:	2200      	movs	r2, #0
 80039e2:	4620      	mov	r0, r4
 80039e4:	f7ff fac5 	bl	8002f72 <I2C_WaitOnFlagUntilTimeout>
 80039e8:	6823      	ldr	r3, [r4, #0]
 80039ea:	b138      	cbz	r0, 80039fc <HAL_I2C_IsDeviceReady+0xa0>
 80039ec:	681b      	ldr	r3, [r3, #0]
 80039ee:	05db      	lsls	r3, r3, #23
 80039f0:	d502      	bpl.n	80039f8 <HAL_I2C_IsDeviceReady+0x9c>
 80039f2:	f44f 7300 	mov.w	r3, #512	; 0x200
 80039f6:	6423      	str	r3, [r4, #64]	; 0x40
 80039f8:	2003      	movs	r0, #3
 80039fa:	e7be      	b.n	800397a <HAL_I2C_IsDeviceReady+0x1e>
 80039fc:	f8c3 8010 	str.w	r8, [r3, #16]
 8003a00:	f7fe fa66 	bl	8001ed0 <HAL_GetTick>
 8003a04:	6823      	ldr	r3, [r4, #0]
 8003a06:	695a      	ldr	r2, [r3, #20]
 8003a08:	695b      	ldr	r3, [r3, #20]
 8003a0a:	4605      	mov	r5, r0
 8003a0c:	f3c2 0240 	ubfx	r2, r2, #1, #1
 8003a10:	f3c3 2380 	ubfx	r3, r3, #10, #1
 8003a14:	f04f 09a0 	mov.w	r9, #160	; 0xa0
 8003a18:	f894 103d 	ldrb.w	r1, [r4, #61]	; 0x3d
 8003a1c:	29a0      	cmp	r1, #160	; 0xa0
 8003a1e:	d001      	beq.n	8003a24 <HAL_I2C_IsDeviceReady+0xc8>
 8003a20:	4313      	orrs	r3, r2
 8003a22:	d01d      	beq.n	8003a60 <HAL_I2C_IsDeviceReady+0x104>
 8003a24:	6823      	ldr	r3, [r4, #0]
 8003a26:	f04f 0920 	mov.w	r9, #32
 8003a2a:	f884 903d 	strb.w	r9, [r4, #61]	; 0x3d
 8003a2e:	695a      	ldr	r2, [r3, #20]
 8003a30:	f012 0f02 	tst.w	r2, #2
 8003a34:	681a      	ldr	r2, [r3, #0]
 8003a36:	f442 7200 	orr.w	r2, r2, #512	; 0x200
 8003a3a:	601a      	str	r2, [r3, #0]
 8003a3c:	d025      	beq.n	8003a8a <HAL_I2C_IsDeviceReady+0x12e>
 8003a3e:	2200      	movs	r2, #0
 8003a40:	9203      	str	r2, [sp, #12]
 8003a42:	695a      	ldr	r2, [r3, #20]
 8003a44:	9203      	str	r2, [sp, #12]
 8003a46:	699b      	ldr	r3, [r3, #24]
 8003a48:	9303      	str	r3, [sp, #12]
 8003a4a:	9b03      	ldr	r3, [sp, #12]
 8003a4c:	4919      	ldr	r1, [pc, #100]	; (8003ab4 <HAL_I2C_IsDeviceReady+0x158>)
 8003a4e:	9500      	str	r5, [sp, #0]
 8003a50:	2319      	movs	r3, #25
 8003a52:	2201      	movs	r2, #1
 8003a54:	4620      	mov	r0, r4
 8003a56:	f7ff fa8c 	bl	8002f72 <I2C_WaitOnFlagUntilTimeout>
 8003a5a:	b188      	cbz	r0, 8003a80 <HAL_I2C_IsDeviceReady+0x124>
 8003a5c:	2001      	movs	r0, #1
 8003a5e:	e78c      	b.n	800397a <HAL_I2C_IsDeviceReady+0x1e>
 8003a60:	f7fe fa36 	bl	8001ed0 <HAL_GetTick>
 8003a64:	1b40      	subs	r0, r0, r5
 8003a66:	42b8      	cmp	r0, r7
 8003a68:	d800      	bhi.n	8003a6c <HAL_I2C_IsDeviceReady+0x110>
 8003a6a:	b90f      	cbnz	r7, 8003a70 <HAL_I2C_IsDeviceReady+0x114>
 8003a6c:	f884 903d 	strb.w	r9, [r4, #61]	; 0x3d
 8003a70:	6823      	ldr	r3, [r4, #0]
 8003a72:	695a      	ldr	r2, [r3, #20]
 8003a74:	695b      	ldr	r3, [r3, #20]
 8003a76:	f3c2 0240 	ubfx	r2, r2, #1, #1
 8003a7a:	f3c3 2380 	ubfx	r3, r3, #10, #1
 8003a7e:	e7cb      	b.n	8003a18 <HAL_I2C_IsDeviceReady+0xbc>
 8003a80:	f884 903d 	strb.w	r9, [r4, #61]	; 0x3d
 8003a84:	f884 003c 	strb.w	r0, [r4, #60]	; 0x3c
 8003a88:	e777      	b.n	800397a <HAL_I2C_IsDeviceReady+0x1e>
 8003a8a:	f46f 6280 	mvn.w	r2, #1024	; 0x400
 8003a8e:	615a      	str	r2, [r3, #20]
 8003a90:	4659      	mov	r1, fp
 8003a92:	9500      	str	r5, [sp, #0]
 8003a94:	2319      	movs	r3, #25
 8003a96:	2201      	movs	r2, #1
 8003a98:	4620      	mov	r0, r4
 8003a9a:	f7ff fa6a 	bl	8002f72 <I2C_WaitOnFlagUntilTimeout>
 8003a9e:	2800      	cmp	r0, #0
 8003aa0:	d1dc      	bne.n	8003a5c <HAL_I2C_IsDeviceReady+0x100>
 8003aa2:	3601      	adds	r6, #1
 8003aa4:	4556      	cmp	r6, sl
 8003aa6:	d392      	bcc.n	80039ce <HAL_I2C_IsDeviceReady+0x72>
 8003aa8:	f884 903d 	strb.w	r9, [r4, #61]	; 0x3d
 8003aac:	f884 003c 	strb.w	r0, [r4, #60]	; 0x3c
 8003ab0:	e7d4      	b.n	8003a5c <HAL_I2C_IsDeviceReady+0x100>
 8003ab2:	bf00      	nop
 8003ab4:	00100002 	.word	0x00100002
 8003ab8:	ffff0000 	.word	0xffff0000

08003abc <HAL_I2C_GetState>:
 8003abc:	f890 003d 	ldrb.w	r0, [r0, #61]	; 0x3d
 8003ac0:	4770      	bx	lr

08003ac2 <I2S_WaitFlagStateUntilTimeout>:
 8003ac2:	e92d 41f0 	stmdb	sp!, {r4, r5, r6, r7, r8, lr}
 8003ac6:	4604      	mov	r4, r0
 8003ac8:	460f      	mov	r7, r1
 8003aca:	4616      	mov	r6, r2
 8003acc:	461d      	mov	r5, r3
 8003ace:	f7fe f9ff 	bl	8001ed0 <HAL_GetTick>
 8003ad2:	4680      	mov	r8, r0
 8003ad4:	6822      	ldr	r2, [r4, #0]
 8003ad6:	6893      	ldr	r3, [r2, #8]
 8003ad8:	ea37 0303 	bics.w	r3, r7, r3
 8003adc:	bf0c      	ite	eq
 8003ade:	2301      	moveq	r3, #1
 8003ae0:	2300      	movne	r3, #0
 8003ae2:	42b3      	cmp	r3, r6
 8003ae4:	d101      	bne.n	8003aea <I2S_WaitFlagStateUntilTimeout+0x28>
 8003ae6:	2000      	movs	r0, #0
 8003ae8:	e00e      	b.n	8003b08 <I2S_WaitFlagStateUntilTimeout+0x46>
 8003aea:	1c6b      	adds	r3, r5, #1
 8003aec:	d0f3      	beq.n	8003ad6 <I2S_WaitFlagStateUntilTimeout+0x14>
 8003aee:	f7fe f9ef 	bl	8001ed0 <HAL_GetTick>
 8003af2:	eba0 0008 	sub.w	r0, r0, r8
 8003af6:	42a8      	cmp	r0, r5
 8003af8:	d3ec      	bcc.n	8003ad4 <I2S_WaitFlagStateUntilTimeout+0x12>
 8003afa:	2301      	movs	r3, #1
 8003afc:	f884 3041 	strb.w	r3, [r4, #65]	; 0x41
 8003b00:	2300      	movs	r3, #0
 8003b02:	f884 3040 	strb.w	r3, [r4, #64]	; 0x40
 8003b06:	2003      	movs	r0, #3
 8003b08:	e8bd 81f0 	ldmia.w	sp!, {r4, r5, r6, r7, r8, pc}

08003b0c <HAL_I2S_Init>:
 8003b0c:	b5f8      	push	{r3, r4, r5, r6, r7, lr}
 8003b0e:	4604      	mov	r4, r0
 8003b10:	2800      	cmp	r0, #0
 8003b12:	f000 808c 	beq.w	8003c2e <HAL_I2S_Init+0x122>
 8003b16:	f890 3041 	ldrb.w	r3, [r0, #65]	; 0x41
 8003b1a:	f003 02ff 	and.w	r2, r3, #255	; 0xff
 8003b1e:	b92b      	cbnz	r3, 8003b2c <HAL_I2S_Init+0x20>
 8003b20:	4b45      	ldr	r3, [pc, #276]	; (8003c38 <HAL_I2S_Init+0x12c>)
 8003b22:	f880 2040 	strb.w	r2, [r0, #64]	; 0x40
 8003b26:	6343      	str	r3, [r0, #52]	; 0x34
 8003b28:	f7fd fb56 	bl	80011d8 <HAL_I2S_MspInit>
 8003b2c:	6822      	ldr	r2, [r4, #0]
 8003b2e:	2102      	movs	r1, #2
 8003b30:	f884 1041 	strb.w	r1, [r4, #65]	; 0x41
 8003b34:	69d3      	ldr	r3, [r2, #28]
 8003b36:	f423 637b 	bic.w	r3, r3, #4016	; 0xfb0
 8003b3a:	f023 030f 	bic.w	r3, r3, #15
 8003b3e:	61d3      	str	r3, [r2, #28]
 8003b40:	6963      	ldr	r3, [r4, #20]
 8003b42:	6211      	str	r1, [r2, #32]
 8003b44:	428b      	cmp	r3, r1
 8003b46:	68e2      	ldr	r2, [r4, #12]
 8003b48:	d073      	beq.n	8003c32 <HAL_I2S_Init+0x126>
 8003b4a:	68a3      	ldr	r3, [r4, #8]
 8003b4c:	2a00      	cmp	r2, #0
 8003b4e:	bf0c      	ite	eq
 8003b50:	2510      	moveq	r5, #16
 8003b52:	2520      	movne	r5, #32
 8003b54:	2001      	movs	r0, #1
 8003b56:	2b20      	cmp	r3, #32
 8003b58:	bf98      	it	ls
 8003b5a:	006d      	lslls	r5, r5, #1
 8003b5c:	f000 ff74 	bl	8004a48 <HAL_RCCEx_GetPeriphCLKFreq>
 8003b60:	6923      	ldr	r3, [r4, #16]
 8003b62:	6962      	ldr	r2, [r4, #20]
 8003b64:	f5b3 7f00 	cmp.w	r3, #512	; 0x200
 8003b68:	d159      	bne.n	8003c1e <HAL_I2S_Init+0x112>
 8003b6a:	68e3      	ldr	r3, [r4, #12]
 8003b6c:	210a      	movs	r1, #10
 8003b6e:	2b00      	cmp	r3, #0
 8003b70:	d053      	beq.n	8003c1a <HAL_I2S_Init+0x10e>
 8003b72:	00ad      	lsls	r5, r5, #2
 8003b74:	fbb0 f3f5 	udiv	r3, r0, r5
 8003b78:	434b      	muls	r3, r1
 8003b7a:	fbb3 f3f2 	udiv	r3, r3, r2
 8003b7e:	220a      	movs	r2, #10
 8003b80:	3305      	adds	r3, #5
 8003b82:	fbb3 f3f2 	udiv	r3, r3, r2
 8003b86:	f003 0201 	and.w	r2, r3, #1
 8003b8a:	085b      	lsrs	r3, r3, #1
 8003b8c:	1e99      	subs	r1, r3, #2
 8003b8e:	29fd      	cmp	r1, #253	; 0xfd
 8003b90:	d849      	bhi.n	8003c26 <HAL_I2S_Init+0x11a>
 8003b92:	0212      	lsls	r2, r2, #8
 8003b94:	4313      	orrs	r3, r2
 8003b96:	6922      	ldr	r2, [r4, #16]
 8003b98:	6820      	ldr	r0, [r4, #0]
 8003b9a:	f8df c0ac 	ldr.w	ip, [pc, #172]	; 8003c48 <HAL_I2S_Init+0x13c>
 8003b9e:	68e6      	ldr	r6, [r4, #12]
 8003ba0:	69a5      	ldr	r5, [r4, #24]
 8003ba2:	4313      	orrs	r3, r2
 8003ba4:	6203      	str	r3, [r0, #32]
 8003ba6:	e9d4 2101 	ldrd	r2, r1, [r4, #4]
 8003baa:	69c3      	ldr	r3, [r0, #28]
 8003bac:	ea42 0701 	orr.w	r7, r2, r1
 8003bb0:	ea03 030c 	and.w	r3, r3, ip
 8003bb4:	433b      	orrs	r3, r7
 8003bb6:	4333      	orrs	r3, r6
 8003bb8:	432b      	orrs	r3, r5
 8003bba:	f443 6300 	orr.w	r3, r3, #2048	; 0x800
 8003bbe:	61c3      	str	r3, [r0, #28]
 8003bc0:	6a23      	ldr	r3, [r4, #32]
 8003bc2:	2b01      	cmp	r3, #1
 8003bc4:	d123      	bne.n	8003c0e <HAL_I2S_Init+0x102>
 8003bc6:	4b1d      	ldr	r3, [pc, #116]	; (8003c3c <HAL_I2S_Init+0x130>)
 8003bc8:	6363      	str	r3, [r4, #52]	; 0x34
 8003bca:	4f1d      	ldr	r7, [pc, #116]	; (8003c40 <HAL_I2S_Init+0x134>)
 8003bcc:	4b1d      	ldr	r3, [pc, #116]	; (8003c44 <HAL_I2S_Init+0x138>)
 8003bce:	4298      	cmp	r0, r3
 8003bd0:	bf18      	it	ne
 8003bd2:	f04f 2740 	movne.w	r7, #1073758208	; 0x40004000
 8003bd6:	f5b2 7f00 	cmp.w	r2, #512	; 0x200
 8003bda:	69fb      	ldr	r3, [r7, #28]
 8003bdc:	ea03 030c 	and.w	r3, r3, ip
 8003be0:	61fb      	str	r3, [r7, #28]
 8003be2:	f04f 0302 	mov.w	r3, #2
 8003be6:	623b      	str	r3, [r7, #32]
 8003be8:	bf1c      	itt	ne
 8003bea:	fab2 f382 	clzne	r3, r2
 8003bee:	095b      	lsrne	r3, r3, #5
 8003bf0:	69f8      	ldr	r0, [r7, #28]
 8003bf2:	bf14      	ite	ne
 8003bf4:	021b      	lslne	r3, r3, #8
 8003bf6:	f44f 7380 	moveq.w	r3, #256	; 0x100
 8003bfa:	4331      	orrs	r1, r6
 8003bfc:	4319      	orrs	r1, r3
 8003bfe:	b280      	uxth	r0, r0
 8003c00:	4329      	orrs	r1, r5
 8003c02:	ea40 0301 	orr.w	r3, r0, r1
 8003c06:	b29b      	uxth	r3, r3
 8003c08:	f443 6300 	orr.w	r3, r3, #2048	; 0x800
 8003c0c:	61fb      	str	r3, [r7, #28]
 8003c0e:	2000      	movs	r0, #0
 8003c10:	2301      	movs	r3, #1
 8003c12:	6460      	str	r0, [r4, #68]	; 0x44
 8003c14:	f884 3041 	strb.w	r3, [r4, #65]	; 0x41
 8003c18:	bdf8      	pop	{r3, r4, r5, r6, r7, pc}
 8003c1a:	00ed      	lsls	r5, r5, #3
 8003c1c:	e7aa      	b.n	8003b74 <HAL_I2S_Init+0x68>
 8003c1e:	210a      	movs	r1, #10
 8003c20:	fbb0 f3f5 	udiv	r3, r0, r5
 8003c24:	e7a8      	b.n	8003b78 <HAL_I2S_Init+0x6c>
 8003c26:	6c63      	ldr	r3, [r4, #68]	; 0x44
 8003c28:	f043 0310 	orr.w	r3, r3, #16
 8003c2c:	6463      	str	r3, [r4, #68]	; 0x44
 8003c2e:	2001      	movs	r0, #1
 8003c30:	e7f2      	b.n	8003c18 <HAL_I2S_Init+0x10c>
 8003c32:	2200      	movs	r2, #0
 8003c34:	e7ae      	b.n	8003b94 <HAL_I2S_Init+0x88>
 8003c36:	bf00      	nop
 8003c38:	08004027 	.word	0x08004027
 8003c3c:	08004151 	.word	0x08004151
 8003c40:	40003400 	.word	0x40003400
 8003c44:	40003800 	.word	0x40003800
 8003c48:	fffff040 	.word	0xfffff040

08003c4c <HAL_I2S_Transmit_DMA>:
 8003c4c:	b570      	push	{r4, r5, r6, lr}
 8003c4e:	4604      	mov	r4, r0
 8003c50:	2900      	cmp	r1, #0
 8003c52:	d057      	beq.n	8003d04 <HAL_I2S_Transmit_DMA+0xb8>
 8003c54:	2a00      	cmp	r2, #0
 8003c56:	d055      	beq.n	8003d04 <HAL_I2S_Transmit_DMA+0xb8>
 8003c58:	f890 3040 	ldrb.w	r3, [r0, #64]	; 0x40
 8003c5c:	2b01      	cmp	r3, #1
 8003c5e:	d00b      	beq.n	8003c78 <HAL_I2S_Transmit_DMA+0x2c>
 8003c60:	2301      	movs	r3, #1
 8003c62:	f880 3040 	strb.w	r3, [r0, #64]	; 0x40
 8003c66:	f890 3041 	ldrb.w	r3, [r0, #65]	; 0x41
 8003c6a:	2b01      	cmp	r3, #1
 8003c6c:	b2dd      	uxtb	r5, r3
 8003c6e:	f04f 0300 	mov.w	r3, #0
 8003c72:	d003      	beq.n	8003c7c <HAL_I2S_Transmit_DMA+0x30>
 8003c74:	f880 3040 	strb.w	r3, [r0, #64]	; 0x40
 8003c78:	2502      	movs	r5, #2
 8003c7a:	e02c      	b.n	8003cd6 <HAL_I2S_Transmit_DMA+0x8a>
 8003c7c:	6826      	ldr	r6, [r4, #0]
 8003c7e:	6261      	str	r1, [r4, #36]	; 0x24
 8003c80:	2003      	movs	r0, #3
 8003c82:	f884 0041 	strb.w	r0, [r4, #65]	; 0x41
 8003c86:	6463      	str	r3, [r4, #68]	; 0x44
 8003c88:	69f0      	ldr	r0, [r6, #28]
 8003c8a:	2328      	movs	r3, #40	; 0x28
 8003c8c:	f000 0007 	and.w	r0, r0, #7
 8003c90:	40c3      	lsrs	r3, r0
 8003c92:	07d8      	lsls	r0, r3, #31
 8003c94:	bf44      	itt	mi
 8003c96:	0053      	lslmi	r3, r2, #1
 8003c98:	b29b      	uxthmi	r3, r3
 8003c9a:	6ba0      	ldr	r0, [r4, #56]	; 0x38
 8003c9c:	bf44      	itt	mi
 8003c9e:	8523      	strhmi	r3, [r4, #40]	; 0x28
 8003ca0:	8563      	strhmi	r3, [r4, #42]	; 0x2a
 8003ca2:	4b19      	ldr	r3, [pc, #100]	; (8003d08 <HAL_I2S_Transmit_DMA+0xbc>)
 8003ca4:	bf5c      	itt	pl
 8003ca6:	8522      	strhpl	r2, [r4, #40]	; 0x28
 8003ca8:	8562      	strhpl	r2, [r4, #42]	; 0x2a
 8003caa:	6403      	str	r3, [r0, #64]	; 0x40
 8003cac:	4b17      	ldr	r3, [pc, #92]	; (8003d0c <HAL_I2S_Transmit_DMA+0xc0>)
 8003cae:	63c3      	str	r3, [r0, #60]	; 0x3c
 8003cb0:	4b17      	ldr	r3, [pc, #92]	; (8003d10 <HAL_I2S_Transmit_DMA+0xc4>)
 8003cb2:	64c3      	str	r3, [r0, #76]	; 0x4c
 8003cb4:	8d23      	ldrh	r3, [r4, #40]	; 0x28
 8003cb6:	f106 020c 	add.w	r2, r6, #12
 8003cba:	b29b      	uxth	r3, r3
 8003cbc:	f7fe fa46 	bl	800214c <HAL_DMA_Start_IT>
 8003cc0:	b158      	cbz	r0, 8003cda <HAL_I2S_Transmit_DMA+0x8e>
 8003cc2:	6c63      	ldr	r3, [r4, #68]	; 0x44
 8003cc4:	f043 0308 	orr.w	r3, r3, #8
 8003cc8:	6463      	str	r3, [r4, #68]	; 0x44
 8003cca:	2301      	movs	r3, #1
 8003ccc:	f884 3041 	strb.w	r3, [r4, #65]	; 0x41
 8003cd0:	2300      	movs	r3, #0
 8003cd2:	f884 3040 	strb.w	r3, [r4, #64]	; 0x40
 8003cd6:	4628      	mov	r0, r5
 8003cd8:	bd70      	pop	{r4, r5, r6, pc}
 8003cda:	6823      	ldr	r3, [r4, #0]
 8003cdc:	69da      	ldr	r2, [r3, #28]
 8003cde:	0551      	lsls	r1, r2, #21
 8003ce0:	bf5e      	ittt	pl
 8003ce2:	69da      	ldrpl	r2, [r3, #28]
 8003ce4:	f442 6280 	orrpl.w	r2, r2, #1024	; 0x400
 8003ce8:	61da      	strpl	r2, [r3, #28]
 8003cea:	685a      	ldr	r2, [r3, #4]
 8003cec:	0792      	lsls	r2, r2, #30
 8003cee:	bf58      	it	pl
 8003cf0:	685a      	ldrpl	r2, [r3, #4]
 8003cf2:	f04f 0500 	mov.w	r5, #0
 8003cf6:	bf5c      	itt	pl
 8003cf8:	f042 0202 	orrpl.w	r2, r2, #2
 8003cfc:	605a      	strpl	r2, [r3, #4]
 8003cfe:	f884 5040 	strb.w	r5, [r4, #64]	; 0x40
 8003d02:	e7e8      	b.n	8003cd6 <HAL_I2S_Transmit_DMA+0x8a>
 8003d04:	2501      	movs	r5, #1
 8003d06:	e7e6      	b.n	8003cd6 <HAL_I2S_Transmit_DMA+0x8a>
 8003d08:	08003ff9 	.word	0x08003ff9
 8003d0c:	08004003 	.word	0x08004003
 8003d10:	08004121 	.word	0x08004121

08003d14 <HAL_I2S_DMAPause>:
 8003d14:	f890 3040 	ldrb.w	r3, [r0, #64]	; 0x40
 8003d18:	2b01      	cmp	r3, #1
 8003d1a:	d02d      	beq.n	8003d78 <HAL_I2S_DMAPause+0x64>
 8003d1c:	2301      	movs	r3, #1
 8003d1e:	f880 3040 	strb.w	r3, [r0, #64]	; 0x40
 8003d22:	f890 3041 	ldrb.w	r3, [r0, #65]	; 0x41
 8003d26:	2b03      	cmp	r3, #3
 8003d28:	d109      	bne.n	8003d3e <HAL_I2S_DMAPause+0x2a>
 8003d2a:	6802      	ldr	r2, [r0, #0]
 8003d2c:	6853      	ldr	r3, [r2, #4]
 8003d2e:	f023 0302 	bic.w	r3, r3, #2
 8003d32:	6053      	str	r3, [r2, #4]
 8003d34:	2300      	movs	r3, #0
 8003d36:	f880 3040 	strb.w	r3, [r0, #64]	; 0x40
 8003d3a:	4618      	mov	r0, r3
 8003d3c:	4770      	bx	lr
 8003d3e:	f890 3041 	ldrb.w	r3, [r0, #65]	; 0x41
 8003d42:	2b04      	cmp	r3, #4
 8003d44:	d104      	bne.n	8003d50 <HAL_I2S_DMAPause+0x3c>
 8003d46:	6802      	ldr	r2, [r0, #0]
 8003d48:	6853      	ldr	r3, [r2, #4]
 8003d4a:	f023 0301 	bic.w	r3, r3, #1
 8003d4e:	e7f0      	b.n	8003d32 <HAL_I2S_DMAPause+0x1e>
 8003d50:	f890 3041 	ldrb.w	r3, [r0, #65]	; 0x41
 8003d54:	2b05      	cmp	r3, #5
 8003d56:	d1ed      	bne.n	8003d34 <HAL_I2S_DMAPause+0x20>
 8003d58:	6802      	ldr	r2, [r0, #0]
 8003d5a:	4908      	ldr	r1, [pc, #32]	; (8003d7c <HAL_I2S_DMAPause+0x68>)
 8003d5c:	6853      	ldr	r3, [r2, #4]
 8003d5e:	f023 0303 	bic.w	r3, r3, #3
 8003d62:	6053      	str	r3, [r2, #4]
 8003d64:	4b06      	ldr	r3, [pc, #24]	; (8003d80 <HAL_I2S_DMAPause+0x6c>)
 8003d66:	428a      	cmp	r2, r1
 8003d68:	bf18      	it	ne
 8003d6a:	f04f 2340 	movne.w	r3, #1073758208	; 0x40004000
 8003d6e:	685a      	ldr	r2, [r3, #4]
 8003d70:	f022 0203 	bic.w	r2, r2, #3
 8003d74:	605a      	str	r2, [r3, #4]
 8003d76:	e7dd      	b.n	8003d34 <HAL_I2S_DMAPause+0x20>
 8003d78:	2002      	movs	r0, #2
 8003d7a:	4770      	bx	lr
 8003d7c:	40003800 	.word	0x40003800
 8003d80:	40003400 	.word	0x40003400

08003d84 <HAL_I2S_DMAResume>:
 8003d84:	f890 3040 	ldrb.w	r3, [r0, #64]	; 0x40
 8003d88:	2b01      	cmp	r3, #1
 8003d8a:	d039      	beq.n	8003e00 <HAL_I2S_DMAResume+0x7c>
 8003d8c:	2301      	movs	r3, #1
 8003d8e:	f880 3040 	strb.w	r3, [r0, #64]	; 0x40
 8003d92:	f890 2041 	ldrb.w	r2, [r0, #65]	; 0x41
 8003d96:	6803      	ldr	r3, [r0, #0]
 8003d98:	2a03      	cmp	r2, #3
 8003d9a:	d10f      	bne.n	8003dbc <HAL_I2S_DMAResume+0x38>
 8003d9c:	685a      	ldr	r2, [r3, #4]
 8003d9e:	f042 0202 	orr.w	r2, r2, #2
 8003da2:	605a      	str	r2, [r3, #4]
 8003da4:	69da      	ldr	r2, [r3, #28]
 8003da6:	0552      	lsls	r2, r2, #21
 8003da8:	bf5e      	ittt	pl
 8003daa:	69da      	ldrpl	r2, [r3, #28]
 8003dac:	f442 6280 	orrpl.w	r2, r2, #1024	; 0x400
 8003db0:	61da      	strpl	r2, [r3, #28]
 8003db2:	2300      	movs	r3, #0
 8003db4:	f880 3040 	strb.w	r3, [r0, #64]	; 0x40
 8003db8:	4618      	mov	r0, r3
 8003dba:	4770      	bx	lr
 8003dbc:	f890 2041 	ldrb.w	r2, [r0, #65]	; 0x41
 8003dc0:	2a04      	cmp	r2, #4
 8003dc2:	d103      	bne.n	8003dcc <HAL_I2S_DMAResume+0x48>
 8003dc4:	685a      	ldr	r2, [r3, #4]
 8003dc6:	f042 0201 	orr.w	r2, r2, #1
 8003dca:	e7ea      	b.n	8003da2 <HAL_I2S_DMAResume+0x1e>
 8003dcc:	f890 2041 	ldrb.w	r2, [r0, #65]	; 0x41
 8003dd0:	2a05      	cmp	r2, #5
 8003dd2:	d1e7      	bne.n	8003da4 <HAL_I2S_DMAResume+0x20>
 8003dd4:	685a      	ldr	r2, [r3, #4]
 8003dd6:	490b      	ldr	r1, [pc, #44]	; (8003e04 <HAL_I2S_DMAResume+0x80>)
 8003dd8:	f042 0203 	orr.w	r2, r2, #3
 8003ddc:	605a      	str	r2, [r3, #4]
 8003dde:	4a0a      	ldr	r2, [pc, #40]	; (8003e08 <HAL_I2S_DMAResume+0x84>)
 8003de0:	428b      	cmp	r3, r1
 8003de2:	bf18      	it	ne
 8003de4:	f04f 2240 	movne.w	r2, #1073758208	; 0x40004000
 8003de8:	6851      	ldr	r1, [r2, #4]
 8003dea:	f041 0103 	orr.w	r1, r1, #3
 8003dee:	6051      	str	r1, [r2, #4]
 8003df0:	69d1      	ldr	r1, [r2, #28]
 8003df2:	0549      	lsls	r1, r1, #21
 8003df4:	bf5e      	ittt	pl
 8003df6:	69d1      	ldrpl	r1, [r2, #28]
 8003df8:	f441 6180 	orrpl.w	r1, r1, #1024	; 0x400
 8003dfc:	61d1      	strpl	r1, [r2, #28]
 8003dfe:	e7d1      	b.n	8003da4 <HAL_I2S_DMAResume+0x20>
 8003e00:	2002      	movs	r0, #2
 8003e02:	4770      	bx	lr
 8003e04:	40003800 	.word	0x40003800
 8003e08:	40003400 	.word	0x40003400

08003e0c <HAL_I2S_DMAStop>:
 8003e0c:	e92d 43f0 	stmdb	sp!, {r4, r5, r6, r7, r8, r9, lr}
 8003e10:	6843      	ldr	r3, [r0, #4]
 8003e12:	f433 7300 	bics.w	r3, r3, #512	; 0x200
 8003e16:	b085      	sub	sp, #20
 8003e18:	4604      	mov	r4, r0
 8003e1a:	d16c      	bne.n	8003ef6 <HAL_I2S_DMAStop+0xea>
 8003e1c:	6b80      	ldr	r0, [r0, #56]	; 0x38
 8003e1e:	2800      	cmp	r0, #0
 8003e20:	d15f      	bne.n	8003ee2 <HAL_I2S_DMAStop+0xd6>
 8003e22:	2500      	movs	r5, #0
 8003e24:	2364      	movs	r3, #100	; 0x64
 8003e26:	2201      	movs	r2, #1
 8003e28:	2102      	movs	r1, #2
 8003e2a:	4620      	mov	r0, r4
 8003e2c:	f7ff fe49 	bl	8003ac2 <I2S_WaitFlagStateUntilTimeout>
 8003e30:	b130      	cbz	r0, 8003e40 <HAL_I2S_DMAStop+0x34>
 8003e32:	6c63      	ldr	r3, [r4, #68]	; 0x44
 8003e34:	2501      	movs	r5, #1
 8003e36:	f043 0301 	orr.w	r3, r3, #1
 8003e3a:	6463      	str	r3, [r4, #68]	; 0x44
 8003e3c:	f884 5041 	strb.w	r5, [r4, #65]	; 0x41
 8003e40:	2364      	movs	r3, #100	; 0x64
 8003e42:	2200      	movs	r2, #0
 8003e44:	2180      	movs	r1, #128	; 0x80
 8003e46:	4620      	mov	r0, r4
 8003e48:	f7ff fe3b 	bl	8003ac2 <I2S_WaitFlagStateUntilTimeout>
 8003e4c:	b130      	cbz	r0, 8003e5c <HAL_I2S_DMAStop+0x50>
 8003e4e:	6c63      	ldr	r3, [r4, #68]	; 0x44
 8003e50:	2501      	movs	r5, #1
 8003e52:	f043 0301 	orr.w	r3, r3, #1
 8003e56:	6463      	str	r3, [r4, #68]	; 0x44
 8003e58:	f884 5041 	strb.w	r5, [r4, #65]	; 0x41
 8003e5c:	6823      	ldr	r3, [r4, #0]
 8003e5e:	69da      	ldr	r2, [r3, #28]
 8003e60:	f422 6280 	bic.w	r2, r2, #1024	; 0x400
 8003e64:	61da      	str	r2, [r3, #28]
 8003e66:	2200      	movs	r2, #0
 8003e68:	9200      	str	r2, [sp, #0]
 8003e6a:	689a      	ldr	r2, [r3, #8]
 8003e6c:	9200      	str	r2, [sp, #0]
 8003e6e:	9a00      	ldr	r2, [sp, #0]
 8003e70:	685a      	ldr	r2, [r3, #4]
 8003e72:	f022 0202 	bic.w	r2, r2, #2
 8003e76:	605a      	str	r2, [r3, #4]
 8003e78:	f894 3041 	ldrb.w	r3, [r4, #65]	; 0x41
 8003e7c:	2b05      	cmp	r3, #5
 8003e7e:	d129      	bne.n	8003ed4 <HAL_I2S_DMAStop+0xc8>
 8003e80:	6be0      	ldr	r0, [r4, #60]	; 0x3c
 8003e82:	b138      	cbz	r0, 8003e94 <HAL_I2S_DMAStop+0x88>
 8003e84:	f7fe f99c 	bl	80021c0 <HAL_DMA_Abort>
 8003e88:	b120      	cbz	r0, 8003e94 <HAL_I2S_DMAStop+0x88>
 8003e8a:	6c63      	ldr	r3, [r4, #68]	; 0x44
 8003e8c:	f043 0308 	orr.w	r3, r3, #8
 8003e90:	6463      	str	r3, [r4, #68]	; 0x44
 8003e92:	2501      	movs	r5, #1
 8003e94:	6821      	ldr	r1, [r4, #0]
 8003e96:	4a56      	ldr	r2, [pc, #344]	; (8003ff0 <HAL_I2S_DMAStop+0x1e4>)
 8003e98:	4b56      	ldr	r3, [pc, #344]	; (8003ff4 <HAL_I2S_DMAStop+0x1e8>)
 8003e9a:	4291      	cmp	r1, r2
 8003e9c:	bf18      	it	ne
 8003e9e:	f04f 2340 	movne.w	r3, #1073758208	; 0x40004000
 8003ea2:	69da      	ldr	r2, [r3, #28]
 8003ea4:	f422 6280 	bic.w	r2, r2, #1024	; 0x400
 8003ea8:	61da      	str	r2, [r3, #28]
 8003eaa:	2200      	movs	r2, #0
 8003eac:	9201      	str	r2, [sp, #4]
 8003eae:	68da      	ldr	r2, [r3, #12]
 8003eb0:	9201      	str	r2, [sp, #4]
 8003eb2:	689a      	ldr	r2, [r3, #8]
 8003eb4:	9201      	str	r2, [sp, #4]
 8003eb6:	9a01      	ldr	r2, [sp, #4]
 8003eb8:	685a      	ldr	r2, [r3, #4]
 8003eba:	f022 0201 	bic.w	r2, r2, #1
 8003ebe:	605a      	str	r2, [r3, #4]
 8003ec0:	6862      	ldr	r2, [r4, #4]
 8003ec2:	2a00      	cmp	r2, #0
 8003ec4:	d16c      	bne.n	8003fa0 <HAL_I2S_DMAStop+0x194>
 8003ec6:	6c63      	ldr	r3, [r4, #68]	; 0x44
 8003ec8:	2501      	movs	r5, #1
 8003eca:	f043 0340 	orr.w	r3, r3, #64	; 0x40
 8003ece:	6463      	str	r3, [r4, #68]	; 0x44
 8003ed0:	f884 5041 	strb.w	r5, [r4, #65]	; 0x41
 8003ed4:	2301      	movs	r3, #1
 8003ed6:	4628      	mov	r0, r5
 8003ed8:	f884 3041 	strb.w	r3, [r4, #65]	; 0x41
 8003edc:	b005      	add	sp, #20
 8003ede:	e8bd 83f0 	ldmia.w	sp!, {r4, r5, r6, r7, r8, r9, pc}
 8003ee2:	f7fe f96d 	bl	80021c0 <HAL_DMA_Abort>
 8003ee6:	2800      	cmp	r0, #0
 8003ee8:	d09b      	beq.n	8003e22 <HAL_I2S_DMAStop+0x16>
 8003eea:	6c63      	ldr	r3, [r4, #68]	; 0x44
 8003eec:	f043 0308 	orr.w	r3, r3, #8
 8003ef0:	6463      	str	r3, [r4, #68]	; 0x44
 8003ef2:	2501      	movs	r5, #1
 8003ef4:	e796      	b.n	8003e24 <HAL_I2S_DMAStop+0x18>
 8003ef6:	f5b3 7f80 	cmp.w	r3, #256	; 0x100
 8003efa:	d177      	bne.n	8003fec <HAL_I2S_DMAStop+0x1e0>
 8003efc:	6bc0      	ldr	r0, [r0, #60]	; 0x3c
 8003efe:	2800      	cmp	r0, #0
 8003f00:	d150      	bne.n	8003fa4 <HAL_I2S_DMAStop+0x198>
 8003f02:	2500      	movs	r5, #0
 8003f04:	f894 3041 	ldrb.w	r3, [r4, #65]	; 0x41
 8003f08:	2b05      	cmp	r3, #5
 8003f0a:	d135      	bne.n	8003f78 <HAL_I2S_DMAStop+0x16c>
 8003f0c:	6ba0      	ldr	r0, [r4, #56]	; 0x38
 8003f0e:	b138      	cbz	r0, 8003f20 <HAL_I2S_DMAStop+0x114>
 8003f10:	f7fe f956 	bl	80021c0 <HAL_DMA_Abort>
 8003f14:	b120      	cbz	r0, 8003f20 <HAL_I2S_DMAStop+0x114>
 8003f16:	6c63      	ldr	r3, [r4, #68]	; 0x44
 8003f18:	f043 0308 	orr.w	r3, r3, #8
 8003f1c:	6463      	str	r3, [r4, #68]	; 0x44
 8003f1e:	2501      	movs	r5, #1
 8003f20:	f7fd ffd6 	bl	8001ed0 <HAL_GetTick>
 8003f24:	f8df 80c8 	ldr.w	r8, [pc, #200]	; 8003ff0 <HAL_I2S_DMAStop+0x1e4>
 8003f28:	4f32      	ldr	r7, [pc, #200]	; (8003ff4 <HAL_I2S_DMAStop+0x1e8>)
 8003f2a:	4606      	mov	r6, r0
 8003f2c:	f04f 0901 	mov.w	r9, #1
 8003f30:	6822      	ldr	r2, [r4, #0]
 8003f32:	4542      	cmp	r2, r8
 8003f34:	bf0c      	ite	eq
 8003f36:	463b      	moveq	r3, r7
 8003f38:	f04f 2340 	movne.w	r3, #1073758208	; 0x40004000
 8003f3c:	689b      	ldr	r3, [r3, #8]
 8003f3e:	079b      	lsls	r3, r3, #30
 8003f40:	d53a      	bpl.n	8003fb8 <HAL_I2S_DMAStop+0x1ac>
 8003f42:	f8df 80ac 	ldr.w	r8, [pc, #172]	; 8003ff0 <HAL_I2S_DMAStop+0x1e4>
 8003f46:	4f2b      	ldr	r7, [pc, #172]	; (8003ff4 <HAL_I2S_DMAStop+0x1e8>)
 8003f48:	f04f 0901 	mov.w	r9, #1
 8003f4c:	6822      	ldr	r2, [r4, #0]
 8003f4e:	4542      	cmp	r2, r8
 8003f50:	bf0c      	ite	eq
 8003f52:	463b      	moveq	r3, r7
 8003f54:	f04f 2340 	movne.w	r3, #1073758208	; 0x40004000
 8003f58:	689a      	ldr	r2, [r3, #8]
 8003f5a:	f012 0280 	ands.w	r2, r2, #128	; 0x80
 8003f5e:	d138      	bne.n	8003fd2 <HAL_I2S_DMAStop+0x1c6>
 8003f60:	69d9      	ldr	r1, [r3, #28]
 8003f62:	f421 6180 	bic.w	r1, r1, #1024	; 0x400
 8003f66:	61d9      	str	r1, [r3, #28]
 8003f68:	9202      	str	r2, [sp, #8]
 8003f6a:	689a      	ldr	r2, [r3, #8]
 8003f6c:	9202      	str	r2, [sp, #8]
 8003f6e:	9a02      	ldr	r2, [sp, #8]
 8003f70:	685a      	ldr	r2, [r3, #4]
 8003f72:	f022 0202 	bic.w	r2, r2, #2
 8003f76:	605a      	str	r2, [r3, #4]
 8003f78:	6823      	ldr	r3, [r4, #0]
 8003f7a:	69da      	ldr	r2, [r3, #28]
 8003f7c:	f422 6280 	bic.w	r2, r2, #1024	; 0x400
 8003f80:	61da      	str	r2, [r3, #28]
 8003f82:	2200      	movs	r2, #0
 8003f84:	9203      	str	r2, [sp, #12]
 8003f86:	68da      	ldr	r2, [r3, #12]
 8003f88:	9203      	str	r2, [sp, #12]
 8003f8a:	689a      	ldr	r2, [r3, #8]
 8003f8c:	9203      	str	r2, [sp, #12]
 8003f8e:	9a03      	ldr	r2, [sp, #12]
 8003f90:	685a      	ldr	r2, [r3, #4]
 8003f92:	f022 0201 	bic.w	r2, r2, #1
 8003f96:	605a      	str	r2, [r3, #4]
 8003f98:	6862      	ldr	r2, [r4, #4]
 8003f9a:	f5b2 7f80 	cmp.w	r2, #256	; 0x100
 8003f9e:	d092      	beq.n	8003ec6 <HAL_I2S_DMAStop+0xba>
 8003fa0:	68db      	ldr	r3, [r3, #12]
 8003fa2:	e797      	b.n	8003ed4 <HAL_I2S_DMAStop+0xc8>
 8003fa4:	f7fe f90c 	bl	80021c0 <HAL_DMA_Abort>
 8003fa8:	2800      	cmp	r0, #0
 8003faa:	d0aa      	beq.n	8003f02 <HAL_I2S_DMAStop+0xf6>
 8003fac:	6c63      	ldr	r3, [r4, #68]	; 0x44
 8003fae:	f043 0308 	orr.w	r3, r3, #8
 8003fb2:	6463      	str	r3, [r4, #68]	; 0x44
 8003fb4:	2501      	movs	r5, #1
 8003fb6:	e7a5      	b.n	8003f04 <HAL_I2S_DMAStop+0xf8>
 8003fb8:	f7fd ff8a 	bl	8001ed0 <HAL_GetTick>
 8003fbc:	1b80      	subs	r0, r0, r6
 8003fbe:	2864      	cmp	r0, #100	; 0x64
 8003fc0:	d9b6      	bls.n	8003f30 <HAL_I2S_DMAStop+0x124>
 8003fc2:	6c63      	ldr	r3, [r4, #68]	; 0x44
 8003fc4:	f043 0301 	orr.w	r3, r3, #1
 8003fc8:	6463      	str	r3, [r4, #68]	; 0x44
 8003fca:	2501      	movs	r5, #1
 8003fcc:	f884 9041 	strb.w	r9, [r4, #65]	; 0x41
 8003fd0:	e7ae      	b.n	8003f30 <HAL_I2S_DMAStop+0x124>
 8003fd2:	f7fd ff7d 	bl	8001ed0 <HAL_GetTick>
 8003fd6:	1b80      	subs	r0, r0, r6
 8003fd8:	2864      	cmp	r0, #100	; 0x64
 8003fda:	d9b7      	bls.n	8003f4c <HAL_I2S_DMAStop+0x140>
 8003fdc:	6c63      	ldr	r3, [r4, #68]	; 0x44
 8003fde:	f043 0301 	orr.w	r3, r3, #1
 8003fe2:	6463      	str	r3, [r4, #68]	; 0x44
 8003fe4:	2501      	movs	r5, #1
 8003fe6:	f884 9041 	strb.w	r9, [r4, #65]	; 0x41
 8003fea:	e7af      	b.n	8003f4c <HAL_I2S_DMAStop+0x140>
 8003fec:	2500      	movs	r5, #0
 8003fee:	e771      	b.n	8003ed4 <HAL_I2S_DMAStop+0xc8>
 8003ff0:	40003800 	.word	0x40003800
 8003ff4:	40003400 	.word	0x40003400

08003ff8 <I2S_DMATxHalfCplt>:
 8003ff8:	b508      	push	{r3, lr}
 8003ffa:	6b80      	ldr	r0, [r0, #56]	; 0x38
 8003ffc:	f7fc fc00 	bl	8000800 <HAL_I2S_TxHalfCpltCallback>
 8004000:	bd08      	pop	{r3, pc}

08004002 <I2S_DMATxCplt>:
 8004002:	69c1      	ldr	r1, [r0, #28]
 8004004:	b508      	push	{r3, lr}
 8004006:	6b83      	ldr	r3, [r0, #56]	; 0x38
 8004008:	b941      	cbnz	r1, 800401c <I2S_DMATxCplt+0x1a>
 800400a:	6818      	ldr	r0, [r3, #0]
 800400c:	6842      	ldr	r2, [r0, #4]
 800400e:	f022 0202 	bic.w	r2, r2, #2
 8004012:	6042      	str	r2, [r0, #4]
 8004014:	2201      	movs	r2, #1
 8004016:	8559      	strh	r1, [r3, #42]	; 0x2a
 8004018:	f883 2041 	strb.w	r2, [r3, #65]	; 0x41
 800401c:	4618      	mov	r0, r3
 800401e:	f7fc fbe5 	bl	80007ec <HAL_I2S_TxCpltCallback>
 8004022:	bd08      	pop	{r3, pc}

08004024 <HAL_I2S_RxCpltCallback>:
 8004024:	4770      	bx	lr

08004026 <I2S_IRQHandler>:
 8004026:	b51f      	push	{r0, r1, r2, r3, r4, lr}
 8004028:	6803      	ldr	r3, [r0, #0]
 800402a:	689a      	ldr	r2, [r3, #8]
 800402c:	9201      	str	r2, [sp, #4]
 800402e:	f890 2041 	ldrb.w	r2, [r0, #65]	; 0x41
 8004032:	2a04      	cmp	r2, #4
 8004034:	4604      	mov	r4, r0
 8004036:	d136      	bne.n	80040a6 <I2S_IRQHandler+0x80>
 8004038:	9a01      	ldr	r2, [sp, #4]
 800403a:	07d1      	lsls	r1, r2, #31
 800403c:	d517      	bpl.n	800406e <I2S_IRQHandler+0x48>
 800403e:	685a      	ldr	r2, [r3, #4]
 8004040:	0652      	lsls	r2, r2, #25
 8004042:	d514      	bpl.n	800406e <I2S_IRQHandler+0x48>
 8004044:	6ac2      	ldr	r2, [r0, #44]	; 0x2c
 8004046:	68d9      	ldr	r1, [r3, #12]
 8004048:	f822 1b02 	strh.w	r1, [r2], #2
 800404c:	62c2      	str	r2, [r0, #44]	; 0x2c
 800404e:	8e42      	ldrh	r2, [r0, #50]	; 0x32
 8004050:	3a01      	subs	r2, #1
 8004052:	b292      	uxth	r2, r2
 8004054:	8642      	strh	r2, [r0, #50]	; 0x32
 8004056:	8e42      	ldrh	r2, [r0, #50]	; 0x32
 8004058:	b292      	uxth	r2, r2
 800405a:	b942      	cbnz	r2, 800406e <I2S_IRQHandler+0x48>
 800405c:	685a      	ldr	r2, [r3, #4]
 800405e:	f022 0260 	bic.w	r2, r2, #96	; 0x60
 8004062:	605a      	str	r2, [r3, #4]
 8004064:	2301      	movs	r3, #1
 8004066:	f880 3041 	strb.w	r3, [r0, #65]	; 0x41
 800406a:	f7ff ffdb 	bl	8004024 <HAL_I2S_RxCpltCallback>
 800406e:	9b01      	ldr	r3, [sp, #4]
 8004070:	0659      	lsls	r1, r3, #25
 8004072:	d518      	bpl.n	80040a6 <I2S_IRQHandler+0x80>
 8004074:	6823      	ldr	r3, [r4, #0]
 8004076:	685a      	ldr	r2, [r3, #4]
 8004078:	0692      	lsls	r2, r2, #26
 800407a:	d514      	bpl.n	80040a6 <I2S_IRQHandler+0x80>
 800407c:	685a      	ldr	r2, [r3, #4]
 800407e:	f022 0260 	bic.w	r2, r2, #96	; 0x60
 8004082:	605a      	str	r2, [r3, #4]
 8004084:	2200      	movs	r2, #0
 8004086:	9202      	str	r2, [sp, #8]
 8004088:	68da      	ldr	r2, [r3, #12]
 800408a:	9202      	str	r2, [sp, #8]
 800408c:	689b      	ldr	r3, [r3, #8]
 800408e:	9302      	str	r3, [sp, #8]
 8004090:	9b02      	ldr	r3, [sp, #8]
 8004092:	2301      	movs	r3, #1
 8004094:	f884 3041 	strb.w	r3, [r4, #65]	; 0x41
 8004098:	6c63      	ldr	r3, [r4, #68]	; 0x44
 800409a:	f043 0302 	orr.w	r3, r3, #2
 800409e:	6463      	str	r3, [r4, #68]	; 0x44
 80040a0:	4620      	mov	r0, r4
 80040a2:	f7fc fbb9 	bl	8000818 <HAL_I2S_ErrorCallback>
 80040a6:	f894 3041 	ldrb.w	r3, [r4, #65]	; 0x41
 80040aa:	2b03      	cmp	r3, #3
 80040ac:	d136      	bne.n	800411c <I2S_IRQHandler+0xf6>
 80040ae:	9b01      	ldr	r3, [sp, #4]
 80040b0:	079b      	lsls	r3, r3, #30
 80040b2:	d519      	bpl.n	80040e8 <I2S_IRQHandler+0xc2>
 80040b4:	6822      	ldr	r2, [r4, #0]
 80040b6:	6853      	ldr	r3, [r2, #4]
 80040b8:	0618      	lsls	r0, r3, #24
 80040ba:	d515      	bpl.n	80040e8 <I2S_IRQHandler+0xc2>
 80040bc:	6a63      	ldr	r3, [r4, #36]	; 0x24
 80040be:	f833 1b02 	ldrh.w	r1, [r3], #2
 80040c2:	60d1      	str	r1, [r2, #12]
 80040c4:	6263      	str	r3, [r4, #36]	; 0x24
 80040c6:	8d63      	ldrh	r3, [r4, #42]	; 0x2a
 80040c8:	3b01      	subs	r3, #1
 80040ca:	b29b      	uxth	r3, r3
 80040cc:	8563      	strh	r3, [r4, #42]	; 0x2a
 80040ce:	8d63      	ldrh	r3, [r4, #42]	; 0x2a
 80040d0:	b29b      	uxth	r3, r3
 80040d2:	b94b      	cbnz	r3, 80040e8 <I2S_IRQHandler+0xc2>
 80040d4:	6853      	ldr	r3, [r2, #4]
 80040d6:	f023 03a0 	bic.w	r3, r3, #160	; 0xa0
 80040da:	6053      	str	r3, [r2, #4]
 80040dc:	2301      	movs	r3, #1
 80040de:	f884 3041 	strb.w	r3, [r4, #65]	; 0x41
 80040e2:	4620      	mov	r0, r4
 80040e4:	f7fc fb82 	bl	80007ec <HAL_I2S_TxCpltCallback>
 80040e8:	9b01      	ldr	r3, [sp, #4]
 80040ea:	0719      	lsls	r1, r3, #28
 80040ec:	d516      	bpl.n	800411c <I2S_IRQHandler+0xf6>
 80040ee:	6823      	ldr	r3, [r4, #0]
 80040f0:	685a      	ldr	r2, [r3, #4]
 80040f2:	0692      	lsls	r2, r2, #26
 80040f4:	d512      	bpl.n	800411c <I2S_IRQHandler+0xf6>
 80040f6:	685a      	ldr	r2, [r3, #4]
 80040f8:	f022 02a0 	bic.w	r2, r2, #160	; 0xa0
 80040fc:	605a      	str	r2, [r3, #4]
 80040fe:	2200      	movs	r2, #0
 8004100:	9203      	str	r2, [sp, #12]
 8004102:	689b      	ldr	r3, [r3, #8]
 8004104:	9303      	str	r3, [sp, #12]
 8004106:	9b03      	ldr	r3, [sp, #12]
 8004108:	2301      	movs	r3, #1
 800410a:	f884 3041 	strb.w	r3, [r4, #65]	; 0x41
 800410e:	6c63      	ldr	r3, [r4, #68]	; 0x44
 8004110:	f043 0304 	orr.w	r3, r3, #4
 8004114:	6463      	str	r3, [r4, #68]	; 0x44
 8004116:	4620      	mov	r0, r4
 8004118:	f7fc fb7e 	bl	8000818 <HAL_I2S_ErrorCallback>
 800411c:	b004      	add	sp, #16
 800411e:	bd10      	pop	{r4, pc}

08004120 <I2S_DMAError>:
 8004120:	6b80      	ldr	r0, [r0, #56]	; 0x38
 8004122:	6802      	ldr	r2, [r0, #0]
 8004124:	b508      	push	{r3, lr}
 8004126:	6853      	ldr	r3, [r2, #4]
 8004128:	f023 0303 	bic.w	r3, r3, #3
 800412c:	6053      	str	r3, [r2, #4]
 800412e:	2300      	movs	r3, #0
 8004130:	8543      	strh	r3, [r0, #42]	; 0x2a
 8004132:	8643      	strh	r3, [r0, #50]	; 0x32
 8004134:	2301      	movs	r3, #1
 8004136:	f880 3041 	strb.w	r3, [r0, #65]	; 0x41
 800413a:	6c43      	ldr	r3, [r0, #68]	; 0x44
 800413c:	f043 0308 	orr.w	r3, r3, #8
 8004140:	6443      	str	r3, [r0, #68]	; 0x44
 8004142:	f7fc fb69 	bl	8000818 <HAL_I2S_ErrorCallback>
 8004146:	bd08      	pop	{r3, pc}

08004148 <HAL_I2S_GetState>:
 8004148:	f890 0041 	ldrb.w	r0, [r0, #65]	; 0x41
 800414c:	4770      	bx	lr

0800414e <HAL_I2SEx_TxRxCpltCallback>:
 800414e:	4770      	bx	lr

08004150 <HAL_I2SEx_FullDuplex_IRQHandler>:
 8004150:	b510      	push	{r4, lr}
 8004152:	6802      	ldr	r2, [r0, #0]
 8004154:	498e      	ldr	r1, [pc, #568]	; (8004390 <HAL_I2SEx_FullDuplex_IRQHandler+0x240>)
 8004156:	6893      	ldr	r3, [r2, #8]
 8004158:	b086      	sub	sp, #24
 800415a:	4604      	mov	r4, r0
 800415c:	9300      	str	r3, [sp, #0]
 800415e:	4b8d      	ldr	r3, [pc, #564]	; (8004394 <HAL_I2SEx_FullDuplex_IRQHandler+0x244>)
 8004160:	428a      	cmp	r2, r1
 8004162:	bf18      	it	ne
 8004164:	f04f 2340 	movne.w	r3, #1073758208	; 0x40004000
 8004168:	6899      	ldr	r1, [r3, #8]
 800416a:	9101      	str	r1, [sp, #4]
 800416c:	6851      	ldr	r1, [r2, #4]
 800416e:	9102      	str	r1, [sp, #8]
 8004170:	6859      	ldr	r1, [r3, #4]
 8004172:	9103      	str	r1, [sp, #12]
 8004174:	6841      	ldr	r1, [r0, #4]
 8004176:	f431 7100 	bics.w	r1, r1, #512	; 0x200
 800417a:	f040 8093 	bne.w	80042a4 <HAL_I2SEx_FullDuplex_IRQHandler+0x154>
 800417e:	9b00      	ldr	r3, [sp, #0]
 8004180:	0799      	lsls	r1, r3, #30
 8004182:	d51a      	bpl.n	80041ba <HAL_I2SEx_FullDuplex_IRQHandler+0x6a>
 8004184:	9b02      	ldr	r3, [sp, #8]
 8004186:	061b      	lsls	r3, r3, #24
 8004188:	d517      	bpl.n	80041ba <HAL_I2SEx_FullDuplex_IRQHandler+0x6a>
 800418a:	6a43      	ldr	r3, [r0, #36]	; 0x24
 800418c:	1c99      	adds	r1, r3, #2
 800418e:	881b      	ldrh	r3, [r3, #0]
 8004190:	6241      	str	r1, [r0, #36]	; 0x24
 8004192:	60d3      	str	r3, [r2, #12]
 8004194:	8d43      	ldrh	r3, [r0, #42]	; 0x2a
 8004196:	3b01      	subs	r3, #1
 8004198:	b29b      	uxth	r3, r3
 800419a:	8543      	strh	r3, [r0, #42]	; 0x2a
 800419c:	8d43      	ldrh	r3, [r0, #42]	; 0x2a
 800419e:	b29b      	uxth	r3, r3
 80041a0:	b95b      	cbnz	r3, 80041ba <HAL_I2SEx_FullDuplex_IRQHandler+0x6a>
 80041a2:	6853      	ldr	r3, [r2, #4]
 80041a4:	f023 03a0 	bic.w	r3, r3, #160	; 0xa0
 80041a8:	6053      	str	r3, [r2, #4]
 80041aa:	8e43      	ldrh	r3, [r0, #50]	; 0x32
 80041ac:	b29b      	uxth	r3, r3
 80041ae:	b923      	cbnz	r3, 80041ba <HAL_I2SEx_FullDuplex_IRQHandler+0x6a>
 80041b0:	2301      	movs	r3, #1
 80041b2:	f880 3041 	strb.w	r3, [r0, #65]	; 0x41
 80041b6:	f7ff ffca 	bl	800414e <HAL_I2SEx_TxRxCpltCallback>
 80041ba:	9b01      	ldr	r3, [sp, #4]
 80041bc:	07d8      	lsls	r0, r3, #31
 80041be:	d522      	bpl.n	8004206 <HAL_I2SEx_FullDuplex_IRQHandler+0xb6>
 80041c0:	9b03      	ldr	r3, [sp, #12]
 80041c2:	0659      	lsls	r1, r3, #25
 80041c4:	d51f      	bpl.n	8004206 <HAL_I2SEx_FullDuplex_IRQHandler+0xb6>
 80041c6:	6821      	ldr	r1, [r4, #0]
 80041c8:	4a71      	ldr	r2, [pc, #452]	; (8004390 <HAL_I2SEx_FullDuplex_IRQHandler+0x240>)
 80041ca:	4b72      	ldr	r3, [pc, #456]	; (8004394 <HAL_I2SEx_FullDuplex_IRQHandler+0x244>)
 80041cc:	4291      	cmp	r1, r2
 80041ce:	bf18      	it	ne
 80041d0:	f04f 2340 	movne.w	r3, #1073758208	; 0x40004000
 80041d4:	6ae2      	ldr	r2, [r4, #44]	; 0x2c
 80041d6:	68d9      	ldr	r1, [r3, #12]
 80041d8:	1c90      	adds	r0, r2, #2
 80041da:	62e0      	str	r0, [r4, #44]	; 0x2c
 80041dc:	8011      	strh	r1, [r2, #0]
 80041de:	8e62      	ldrh	r2, [r4, #50]	; 0x32
 80041e0:	3a01      	subs	r2, #1
 80041e2:	b292      	uxth	r2, r2
 80041e4:	8662      	strh	r2, [r4, #50]	; 0x32
 80041e6:	8e62      	ldrh	r2, [r4, #50]	; 0x32
 80041e8:	b292      	uxth	r2, r2
 80041ea:	b962      	cbnz	r2, 8004206 <HAL_I2SEx_FullDuplex_IRQHandler+0xb6>
 80041ec:	685a      	ldr	r2, [r3, #4]
 80041ee:	f022 0260 	bic.w	r2, r2, #96	; 0x60
 80041f2:	605a      	str	r2, [r3, #4]
 80041f4:	8d63      	ldrh	r3, [r4, #42]	; 0x2a
 80041f6:	b29b      	uxth	r3, r3
 80041f8:	b92b      	cbnz	r3, 8004206 <HAL_I2SEx_FullDuplex_IRQHandler+0xb6>
 80041fa:	2301      	movs	r3, #1
 80041fc:	f884 3041 	strb.w	r3, [r4, #65]	; 0x41
 8004200:	4620      	mov	r0, r4
 8004202:	f7ff ffa4 	bl	800414e <HAL_I2SEx_TxRxCpltCallback>
 8004206:	9b01      	ldr	r3, [sp, #4]
 8004208:	065a      	lsls	r2, r3, #25
 800420a:	d522      	bpl.n	8004252 <HAL_I2SEx_FullDuplex_IRQHandler+0x102>
 800420c:	9b03      	ldr	r3, [sp, #12]
 800420e:	069b      	lsls	r3, r3, #26
 8004210:	d51f      	bpl.n	8004252 <HAL_I2SEx_FullDuplex_IRQHandler+0x102>
 8004212:	6823      	ldr	r3, [r4, #0]
 8004214:	495e      	ldr	r1, [pc, #376]	; (8004390 <HAL_I2SEx_FullDuplex_IRQHandler+0x240>)
 8004216:	4a5f      	ldr	r2, [pc, #380]	; (8004394 <HAL_I2SEx_FullDuplex_IRQHandler+0x244>)
 8004218:	428b      	cmp	r3, r1
 800421a:	bf18      	it	ne
 800421c:	f04f 2240 	movne.w	r2, #1073758208	; 0x40004000
 8004220:	4620      	mov	r0, r4
 8004222:	6851      	ldr	r1, [r2, #4]
 8004224:	f021 0160 	bic.w	r1, r1, #96	; 0x60
 8004228:	6051      	str	r1, [r2, #4]
 800422a:	685a      	ldr	r2, [r3, #4]
 800422c:	f022 02a0 	bic.w	r2, r2, #160	; 0xa0
 8004230:	605a      	str	r2, [r3, #4]
 8004232:	2200      	movs	r2, #0
 8004234:	9204      	str	r2, [sp, #16]
 8004236:	68da      	ldr	r2, [r3, #12]
 8004238:	9204      	str	r2, [sp, #16]
 800423a:	689b      	ldr	r3, [r3, #8]
 800423c:	9304      	str	r3, [sp, #16]
 800423e:	9b04      	ldr	r3, [sp, #16]
 8004240:	2301      	movs	r3, #1
 8004242:	f884 3041 	strb.w	r3, [r4, #65]	; 0x41
 8004246:	6c63      	ldr	r3, [r4, #68]	; 0x44
 8004248:	f043 0302 	orr.w	r3, r3, #2
 800424c:	6463      	str	r3, [r4, #68]	; 0x44
 800424e:	f7fc fae3 	bl	8000818 <HAL_I2S_ErrorCallback>
 8004252:	9b00      	ldr	r3, [sp, #0]
 8004254:	0718      	lsls	r0, r3, #28
 8004256:	f140 8098 	bpl.w	800438a <HAL_I2SEx_FullDuplex_IRQHandler+0x23a>
 800425a:	9b02      	ldr	r3, [sp, #8]
 800425c:	0699      	lsls	r1, r3, #26
 800425e:	f140 8094 	bpl.w	800438a <HAL_I2SEx_FullDuplex_IRQHandler+0x23a>
 8004262:	6823      	ldr	r3, [r4, #0]
 8004264:	494a      	ldr	r1, [pc, #296]	; (8004390 <HAL_I2SEx_FullDuplex_IRQHandler+0x240>)
 8004266:	685a      	ldr	r2, [r3, #4]
 8004268:	f022 02a0 	bic.w	r2, r2, #160	; 0xa0
 800426c:	605a      	str	r2, [r3, #4]
 800426e:	4a49      	ldr	r2, [pc, #292]	; (8004394 <HAL_I2SEx_FullDuplex_IRQHandler+0x244>)
 8004270:	428b      	cmp	r3, r1
 8004272:	bf18      	it	ne
 8004274:	f04f 2240 	movne.w	r2, #1073758208	; 0x40004000
 8004278:	6851      	ldr	r1, [r2, #4]
 800427a:	f021 0160 	bic.w	r1, r1, #96	; 0x60
 800427e:	6051      	str	r1, [r2, #4]
 8004280:	2200      	movs	r2, #0
 8004282:	9205      	str	r2, [sp, #20]
 8004284:	689b      	ldr	r3, [r3, #8]
 8004286:	9305      	str	r3, [sp, #20]
 8004288:	9b05      	ldr	r3, [sp, #20]
 800428a:	2301      	movs	r3, #1
 800428c:	f884 3041 	strb.w	r3, [r4, #65]	; 0x41
 8004290:	6c63      	ldr	r3, [r4, #68]	; 0x44
 8004292:	4620      	mov	r0, r4
 8004294:	f043 0304 	orr.w	r3, r3, #4
 8004298:	6463      	str	r3, [r4, #68]	; 0x44
 800429a:	b006      	add	sp, #24
 800429c:	e8bd 4010 	ldmia.w	sp!, {r4, lr}
 80042a0:	f7fc baba 	b.w	8000818 <HAL_I2S_ErrorCallback>
 80042a4:	9a01      	ldr	r2, [sp, #4]
 80042a6:	0792      	lsls	r2, r2, #30
 80042a8:	d51a      	bpl.n	80042e0 <HAL_I2SEx_FullDuplex_IRQHandler+0x190>
 80042aa:	9a03      	ldr	r2, [sp, #12]
 80042ac:	0611      	lsls	r1, r2, #24
 80042ae:	d517      	bpl.n	80042e0 <HAL_I2SEx_FullDuplex_IRQHandler+0x190>
 80042b0:	6a42      	ldr	r2, [r0, #36]	; 0x24
 80042b2:	1c91      	adds	r1, r2, #2
 80042b4:	8812      	ldrh	r2, [r2, #0]
 80042b6:	6241      	str	r1, [r0, #36]	; 0x24
 80042b8:	60da      	str	r2, [r3, #12]
 80042ba:	8d42      	ldrh	r2, [r0, #42]	; 0x2a
 80042bc:	3a01      	subs	r2, #1
 80042be:	b292      	uxth	r2, r2
 80042c0:	8542      	strh	r2, [r0, #42]	; 0x2a
 80042c2:	8d42      	ldrh	r2, [r0, #42]	; 0x2a
 80042c4:	b292      	uxth	r2, r2
 80042c6:	b95a      	cbnz	r2, 80042e0 <HAL_I2SEx_FullDuplex_IRQHandler+0x190>
 80042c8:	685a      	ldr	r2, [r3, #4]
 80042ca:	f022 02a0 	bic.w	r2, r2, #160	; 0xa0
 80042ce:	605a      	str	r2, [r3, #4]
 80042d0:	8e43      	ldrh	r3, [r0, #50]	; 0x32
 80042d2:	b29b      	uxth	r3, r3
 80042d4:	b923      	cbnz	r3, 80042e0 <HAL_I2SEx_FullDuplex_IRQHandler+0x190>
 80042d6:	2301      	movs	r3, #1
 80042d8:	f880 3041 	strb.w	r3, [r0, #65]	; 0x41
 80042dc:	f7ff ff37 	bl	800414e <HAL_I2SEx_TxRxCpltCallback>
 80042e0:	9b00      	ldr	r3, [sp, #0]
 80042e2:	07da      	lsls	r2, r3, #31
 80042e4:	d51c      	bpl.n	8004320 <HAL_I2SEx_FullDuplex_IRQHandler+0x1d0>
 80042e6:	9b02      	ldr	r3, [sp, #8]
 80042e8:	065b      	lsls	r3, r3, #25
 80042ea:	d519      	bpl.n	8004320 <HAL_I2SEx_FullDuplex_IRQHandler+0x1d0>
 80042ec:	6ae3      	ldr	r3, [r4, #44]	; 0x2c
 80042ee:	6822      	ldr	r2, [r4, #0]
 80042f0:	1c98      	adds	r0, r3, #2
 80042f2:	68d1      	ldr	r1, [r2, #12]
 80042f4:	62e0      	str	r0, [r4, #44]	; 0x2c
 80042f6:	8019      	strh	r1, [r3, #0]
 80042f8:	8e63      	ldrh	r3, [r4, #50]	; 0x32
 80042fa:	3b01      	subs	r3, #1
 80042fc:	b29b      	uxth	r3, r3
 80042fe:	8663      	strh	r3, [r4, #50]	; 0x32
 8004300:	8e63      	ldrh	r3, [r4, #50]	; 0x32
 8004302:	b29b      	uxth	r3, r3
 8004304:	b963      	cbnz	r3, 8004320 <HAL_I2SEx_FullDuplex_IRQHandler+0x1d0>
 8004306:	6853      	ldr	r3, [r2, #4]
 8004308:	f023 0360 	bic.w	r3, r3, #96	; 0x60
 800430c:	6053      	str	r3, [r2, #4]
 800430e:	8d63      	ldrh	r3, [r4, #42]	; 0x2a
 8004310:	b29b      	uxth	r3, r3
 8004312:	b92b      	cbnz	r3, 8004320 <HAL_I2SEx_FullDuplex_IRQHandler+0x1d0>
 8004314:	2301      	movs	r3, #1
 8004316:	f884 3041 	strb.w	r3, [r4, #65]	; 0x41
 800431a:	4620      	mov	r0, r4
 800431c:	f7ff ff17 	bl	800414e <HAL_I2SEx_TxRxCpltCallback>
 8004320:	9b00      	ldr	r3, [sp, #0]
 8004322:	0658      	lsls	r0, r3, #25
 8004324:	d51b      	bpl.n	800435e <HAL_I2SEx_FullDuplex_IRQHandler+0x20e>
 8004326:	9b02      	ldr	r3, [sp, #8]
 8004328:	0699      	lsls	r1, r3, #26
 800432a:	d518      	bpl.n	800435e <HAL_I2SEx_FullDuplex_IRQHandler+0x20e>
 800432c:	6822      	ldr	r2, [r4, #0]
 800432e:	4918      	ldr	r1, [pc, #96]	; (8004390 <HAL_I2SEx_FullDuplex_IRQHandler+0x240>)
 8004330:	6853      	ldr	r3, [r2, #4]
 8004332:	f023 0360 	bic.w	r3, r3, #96	; 0x60
 8004336:	6053      	str	r3, [r2, #4]
 8004338:	4b16      	ldr	r3, [pc, #88]	; (8004394 <HAL_I2SEx_FullDuplex_IRQHandler+0x244>)
 800433a:	428a      	cmp	r2, r1
 800433c:	bf18      	it	ne
 800433e:	f04f 2340 	movne.w	r3, #1073758208	; 0x40004000
 8004342:	4620      	mov	r0, r4
 8004344:	685a      	ldr	r2, [r3, #4]
 8004346:	f022 02a0 	bic.w	r2, r2, #160	; 0xa0
 800434a:	605a      	str	r2, [r3, #4]
 800434c:	2301      	movs	r3, #1
 800434e:	f884 3041 	strb.w	r3, [r4, #65]	; 0x41
 8004352:	6c63      	ldr	r3, [r4, #68]	; 0x44
 8004354:	f043 0302 	orr.w	r3, r3, #2
 8004358:	6463      	str	r3, [r4, #68]	; 0x44
 800435a:	f7fc fa5d 	bl	8000818 <HAL_I2S_ErrorCallback>
 800435e:	9b01      	ldr	r3, [sp, #4]
 8004360:	071a      	lsls	r2, r3, #28
 8004362:	d512      	bpl.n	800438a <HAL_I2SEx_FullDuplex_IRQHandler+0x23a>
 8004364:	9b03      	ldr	r3, [sp, #12]
 8004366:	069b      	lsls	r3, r3, #26
 8004368:	d50f      	bpl.n	800438a <HAL_I2SEx_FullDuplex_IRQHandler+0x23a>
 800436a:	6822      	ldr	r2, [r4, #0]
 800436c:	4908      	ldr	r1, [pc, #32]	; (8004390 <HAL_I2SEx_FullDuplex_IRQHandler+0x240>)
 800436e:	4b09      	ldr	r3, [pc, #36]	; (8004394 <HAL_I2SEx_FullDuplex_IRQHandler+0x244>)
 8004370:	428a      	cmp	r2, r1
 8004372:	bf18      	it	ne
 8004374:	f04f 2340 	movne.w	r3, #1073758208	; 0x40004000
 8004378:	6859      	ldr	r1, [r3, #4]
 800437a:	f021 01a0 	bic.w	r1, r1, #160	; 0xa0
 800437e:	6059      	str	r1, [r3, #4]
 8004380:	6853      	ldr	r3, [r2, #4]
 8004382:	f023 0360 	bic.w	r3, r3, #96	; 0x60
 8004386:	6053      	str	r3, [r2, #4]
 8004388:	e77f      	b.n	800428a <HAL_I2SEx_FullDuplex_IRQHandler+0x13a>
 800438a:	b006      	add	sp, #24
 800438c:	bd10      	pop	{r4, pc}
 800438e:	bf00      	nop
 8004390:	40003800 	.word	0x40003800
 8004394:	40003400 	.word	0x40003400

08004398 <HAL_RCC_OscConfig>:
 8004398:	e92d 41f3 	stmdb	sp!, {r0, r1, r4, r5, r6, r7, r8, lr}
 800439c:	4604      	mov	r4, r0
 800439e:	b340      	cbz	r0, 80043f2 <HAL_RCC_OscConfig+0x5a>
 80043a0:	6803      	ldr	r3, [r0, #0]
 80043a2:	07dd      	lsls	r5, r3, #31
 80043a4:	d410      	bmi.n	80043c8 <HAL_RCC_OscConfig+0x30>
 80043a6:	6823      	ldr	r3, [r4, #0]
 80043a8:	0798      	lsls	r0, r3, #30
 80043aa:	d45b      	bmi.n	8004464 <HAL_RCC_OscConfig+0xcc>
 80043ac:	6823      	ldr	r3, [r4, #0]
 80043ae:	071a      	lsls	r2, r3, #28
 80043b0:	f100 809d 	bmi.w	80044ee <HAL_RCC_OscConfig+0x156>
 80043b4:	6823      	ldr	r3, [r4, #0]
 80043b6:	075b      	lsls	r3, r3, #29
 80043b8:	f100 80bd 	bmi.w	8004536 <HAL_RCC_OscConfig+0x19e>
 80043bc:	69a0      	ldr	r0, [r4, #24]
 80043be:	2800      	cmp	r0, #0
 80043c0:	f040 8124 	bne.w	800460c <HAL_RCC_OscConfig+0x274>
 80043c4:	2000      	movs	r0, #0
 80043c6:	e02c      	b.n	8004422 <HAL_RCC_OscConfig+0x8a>
 80043c8:	4b8d      	ldr	r3, [pc, #564]	; (8004600 <HAL_RCC_OscConfig+0x268>)
 80043ca:	689a      	ldr	r2, [r3, #8]
 80043cc:	f002 020c 	and.w	r2, r2, #12
 80043d0:	2a04      	cmp	r2, #4
 80043d2:	d007      	beq.n	80043e4 <HAL_RCC_OscConfig+0x4c>
 80043d4:	689a      	ldr	r2, [r3, #8]
 80043d6:	f002 020c 	and.w	r2, r2, #12
 80043da:	2a08      	cmp	r2, #8
 80043dc:	d10b      	bne.n	80043f6 <HAL_RCC_OscConfig+0x5e>
 80043de:	685b      	ldr	r3, [r3, #4]
 80043e0:	0259      	lsls	r1, r3, #9
 80043e2:	d508      	bpl.n	80043f6 <HAL_RCC_OscConfig+0x5e>
 80043e4:	4b86      	ldr	r3, [pc, #536]	; (8004600 <HAL_RCC_OscConfig+0x268>)
 80043e6:	681b      	ldr	r3, [r3, #0]
 80043e8:	039a      	lsls	r2, r3, #14
 80043ea:	d5dc      	bpl.n	80043a6 <HAL_RCC_OscConfig+0xe>
 80043ec:	6863      	ldr	r3, [r4, #4]
 80043ee:	2b00      	cmp	r3, #0
 80043f0:	d1d9      	bne.n	80043a6 <HAL_RCC_OscConfig+0xe>
 80043f2:	2001      	movs	r0, #1
 80043f4:	e015      	b.n	8004422 <HAL_RCC_OscConfig+0x8a>
 80043f6:	6863      	ldr	r3, [r4, #4]
 80043f8:	4d81      	ldr	r5, [pc, #516]	; (8004600 <HAL_RCC_OscConfig+0x268>)
 80043fa:	f5b3 3f80 	cmp.w	r3, #65536	; 0x10000
 80043fe:	d113      	bne.n	8004428 <HAL_RCC_OscConfig+0x90>
 8004400:	682b      	ldr	r3, [r5, #0]
 8004402:	f443 3380 	orr.w	r3, r3, #65536	; 0x10000
 8004406:	602b      	str	r3, [r5, #0]
 8004408:	f7fd fd62 	bl	8001ed0 <HAL_GetTick>
 800440c:	4e7c      	ldr	r6, [pc, #496]	; (8004600 <HAL_RCC_OscConfig+0x268>)
 800440e:	4605      	mov	r5, r0
 8004410:	6833      	ldr	r3, [r6, #0]
 8004412:	039b      	lsls	r3, r3, #14
 8004414:	d4c7      	bmi.n	80043a6 <HAL_RCC_OscConfig+0xe>
 8004416:	f7fd fd5b 	bl	8001ed0 <HAL_GetTick>
 800441a:	1b40      	subs	r0, r0, r5
 800441c:	2864      	cmp	r0, #100	; 0x64
 800441e:	d9f7      	bls.n	8004410 <HAL_RCC_OscConfig+0x78>
 8004420:	2003      	movs	r0, #3
 8004422:	b002      	add	sp, #8
 8004424:	e8bd 81f0 	ldmia.w	sp!, {r4, r5, r6, r7, r8, pc}
 8004428:	f5b3 2fa0 	cmp.w	r3, #327680	; 0x50000
 800442c:	d104      	bne.n	8004438 <HAL_RCC_OscConfig+0xa0>
 800442e:	682b      	ldr	r3, [r5, #0]
 8004430:	f443 2380 	orr.w	r3, r3, #262144	; 0x40000
 8004434:	602b      	str	r3, [r5, #0]
 8004436:	e7e3      	b.n	8004400 <HAL_RCC_OscConfig+0x68>
 8004438:	682a      	ldr	r2, [r5, #0]
 800443a:	f422 3280 	bic.w	r2, r2, #65536	; 0x10000
 800443e:	602a      	str	r2, [r5, #0]
 8004440:	682a      	ldr	r2, [r5, #0]
 8004442:	f422 2280 	bic.w	r2, r2, #262144	; 0x40000
 8004446:	602a      	str	r2, [r5, #0]
 8004448:	2b00      	cmp	r3, #0
 800444a:	d1dd      	bne.n	8004408 <HAL_RCC_OscConfig+0x70>
 800444c:	f7fd fd40 	bl	8001ed0 <HAL_GetTick>
 8004450:	4606      	mov	r6, r0
 8004452:	682b      	ldr	r3, [r5, #0]
 8004454:	039f      	lsls	r7, r3, #14
 8004456:	d5a6      	bpl.n	80043a6 <HAL_RCC_OscConfig+0xe>
 8004458:	f7fd fd3a 	bl	8001ed0 <HAL_GetTick>
 800445c:	1b80      	subs	r0, r0, r6
 800445e:	2864      	cmp	r0, #100	; 0x64
 8004460:	d9f7      	bls.n	8004452 <HAL_RCC_OscConfig+0xba>
 8004462:	e7dd      	b.n	8004420 <HAL_RCC_OscConfig+0x88>
 8004464:	4b66      	ldr	r3, [pc, #408]	; (8004600 <HAL_RCC_OscConfig+0x268>)
 8004466:	689a      	ldr	r2, [r3, #8]
 8004468:	f012 0f0c 	tst.w	r2, #12
 800446c:	d007      	beq.n	800447e <HAL_RCC_OscConfig+0xe6>
 800446e:	689a      	ldr	r2, [r3, #8]
 8004470:	f002 020c 	and.w	r2, r2, #12
 8004474:	2a08      	cmp	r2, #8
 8004476:	d111      	bne.n	800449c <HAL_RCC_OscConfig+0x104>
 8004478:	685b      	ldr	r3, [r3, #4]
 800447a:	025e      	lsls	r6, r3, #9
 800447c:	d40e      	bmi.n	800449c <HAL_RCC_OscConfig+0x104>
 800447e:	4a60      	ldr	r2, [pc, #384]	; (8004600 <HAL_RCC_OscConfig+0x268>)
 8004480:	6813      	ldr	r3, [r2, #0]
 8004482:	079d      	lsls	r5, r3, #30
 8004484:	d502      	bpl.n	800448c <HAL_RCC_OscConfig+0xf4>
 8004486:	68e3      	ldr	r3, [r4, #12]
 8004488:	2b01      	cmp	r3, #1
 800448a:	d1b2      	bne.n	80043f2 <HAL_RCC_OscConfig+0x5a>
 800448c:	6813      	ldr	r3, [r2, #0]
 800448e:	6921      	ldr	r1, [r4, #16]
 8004490:	f023 03f8 	bic.w	r3, r3, #248	; 0xf8
 8004494:	ea43 03c1 	orr.w	r3, r3, r1, lsl #3
 8004498:	6013      	str	r3, [r2, #0]
 800449a:	e787      	b.n	80043ac <HAL_RCC_OscConfig+0x14>
 800449c:	68e2      	ldr	r2, [r4, #12]
 800449e:	4b59      	ldr	r3, [pc, #356]	; (8004604 <HAL_RCC_OscConfig+0x26c>)
 80044a0:	b1b2      	cbz	r2, 80044d0 <HAL_RCC_OscConfig+0x138>
 80044a2:	2201      	movs	r2, #1
 80044a4:	601a      	str	r2, [r3, #0]
 80044a6:	f7fd fd13 	bl	8001ed0 <HAL_GetTick>
 80044aa:	4d55      	ldr	r5, [pc, #340]	; (8004600 <HAL_RCC_OscConfig+0x268>)
 80044ac:	4606      	mov	r6, r0
 80044ae:	682b      	ldr	r3, [r5, #0]
 80044b0:	0798      	lsls	r0, r3, #30
 80044b2:	d507      	bpl.n	80044c4 <HAL_RCC_OscConfig+0x12c>
 80044b4:	682b      	ldr	r3, [r5, #0]
 80044b6:	6922      	ldr	r2, [r4, #16]
 80044b8:	f023 03f8 	bic.w	r3, r3, #248	; 0xf8
 80044bc:	ea43 03c2 	orr.w	r3, r3, r2, lsl #3
 80044c0:	602b      	str	r3, [r5, #0]
 80044c2:	e773      	b.n	80043ac <HAL_RCC_OscConfig+0x14>
 80044c4:	f7fd fd04 	bl	8001ed0 <HAL_GetTick>
 80044c8:	1b80      	subs	r0, r0, r6
 80044ca:	2802      	cmp	r0, #2
 80044cc:	d9ef      	bls.n	80044ae <HAL_RCC_OscConfig+0x116>
 80044ce:	e7a7      	b.n	8004420 <HAL_RCC_OscConfig+0x88>
 80044d0:	601a      	str	r2, [r3, #0]
 80044d2:	f7fd fcfd 	bl	8001ed0 <HAL_GetTick>
 80044d6:	4e4a      	ldr	r6, [pc, #296]	; (8004600 <HAL_RCC_OscConfig+0x268>)
 80044d8:	4605      	mov	r5, r0
 80044da:	6833      	ldr	r3, [r6, #0]
 80044dc:	0799      	lsls	r1, r3, #30
 80044de:	f57f af65 	bpl.w	80043ac <HAL_RCC_OscConfig+0x14>
 80044e2:	f7fd fcf5 	bl	8001ed0 <HAL_GetTick>
 80044e6:	1b40      	subs	r0, r0, r5
 80044e8:	2802      	cmp	r0, #2
 80044ea:	d9f6      	bls.n	80044da <HAL_RCC_OscConfig+0x142>
 80044ec:	e798      	b.n	8004420 <HAL_RCC_OscConfig+0x88>
 80044ee:	6962      	ldr	r2, [r4, #20]
 80044f0:	4b44      	ldr	r3, [pc, #272]	; (8004604 <HAL_RCC_OscConfig+0x26c>)
 80044f2:	b182      	cbz	r2, 8004516 <HAL_RCC_OscConfig+0x17e>
 80044f4:	2201      	movs	r2, #1
 80044f6:	f8c3 2e80 	str.w	r2, [r3, #3712]	; 0xe80
 80044fa:	f7fd fce9 	bl	8001ed0 <HAL_GetTick>
 80044fe:	4e40      	ldr	r6, [pc, #256]	; (8004600 <HAL_RCC_OscConfig+0x268>)
 8004500:	4605      	mov	r5, r0
 8004502:	6f73      	ldr	r3, [r6, #116]	; 0x74
 8004504:	079f      	lsls	r7, r3, #30
 8004506:	f53f af55 	bmi.w	80043b4 <HAL_RCC_OscConfig+0x1c>
 800450a:	f7fd fce1 	bl	8001ed0 <HAL_GetTick>
 800450e:	1b40      	subs	r0, r0, r5
 8004510:	2802      	cmp	r0, #2
 8004512:	d9f6      	bls.n	8004502 <HAL_RCC_OscConfig+0x16a>
 8004514:	e784      	b.n	8004420 <HAL_RCC_OscConfig+0x88>
 8004516:	f8c3 2e80 	str.w	r2, [r3, #3712]	; 0xe80
 800451a:	f7fd fcd9 	bl	8001ed0 <HAL_GetTick>
 800451e:	4e38      	ldr	r6, [pc, #224]	; (8004600 <HAL_RCC_OscConfig+0x268>)
 8004520:	4605      	mov	r5, r0
 8004522:	6f73      	ldr	r3, [r6, #116]	; 0x74
 8004524:	0798      	lsls	r0, r3, #30
 8004526:	f57f af45 	bpl.w	80043b4 <HAL_RCC_OscConfig+0x1c>
 800452a:	f7fd fcd1 	bl	8001ed0 <HAL_GetTick>
 800452e:	1b40      	subs	r0, r0, r5
 8004530:	2802      	cmp	r0, #2
 8004532:	d9f6      	bls.n	8004522 <HAL_RCC_OscConfig+0x18a>
 8004534:	e774      	b.n	8004420 <HAL_RCC_OscConfig+0x88>
 8004536:	4b32      	ldr	r3, [pc, #200]	; (8004600 <HAL_RCC_OscConfig+0x268>)
 8004538:	6c1a      	ldr	r2, [r3, #64]	; 0x40
 800453a:	f012 5280 	ands.w	r2, r2, #268435456	; 0x10000000
 800453e:	d128      	bne.n	8004592 <HAL_RCC_OscConfig+0x1fa>
 8004540:	9201      	str	r2, [sp, #4]
 8004542:	6c1a      	ldr	r2, [r3, #64]	; 0x40
 8004544:	f042 5280 	orr.w	r2, r2, #268435456	; 0x10000000
 8004548:	641a      	str	r2, [r3, #64]	; 0x40
 800454a:	6c1b      	ldr	r3, [r3, #64]	; 0x40
 800454c:	f003 5380 	and.w	r3, r3, #268435456	; 0x10000000
 8004550:	9301      	str	r3, [sp, #4]
 8004552:	9b01      	ldr	r3, [sp, #4]
 8004554:	2701      	movs	r7, #1
 8004556:	4d2c      	ldr	r5, [pc, #176]	; (8004608 <HAL_RCC_OscConfig+0x270>)
 8004558:	682b      	ldr	r3, [r5, #0]
 800455a:	05d9      	lsls	r1, r3, #23
 800455c:	d51b      	bpl.n	8004596 <HAL_RCC_OscConfig+0x1fe>
 800455e:	68a3      	ldr	r3, [r4, #8]
 8004560:	4d27      	ldr	r5, [pc, #156]	; (8004600 <HAL_RCC_OscConfig+0x268>)
 8004562:	2b01      	cmp	r3, #1
 8004564:	d127      	bne.n	80045b6 <HAL_RCC_OscConfig+0x21e>
 8004566:	6f2b      	ldr	r3, [r5, #112]	; 0x70
 8004568:	f043 0301 	orr.w	r3, r3, #1
 800456c:	672b      	str	r3, [r5, #112]	; 0x70
 800456e:	f7fd fcaf 	bl	8001ed0 <HAL_GetTick>
 8004572:	4e23      	ldr	r6, [pc, #140]	; (8004600 <HAL_RCC_OscConfig+0x268>)
 8004574:	4605      	mov	r5, r0
 8004576:	f241 3888 	movw	r8, #5000	; 0x1388
 800457a:	6f33      	ldr	r3, [r6, #112]	; 0x70
 800457c:	079b      	lsls	r3, r3, #30
 800457e:	d539      	bpl.n	80045f4 <HAL_RCC_OscConfig+0x25c>
 8004580:	2f00      	cmp	r7, #0
 8004582:	f43f af1b 	beq.w	80043bc <HAL_RCC_OscConfig+0x24>
 8004586:	4a1e      	ldr	r2, [pc, #120]	; (8004600 <HAL_RCC_OscConfig+0x268>)
 8004588:	6c13      	ldr	r3, [r2, #64]	; 0x40
 800458a:	f023 5380 	bic.w	r3, r3, #268435456	; 0x10000000
 800458e:	6413      	str	r3, [r2, #64]	; 0x40
 8004590:	e714      	b.n	80043bc <HAL_RCC_OscConfig+0x24>
 8004592:	2700      	movs	r7, #0
 8004594:	e7df      	b.n	8004556 <HAL_RCC_OscConfig+0x1be>
 8004596:	682b      	ldr	r3, [r5, #0]
 8004598:	f443 7380 	orr.w	r3, r3, #256	; 0x100
 800459c:	602b      	str	r3, [r5, #0]
 800459e:	f7fd fc97 	bl	8001ed0 <HAL_GetTick>
 80045a2:	4606      	mov	r6, r0
 80045a4:	682b      	ldr	r3, [r5, #0]
 80045a6:	05da      	lsls	r2, r3, #23
 80045a8:	d4d9      	bmi.n	800455e <HAL_RCC_OscConfig+0x1c6>
 80045aa:	f7fd fc91 	bl	8001ed0 <HAL_GetTick>
 80045ae:	1b80      	subs	r0, r0, r6
 80045b0:	2802      	cmp	r0, #2
 80045b2:	d9f7      	bls.n	80045a4 <HAL_RCC_OscConfig+0x20c>
 80045b4:	e734      	b.n	8004420 <HAL_RCC_OscConfig+0x88>
 80045b6:	2b05      	cmp	r3, #5
 80045b8:	d104      	bne.n	80045c4 <HAL_RCC_OscConfig+0x22c>
 80045ba:	6f2b      	ldr	r3, [r5, #112]	; 0x70
 80045bc:	f043 0304 	orr.w	r3, r3, #4
 80045c0:	672b      	str	r3, [r5, #112]	; 0x70
 80045c2:	e7d0      	b.n	8004566 <HAL_RCC_OscConfig+0x1ce>
 80045c4:	6f2a      	ldr	r2, [r5, #112]	; 0x70
 80045c6:	f022 0201 	bic.w	r2, r2, #1
 80045ca:	672a      	str	r2, [r5, #112]	; 0x70
 80045cc:	6f2a      	ldr	r2, [r5, #112]	; 0x70
 80045ce:	f022 0204 	bic.w	r2, r2, #4
 80045d2:	672a      	str	r2, [r5, #112]	; 0x70
 80045d4:	2b00      	cmp	r3, #0
 80045d6:	d1ca      	bne.n	800456e <HAL_RCC_OscConfig+0x1d6>
 80045d8:	f7fd fc7a 	bl	8001ed0 <HAL_GetTick>
 80045dc:	f241 3888 	movw	r8, #5000	; 0x1388
 80045e0:	4606      	mov	r6, r0
 80045e2:	6f2b      	ldr	r3, [r5, #112]	; 0x70
 80045e4:	0798      	lsls	r0, r3, #30
 80045e6:	d5cb      	bpl.n	8004580 <HAL_RCC_OscConfig+0x1e8>
 80045e8:	f7fd fc72 	bl	8001ed0 <HAL_GetTick>
 80045ec:	1b80      	subs	r0, r0, r6
 80045ee:	4540      	cmp	r0, r8
 80045f0:	d9f7      	bls.n	80045e2 <HAL_RCC_OscConfig+0x24a>
 80045f2:	e715      	b.n	8004420 <HAL_RCC_OscConfig+0x88>
 80045f4:	f7fd fc6c 	bl	8001ed0 <HAL_GetTick>
 80045f8:	1b40      	subs	r0, r0, r5
 80045fa:	4540      	cmp	r0, r8
 80045fc:	d9bd      	bls.n	800457a <HAL_RCC_OscConfig+0x1e2>
 80045fe:	e70f      	b.n	8004420 <HAL_RCC_OscConfig+0x88>
 8004600:	40023800 	.word	0x40023800
 8004604:	42470000 	.word	0x42470000
 8004608:	40007000 	.word	0x40007000
 800460c:	4d36      	ldr	r5, [pc, #216]	; (80046e8 <HAL_RCC_OscConfig+0x350>)
 800460e:	68ab      	ldr	r3, [r5, #8]
 8004610:	f003 030c 	and.w	r3, r3, #12
 8004614:	2b08      	cmp	r3, #8
 8004616:	d03d      	beq.n	8004694 <HAL_RCC_OscConfig+0x2fc>
 8004618:	4b34      	ldr	r3, [pc, #208]	; (80046ec <HAL_RCC_OscConfig+0x354>)
 800461a:	2200      	movs	r2, #0
 800461c:	2802      	cmp	r0, #2
 800461e:	661a      	str	r2, [r3, #96]	; 0x60
 8004620:	d12b      	bne.n	800467a <HAL_RCC_OscConfig+0x2e2>
 8004622:	f7fd fc55 	bl	8001ed0 <HAL_GetTick>
 8004626:	4606      	mov	r6, r0
 8004628:	682b      	ldr	r3, [r5, #0]
 800462a:	0199      	lsls	r1, r3, #6
 800462c:	d41f      	bmi.n	800466e <HAL_RCC_OscConfig+0x2d6>
 800462e:	e9d4 3207 	ldrd	r3, r2, [r4, #28]
 8004632:	4313      	orrs	r3, r2
 8004634:	6a62      	ldr	r2, [r4, #36]	; 0x24
 8004636:	ea43 1382 	orr.w	r3, r3, r2, lsl #6
 800463a:	6ae2      	ldr	r2, [r4, #44]	; 0x2c
 800463c:	ea43 6302 	orr.w	r3, r3, r2, lsl #24
 8004640:	6aa2      	ldr	r2, [r4, #40]	; 0x28
 8004642:	0852      	lsrs	r2, r2, #1
 8004644:	3a01      	subs	r2, #1
 8004646:	ea43 4302 	orr.w	r3, r3, r2, lsl #16
 800464a:	606b      	str	r3, [r5, #4]
 800464c:	4b27      	ldr	r3, [pc, #156]	; (80046ec <HAL_RCC_OscConfig+0x354>)
 800464e:	4d26      	ldr	r5, [pc, #152]	; (80046e8 <HAL_RCC_OscConfig+0x350>)
 8004650:	2201      	movs	r2, #1
 8004652:	661a      	str	r2, [r3, #96]	; 0x60
 8004654:	f7fd fc3c 	bl	8001ed0 <HAL_GetTick>
 8004658:	4604      	mov	r4, r0
 800465a:	682b      	ldr	r3, [r5, #0]
 800465c:	019a      	lsls	r2, r3, #6
 800465e:	f53f aeb1 	bmi.w	80043c4 <HAL_RCC_OscConfig+0x2c>
 8004662:	f7fd fc35 	bl	8001ed0 <HAL_GetTick>
 8004666:	1b00      	subs	r0, r0, r4
 8004668:	2802      	cmp	r0, #2
 800466a:	d9f6      	bls.n	800465a <HAL_RCC_OscConfig+0x2c2>
 800466c:	e6d8      	b.n	8004420 <HAL_RCC_OscConfig+0x88>
 800466e:	f7fd fc2f 	bl	8001ed0 <HAL_GetTick>
 8004672:	1b80      	subs	r0, r0, r6
 8004674:	2802      	cmp	r0, #2
 8004676:	d9d7      	bls.n	8004628 <HAL_RCC_OscConfig+0x290>
 8004678:	e6d2      	b.n	8004420 <HAL_RCC_OscConfig+0x88>
 800467a:	f7fd fc29 	bl	8001ed0 <HAL_GetTick>
 800467e:	4604      	mov	r4, r0
 8004680:	682b      	ldr	r3, [r5, #0]
 8004682:	019b      	lsls	r3, r3, #6
 8004684:	f57f ae9e 	bpl.w	80043c4 <HAL_RCC_OscConfig+0x2c>
 8004688:	f7fd fc22 	bl	8001ed0 <HAL_GetTick>
 800468c:	1b00      	subs	r0, r0, r4
 800468e:	2802      	cmp	r0, #2
 8004690:	d9f6      	bls.n	8004680 <HAL_RCC_OscConfig+0x2e8>
 8004692:	e6c5      	b.n	8004420 <HAL_RCC_OscConfig+0x88>
 8004694:	2801      	cmp	r0, #1
 8004696:	f43f aec4 	beq.w	8004422 <HAL_RCC_OscConfig+0x8a>
 800469a:	686b      	ldr	r3, [r5, #4]
 800469c:	69e2      	ldr	r2, [r4, #28]
 800469e:	f403 0180 	and.w	r1, r3, #4194304	; 0x400000
 80046a2:	4291      	cmp	r1, r2
 80046a4:	f47f aea5 	bne.w	80043f2 <HAL_RCC_OscConfig+0x5a>
 80046a8:	6a21      	ldr	r1, [r4, #32]
 80046aa:	f003 023f 	and.w	r2, r3, #63	; 0x3f
 80046ae:	428a      	cmp	r2, r1
 80046b0:	f47f ae9f 	bne.w	80043f2 <HAL_RCC_OscConfig+0x5a>
 80046b4:	6a61      	ldr	r1, [r4, #36]	; 0x24
 80046b6:	f647 72c0 	movw	r2, #32704	; 0x7fc0
 80046ba:	401a      	ands	r2, r3
 80046bc:	ebb2 1f81 	cmp.w	r2, r1, lsl #6
 80046c0:	f47f ae97 	bne.w	80043f2 <HAL_RCC_OscConfig+0x5a>
 80046c4:	6aa2      	ldr	r2, [r4, #40]	; 0x28
 80046c6:	0852      	lsrs	r2, r2, #1
 80046c8:	f403 3140 	and.w	r1, r3, #196608	; 0x30000
 80046cc:	3a01      	subs	r2, #1
 80046ce:	ebb1 4f02 	cmp.w	r1, r2, lsl #16
 80046d2:	f47f ae8e 	bne.w	80043f2 <HAL_RCC_OscConfig+0x5a>
 80046d6:	6ae2      	ldr	r2, [r4, #44]	; 0x2c
 80046d8:	f003 6370 	and.w	r3, r3, #251658240	; 0xf000000
 80046dc:	ebb3 6f02 	cmp.w	r3, r2, lsl #24
 80046e0:	f43f ae70 	beq.w	80043c4 <HAL_RCC_OscConfig+0x2c>
 80046e4:	e685      	b.n	80043f2 <HAL_RCC_OscConfig+0x5a>
 80046e6:	bf00      	nop
 80046e8:	40023800 	.word	0x40023800
 80046ec:	42470000 	.word	0x42470000

080046f0 <HAL_RCC_GetSysClockFreq>:
 80046f0:	4913      	ldr	r1, [pc, #76]	; (8004740 <HAL_RCC_GetSysClockFreq+0x50>)
 80046f2:	b508      	push	{r3, lr}
 80046f4:	688b      	ldr	r3, [r1, #8]
 80046f6:	f003 030c 	and.w	r3, r3, #12
 80046fa:	2b04      	cmp	r3, #4
 80046fc:	d01c      	beq.n	8004738 <HAL_RCC_GetSysClockFreq+0x48>
 80046fe:	2b08      	cmp	r3, #8
 8004700:	d11c      	bne.n	800473c <HAL_RCC_GetSysClockFreq+0x4c>
 8004702:	684a      	ldr	r2, [r1, #4]
 8004704:	684b      	ldr	r3, [r1, #4]
 8004706:	6849      	ldr	r1, [r1, #4]
 8004708:	f413 0380 	ands.w	r3, r3, #4194304	; 0x400000
 800470c:	bf14      	ite	ne
 800470e:	480d      	ldrne	r0, [pc, #52]	; (8004744 <HAL_RCC_GetSysClockFreq+0x54>)
 8004710:	480d      	ldreq	r0, [pc, #52]	; (8004748 <HAL_RCC_GetSysClockFreq+0x58>)
 8004712:	f3c1 1188 	ubfx	r1, r1, #6, #9
 8004716:	bf18      	it	ne
 8004718:	2300      	movne	r3, #0
 800471a:	f002 023f 	and.w	r2, r2, #63	; 0x3f
 800471e:	fba1 0100 	umull	r0, r1, r1, r0
 8004722:	f7fb fd59 	bl	80001d8 <__aeabi_uldivmod>
 8004726:	4b06      	ldr	r3, [pc, #24]	; (8004740 <HAL_RCC_GetSysClockFreq+0x50>)
 8004728:	685b      	ldr	r3, [r3, #4]
 800472a:	f3c3 4301 	ubfx	r3, r3, #16, #2
 800472e:	3301      	adds	r3, #1
 8004730:	005b      	lsls	r3, r3, #1
 8004732:	fbb0 f0f3 	udiv	r0, r0, r3
 8004736:	bd08      	pop	{r3, pc}
 8004738:	4802      	ldr	r0, [pc, #8]	; (8004744 <HAL_RCC_GetSysClockFreq+0x54>)
 800473a:	e7fc      	b.n	8004736 <HAL_RCC_GetSysClockFreq+0x46>
 800473c:	4802      	ldr	r0, [pc, #8]	; (8004748 <HAL_RCC_GetSysClockFreq+0x58>)
 800473e:	e7fa      	b.n	8004736 <HAL_RCC_GetSysClockFreq+0x46>
 8004740:	40023800 	.word	0x40023800
 8004744:	007a1200 	.word	0x007a1200
 8004748:	00f42400 	.word	0x00f42400

0800474c <HAL_RCC_ClockConfig>:
 800474c:	e92d 41f0 	stmdb	sp!, {r4, r5, r6, r7, r8, lr}
 8004750:	460d      	mov	r5, r1
 8004752:	4604      	mov	r4, r0
 8004754:	b910      	cbnz	r0, 800475c <HAL_RCC_ClockConfig+0x10>
 8004756:	2001      	movs	r0, #1
 8004758:	e8bd 81f0 	ldmia.w	sp!, {r4, r5, r6, r7, r8, pc}
 800475c:	4b43      	ldr	r3, [pc, #268]	; (800486c <HAL_RCC_ClockConfig+0x120>)
 800475e:	681a      	ldr	r2, [r3, #0]
 8004760:	f002 0207 	and.w	r2, r2, #7
 8004764:	428a      	cmp	r2, r1
 8004766:	d328      	bcc.n	80047ba <HAL_RCC_ClockConfig+0x6e>
 8004768:	6821      	ldr	r1, [r4, #0]
 800476a:	078f      	lsls	r7, r1, #30
 800476c:	d42d      	bmi.n	80047ca <HAL_RCC_ClockConfig+0x7e>
 800476e:	07c8      	lsls	r0, r1, #31
 8004770:	d440      	bmi.n	80047f4 <HAL_RCC_ClockConfig+0xa8>
 8004772:	4b3e      	ldr	r3, [pc, #248]	; (800486c <HAL_RCC_ClockConfig+0x120>)
 8004774:	681a      	ldr	r2, [r3, #0]
 8004776:	f002 0207 	and.w	r2, r2, #7
 800477a:	42aa      	cmp	r2, r5
 800477c:	d865      	bhi.n	800484a <HAL_RCC_ClockConfig+0xfe>
 800477e:	6822      	ldr	r2, [r4, #0]
 8004780:	0751      	lsls	r1, r2, #29
 8004782:	d46b      	bmi.n	800485c <HAL_RCC_ClockConfig+0x110>
 8004784:	0713      	lsls	r3, r2, #28
 8004786:	d507      	bpl.n	8004798 <HAL_RCC_ClockConfig+0x4c>
 8004788:	4a39      	ldr	r2, [pc, #228]	; (8004870 <HAL_RCC_ClockConfig+0x124>)
 800478a:	6921      	ldr	r1, [r4, #16]
 800478c:	6893      	ldr	r3, [r2, #8]
 800478e:	f423 4360 	bic.w	r3, r3, #57344	; 0xe000
 8004792:	ea43 03c1 	orr.w	r3, r3, r1, lsl #3
 8004796:	6093      	str	r3, [r2, #8]
 8004798:	f7ff ffaa 	bl	80046f0 <HAL_RCC_GetSysClockFreq>
 800479c:	4b34      	ldr	r3, [pc, #208]	; (8004870 <HAL_RCC_ClockConfig+0x124>)
 800479e:	4a35      	ldr	r2, [pc, #212]	; (8004874 <HAL_RCC_ClockConfig+0x128>)
 80047a0:	689b      	ldr	r3, [r3, #8]
 80047a2:	f3c3 1303 	ubfx	r3, r3, #4, #4
 80047a6:	5cd3      	ldrb	r3, [r2, r3]
 80047a8:	40d8      	lsrs	r0, r3
 80047aa:	4b33      	ldr	r3, [pc, #204]	; (8004878 <HAL_RCC_ClockConfig+0x12c>)
 80047ac:	6018      	str	r0, [r3, #0]
 80047ae:	4b33      	ldr	r3, [pc, #204]	; (800487c <HAL_RCC_ClockConfig+0x130>)
 80047b0:	6818      	ldr	r0, [r3, #0]
 80047b2:	f7fd fb43 	bl	8001e3c <HAL_InitTick>
 80047b6:	2000      	movs	r0, #0
 80047b8:	e7ce      	b.n	8004758 <HAL_RCC_ClockConfig+0xc>
 80047ba:	b2ca      	uxtb	r2, r1
 80047bc:	701a      	strb	r2, [r3, #0]
 80047be:	681b      	ldr	r3, [r3, #0]
 80047c0:	f003 0307 	and.w	r3, r3, #7
 80047c4:	428b      	cmp	r3, r1
 80047c6:	d1c6      	bne.n	8004756 <HAL_RCC_ClockConfig+0xa>
 80047c8:	e7ce      	b.n	8004768 <HAL_RCC_ClockConfig+0x1c>
 80047ca:	4b29      	ldr	r3, [pc, #164]	; (8004870 <HAL_RCC_ClockConfig+0x124>)
 80047cc:	f011 0f04 	tst.w	r1, #4
 80047d0:	bf1e      	ittt	ne
 80047d2:	689a      	ldrne	r2, [r3, #8]
 80047d4:	f442 52e0 	orrne.w	r2, r2, #7168	; 0x1c00
 80047d8:	609a      	strne	r2, [r3, #8]
 80047da:	070e      	lsls	r6, r1, #28
 80047dc:	bf42      	ittt	mi
 80047de:	689a      	ldrmi	r2, [r3, #8]
 80047e0:	f442 4260 	orrmi.w	r2, r2, #57344	; 0xe000
 80047e4:	609a      	strmi	r2, [r3, #8]
 80047e6:	689a      	ldr	r2, [r3, #8]
 80047e8:	68a0      	ldr	r0, [r4, #8]
 80047ea:	f022 02f0 	bic.w	r2, r2, #240	; 0xf0
 80047ee:	4302      	orrs	r2, r0
 80047f0:	609a      	str	r2, [r3, #8]
 80047f2:	e7bc      	b.n	800476e <HAL_RCC_ClockConfig+0x22>
 80047f4:	6862      	ldr	r2, [r4, #4]
 80047f6:	4b1e      	ldr	r3, [pc, #120]	; (8004870 <HAL_RCC_ClockConfig+0x124>)
 80047f8:	2a01      	cmp	r2, #1
 80047fa:	d11c      	bne.n	8004836 <HAL_RCC_ClockConfig+0xea>
 80047fc:	681b      	ldr	r3, [r3, #0]
 80047fe:	f413 3f00 	tst.w	r3, #131072	; 0x20000
 8004802:	d0a8      	beq.n	8004756 <HAL_RCC_ClockConfig+0xa>
 8004804:	4e1a      	ldr	r6, [pc, #104]	; (8004870 <HAL_RCC_ClockConfig+0x124>)
 8004806:	68b3      	ldr	r3, [r6, #8]
 8004808:	f023 0303 	bic.w	r3, r3, #3
 800480c:	4313      	orrs	r3, r2
 800480e:	60b3      	str	r3, [r6, #8]
 8004810:	f7fd fb5e 	bl	8001ed0 <HAL_GetTick>
 8004814:	f241 3888 	movw	r8, #5000	; 0x1388
 8004818:	4607      	mov	r7, r0
 800481a:	68b3      	ldr	r3, [r6, #8]
 800481c:	6862      	ldr	r2, [r4, #4]
 800481e:	f003 030c 	and.w	r3, r3, #12
 8004822:	ebb3 0f82 	cmp.w	r3, r2, lsl #2
 8004826:	d0a4      	beq.n	8004772 <HAL_RCC_ClockConfig+0x26>
 8004828:	f7fd fb52 	bl	8001ed0 <HAL_GetTick>
 800482c:	1bc0      	subs	r0, r0, r7
 800482e:	4540      	cmp	r0, r8
 8004830:	d9f3      	bls.n	800481a <HAL_RCC_ClockConfig+0xce>
 8004832:	2003      	movs	r0, #3
 8004834:	e790      	b.n	8004758 <HAL_RCC_ClockConfig+0xc>
 8004836:	1e91      	subs	r1, r2, #2
 8004838:	2901      	cmp	r1, #1
 800483a:	681b      	ldr	r3, [r3, #0]
 800483c:	d802      	bhi.n	8004844 <HAL_RCC_ClockConfig+0xf8>
 800483e:	f013 7f00 	tst.w	r3, #33554432	; 0x2000000
 8004842:	e7de      	b.n	8004802 <HAL_RCC_ClockConfig+0xb6>
 8004844:	f013 0f02 	tst.w	r3, #2
 8004848:	e7db      	b.n	8004802 <HAL_RCC_ClockConfig+0xb6>
 800484a:	b2ea      	uxtb	r2, r5
 800484c:	701a      	strb	r2, [r3, #0]
 800484e:	681b      	ldr	r3, [r3, #0]
 8004850:	f003 0307 	and.w	r3, r3, #7
 8004854:	42ab      	cmp	r3, r5
 8004856:	f47f af7e 	bne.w	8004756 <HAL_RCC_ClockConfig+0xa>
 800485a:	e790      	b.n	800477e <HAL_RCC_ClockConfig+0x32>
 800485c:	4904      	ldr	r1, [pc, #16]	; (8004870 <HAL_RCC_ClockConfig+0x124>)
 800485e:	68e0      	ldr	r0, [r4, #12]
 8004860:	688b      	ldr	r3, [r1, #8]
 8004862:	f423 53e0 	bic.w	r3, r3, #7168	; 0x1c00
 8004866:	4303      	orrs	r3, r0
 8004868:	608b      	str	r3, [r1, #8]
 800486a:	e78b      	b.n	8004784 <HAL_RCC_ClockConfig+0x38>
 800486c:	40023c00 	.word	0x40023c00
 8004870:	40023800 	.word	0x40023800
 8004874:	0800a66c 	.word	0x0800a66c
 8004878:	2000007c 	.word	0x2000007c
 800487c:	20000088 	.word	0x20000088

08004880 <HAL_RCC_GetPCLK1Freq>:
 8004880:	4b04      	ldr	r3, [pc, #16]	; (8004894 <HAL_RCC_GetPCLK1Freq+0x14>)
 8004882:	4a05      	ldr	r2, [pc, #20]	; (8004898 <HAL_RCC_GetPCLK1Freq+0x18>)
 8004884:	689b      	ldr	r3, [r3, #8]
 8004886:	f3c3 2382 	ubfx	r3, r3, #10, #3
 800488a:	5cd3      	ldrb	r3, [r2, r3]
 800488c:	4a03      	ldr	r2, [pc, #12]	; (800489c <HAL_RCC_GetPCLK1Freq+0x1c>)
 800488e:	6810      	ldr	r0, [r2, #0]
 8004890:	40d8      	lsrs	r0, r3
 8004892:	4770      	bx	lr
 8004894:	40023800 	.word	0x40023800
 8004898:	0800a67c 	.word	0x0800a67c
 800489c:	2000007c 	.word	0x2000007c

080048a0 <HAL_RCC_GetPCLK2Freq>:
 80048a0:	4b04      	ldr	r3, [pc, #16]	; (80048b4 <HAL_RCC_GetPCLK2Freq+0x14>)
 80048a2:	4a05      	ldr	r2, [pc, #20]	; (80048b8 <HAL_RCC_GetPCLK2Freq+0x18>)
 80048a4:	689b      	ldr	r3, [r3, #8]
 80048a6:	f3c3 3342 	ubfx	r3, r3, #13, #3
 80048aa:	5cd3      	ldrb	r3, [r2, r3]
 80048ac:	4a03      	ldr	r2, [pc, #12]	; (80048bc <HAL_RCC_GetPCLK2Freq+0x1c>)
 80048ae:	6810      	ldr	r0, [r2, #0]
 80048b0:	40d8      	lsrs	r0, r3
 80048b2:	4770      	bx	lr
 80048b4:	40023800 	.word	0x40023800
 80048b8:	0800a67c 	.word	0x0800a67c
 80048bc:	2000007c 	.word	0x2000007c

080048c0 <HAL_RCCEx_PeriphCLKConfig>:
 80048c0:	6803      	ldr	r3, [r0, #0]
 80048c2:	f013 0f05 	tst.w	r3, #5
 80048c6:	b5f7      	push	{r0, r1, r2, r4, r5, r6, r7, lr}
 80048c8:	4604      	mov	r4, r0
 80048ca:	d13e      	bne.n	800494a <HAL_RCCEx_PeriphCLKConfig+0x8a>
 80048cc:	6823      	ldr	r3, [r4, #0]
 80048ce:	079b      	lsls	r3, r3, #30
 80048d0:	d531      	bpl.n	8004936 <HAL_RCCEx_PeriphCLKConfig+0x76>
 80048d2:	2300      	movs	r3, #0
 80048d4:	9301      	str	r3, [sp, #4]
 80048d6:	4b47      	ldr	r3, [pc, #284]	; (80049f4 <HAL_RCCEx_PeriphCLKConfig+0x134>)
 80048d8:	4d47      	ldr	r5, [pc, #284]	; (80049f8 <HAL_RCCEx_PeriphCLKConfig+0x138>)
 80048da:	6c1a      	ldr	r2, [r3, #64]	; 0x40
 80048dc:	f042 5280 	orr.w	r2, r2, #268435456	; 0x10000000
 80048e0:	641a      	str	r2, [r3, #64]	; 0x40
 80048e2:	6c1b      	ldr	r3, [r3, #64]	; 0x40
 80048e4:	f003 5380 	and.w	r3, r3, #268435456	; 0x10000000
 80048e8:	9301      	str	r3, [sp, #4]
 80048ea:	9b01      	ldr	r3, [sp, #4]
 80048ec:	682b      	ldr	r3, [r5, #0]
 80048ee:	f443 7380 	orr.w	r3, r3, #256	; 0x100
 80048f2:	602b      	str	r3, [r5, #0]
 80048f4:	f7fd faec 	bl	8001ed0 <HAL_GetTick>
 80048f8:	4606      	mov	r6, r0
 80048fa:	682b      	ldr	r3, [r5, #0]
 80048fc:	05d9      	lsls	r1, r3, #23
 80048fe:	d54f      	bpl.n	80049a0 <HAL_RCCEx_PeriphCLKConfig+0xe0>
 8004900:	4d3c      	ldr	r5, [pc, #240]	; (80049f4 <HAL_RCCEx_PeriphCLKConfig+0x134>)
 8004902:	6922      	ldr	r2, [r4, #16]
 8004904:	6f2b      	ldr	r3, [r5, #112]	; 0x70
 8004906:	f413 7340 	ands.w	r3, r3, #768	; 0x300
 800490a:	d14f      	bne.n	80049ac <HAL_RCCEx_PeriphCLKConfig+0xec>
 800490c:	6923      	ldr	r3, [r4, #16]
 800490e:	f403 7240 	and.w	r2, r3, #768	; 0x300
 8004912:	f5b2 7f40 	cmp.w	r2, #768	; 0x300
 8004916:	4a37      	ldr	r2, [pc, #220]	; (80049f4 <HAL_RCCEx_PeriphCLKConfig+0x134>)
 8004918:	d168      	bne.n	80049ec <HAL_RCCEx_PeriphCLKConfig+0x12c>
 800491a:	6891      	ldr	r1, [r2, #8]
 800491c:	f023 4070 	bic.w	r0, r3, #4026531840	; 0xf0000000
 8004920:	f421 11f8 	bic.w	r1, r1, #2031616	; 0x1f0000
 8004924:	f420 7040 	bic.w	r0, r0, #768	; 0x300
 8004928:	4301      	orrs	r1, r0
 800492a:	6091      	str	r1, [r2, #8]
 800492c:	6f11      	ldr	r1, [r2, #112]	; 0x70
 800492e:	f3c3 030b 	ubfx	r3, r3, #0, #12
 8004932:	430b      	orrs	r3, r1
 8004934:	6713      	str	r3, [r2, #112]	; 0x70
 8004936:	6820      	ldr	r0, [r4, #0]
 8004938:	f010 0008 	ands.w	r0, r0, #8
 800493c:	bf1f      	itttt	ne
 800493e:	4b2f      	ldrne	r3, [pc, #188]	; (80049fc <HAL_RCCEx_PeriphCLKConfig+0x13c>)
 8004940:	7d22      	ldrbne	r2, [r4, #20]
 8004942:	f8c3 21e0 	strne.w	r2, [r3, #480]	; 0x1e0
 8004946:	2000      	movne	r0, #0
 8004948:	e028      	b.n	800499c <HAL_RCCEx_PeriphCLKConfig+0xdc>
 800494a:	4b2d      	ldr	r3, [pc, #180]	; (8004a00 <HAL_RCCEx_PeriphCLKConfig+0x140>)
 800494c:	4e29      	ldr	r6, [pc, #164]	; (80049f4 <HAL_RCCEx_PeriphCLKConfig+0x134>)
 800494e:	2200      	movs	r2, #0
 8004950:	669a      	str	r2, [r3, #104]	; 0x68
 8004952:	f7fd fabd 	bl	8001ed0 <HAL_GetTick>
 8004956:	4605      	mov	r5, r0
 8004958:	6833      	ldr	r3, [r6, #0]
 800495a:	011f      	lsls	r7, r3, #4
 800495c:	d418      	bmi.n	8004990 <HAL_RCCEx_PeriphCLKConfig+0xd0>
 800495e:	e9d4 2302 	ldrd	r2, r3, [r4, #8]
 8004962:	071b      	lsls	r3, r3, #28
 8004964:	ea43 1382 	orr.w	r3, r3, r2, lsl #6
 8004968:	6862      	ldr	r2, [r4, #4]
 800496a:	4313      	orrs	r3, r2
 800496c:	f8c6 3084 	str.w	r3, [r6, #132]	; 0x84
 8004970:	4b23      	ldr	r3, [pc, #140]	; (8004a00 <HAL_RCCEx_PeriphCLKConfig+0x140>)
 8004972:	4e20      	ldr	r6, [pc, #128]	; (80049f4 <HAL_RCCEx_PeriphCLKConfig+0x134>)
 8004974:	2201      	movs	r2, #1
 8004976:	669a      	str	r2, [r3, #104]	; 0x68
 8004978:	f7fd faaa 	bl	8001ed0 <HAL_GetTick>
 800497c:	4605      	mov	r5, r0
 800497e:	6833      	ldr	r3, [r6, #0]
 8004980:	0118      	lsls	r0, r3, #4
 8004982:	d4a3      	bmi.n	80048cc <HAL_RCCEx_PeriphCLKConfig+0xc>
 8004984:	f7fd faa4 	bl	8001ed0 <HAL_GetTick>
 8004988:	1b40      	subs	r0, r0, r5
 800498a:	2802      	cmp	r0, #2
 800498c:	d9f7      	bls.n	800497e <HAL_RCCEx_PeriphCLKConfig+0xbe>
 800498e:	e004      	b.n	800499a <HAL_RCCEx_PeriphCLKConfig+0xda>
 8004990:	f7fd fa9e 	bl	8001ed0 <HAL_GetTick>
 8004994:	1b40      	subs	r0, r0, r5
 8004996:	2802      	cmp	r0, #2
 8004998:	d9de      	bls.n	8004958 <HAL_RCCEx_PeriphCLKConfig+0x98>
 800499a:	2003      	movs	r0, #3
 800499c:	b003      	add	sp, #12
 800499e:	bdf0      	pop	{r4, r5, r6, r7, pc}
 80049a0:	f7fd fa96 	bl	8001ed0 <HAL_GetTick>
 80049a4:	1b80      	subs	r0, r0, r6
 80049a6:	2802      	cmp	r0, #2
 80049a8:	d9a7      	bls.n	80048fa <HAL_RCCEx_PeriphCLKConfig+0x3a>
 80049aa:	e7f6      	b.n	800499a <HAL_RCCEx_PeriphCLKConfig+0xda>
 80049ac:	f402 7240 	and.w	r2, r2, #768	; 0x300
 80049b0:	4293      	cmp	r3, r2
 80049b2:	d0ab      	beq.n	800490c <HAL_RCCEx_PeriphCLKConfig+0x4c>
 80049b4:	6f2b      	ldr	r3, [r5, #112]	; 0x70
 80049b6:	4a12      	ldr	r2, [pc, #72]	; (8004a00 <HAL_RCCEx_PeriphCLKConfig+0x140>)
 80049b8:	2101      	movs	r1, #1
 80049ba:	f8c2 1e40 	str.w	r1, [r2, #3648]	; 0xe40
 80049be:	f423 7340 	bic.w	r3, r3, #768	; 0x300
 80049c2:	2100      	movs	r1, #0
 80049c4:	f8c2 1e40 	str.w	r1, [r2, #3648]	; 0xe40
 80049c8:	672b      	str	r3, [r5, #112]	; 0x70
 80049ca:	6f2b      	ldr	r3, [r5, #112]	; 0x70
 80049cc:	07da      	lsls	r2, r3, #31
 80049ce:	d59d      	bpl.n	800490c <HAL_RCCEx_PeriphCLKConfig+0x4c>
 80049d0:	f7fd fa7e 	bl	8001ed0 <HAL_GetTick>
 80049d4:	f241 3788 	movw	r7, #5000	; 0x1388
 80049d8:	4606      	mov	r6, r0
 80049da:	6f2b      	ldr	r3, [r5, #112]	; 0x70
 80049dc:	079b      	lsls	r3, r3, #30
 80049de:	d495      	bmi.n	800490c <HAL_RCCEx_PeriphCLKConfig+0x4c>
 80049e0:	f7fd fa76 	bl	8001ed0 <HAL_GetTick>
 80049e4:	1b80      	subs	r0, r0, r6
 80049e6:	42b8      	cmp	r0, r7
 80049e8:	d9f7      	bls.n	80049da <HAL_RCCEx_PeriphCLKConfig+0x11a>
 80049ea:	e7d6      	b.n	800499a <HAL_RCCEx_PeriphCLKConfig+0xda>
 80049ec:	6891      	ldr	r1, [r2, #8]
 80049ee:	f421 11f8 	bic.w	r1, r1, #2031616	; 0x1f0000
 80049f2:	e79a      	b.n	800492a <HAL_RCCEx_PeriphCLKConfig+0x6a>
 80049f4:	40023800 	.word	0x40023800
 80049f8:	40007000 	.word	0x40007000
 80049fc:	42471000 	.word	0x42471000
 8004a00:	42470000 	.word	0x42470000

08004a04 <HAL_RCCEx_GetPeriphCLKConfig>:
 8004a04:	2303      	movs	r3, #3
 8004a06:	6003      	str	r3, [r0, #0]
 8004a08:	4b0e      	ldr	r3, [pc, #56]	; (8004a44 <HAL_RCCEx_GetPeriphCLKConfig+0x40>)
 8004a0a:	f8d3 2084 	ldr.w	r2, [r3, #132]	; 0x84
 8004a0e:	f3c2 1288 	ubfx	r2, r2, #6, #9
 8004a12:	6082      	str	r2, [r0, #8]
 8004a14:	f8d3 2084 	ldr.w	r2, [r3, #132]	; 0x84
 8004a18:	f3c2 7202 	ubfx	r2, r2, #28, #3
 8004a1c:	60c2      	str	r2, [r0, #12]
 8004a1e:	f8d3 2084 	ldr.w	r2, [r3, #132]	; 0x84
 8004a22:	f002 023f 	and.w	r2, r2, #63	; 0x3f
 8004a26:	6042      	str	r2, [r0, #4]
 8004a28:	6899      	ldr	r1, [r3, #8]
 8004a2a:	6f1a      	ldr	r2, [r3, #112]	; 0x70
 8004a2c:	f401 11f8 	and.w	r1, r1, #2031616	; 0x1f0000
 8004a30:	f402 7240 	and.w	r2, r2, #768	; 0x300
 8004a34:	430a      	orrs	r2, r1
 8004a36:	6102      	str	r2, [r0, #16]
 8004a38:	f8d3 308c 	ldr.w	r3, [r3, #140]	; 0x8c
 8004a3c:	f3c3 6300 	ubfx	r3, r3, #24, #1
 8004a40:	7503      	strb	r3, [r0, #20]
 8004a42:	4770      	bx	lr
 8004a44:	40023800 	.word	0x40023800

08004a48 <HAL_RCCEx_GetPeriphCLKFreq>:
 8004a48:	2801      	cmp	r0, #1
 8004a4a:	d11c      	bne.n	8004a86 <HAL_RCCEx_GetPeriphCLKFreq+0x3e>
 8004a4c:	4b0f      	ldr	r3, [pc, #60]	; (8004a8c <HAL_RCCEx_GetPeriphCLKFreq+0x44>)
 8004a4e:	689a      	ldr	r2, [r3, #8]
 8004a50:	0212      	lsls	r2, r2, #8
 8004a52:	d418      	bmi.n	8004a86 <HAL_RCCEx_GetPeriphCLKFreq+0x3e>
 8004a54:	685a      	ldr	r2, [r3, #4]
 8004a56:	f412 0f80 	tst.w	r2, #4194304	; 0x400000
 8004a5a:	f8d3 2084 	ldr.w	r2, [r3, #132]	; 0x84
 8004a5e:	bf14      	ite	ne
 8004a60:	4b0b      	ldrne	r3, [pc, #44]	; (8004a90 <HAL_RCCEx_GetPeriphCLKFreq+0x48>)
 8004a62:	4b0c      	ldreq	r3, [pc, #48]	; (8004a94 <HAL_RCCEx_GetPeriphCLKFreq+0x4c>)
 8004a64:	f002 023f 	and.w	r2, r2, #63	; 0x3f
 8004a68:	fbb3 f3f2 	udiv	r3, r3, r2
 8004a6c:	4a07      	ldr	r2, [pc, #28]	; (8004a8c <HAL_RCCEx_GetPeriphCLKFreq+0x44>)
 8004a6e:	f8d2 0084 	ldr.w	r0, [r2, #132]	; 0x84
 8004a72:	f8d2 2084 	ldr.w	r2, [r2, #132]	; 0x84
 8004a76:	f3c0 1088 	ubfx	r0, r0, #6, #9
 8004a7a:	4358      	muls	r0, r3
 8004a7c:	f3c2 7302 	ubfx	r3, r2, #28, #3
 8004a80:	fbb0 f0f3 	udiv	r0, r0, r3
 8004a84:	4770      	bx	lr
 8004a86:	2000      	movs	r0, #0
 8004a88:	4770      	bx	lr
 8004a8a:	bf00      	nop
 8004a8c:	40023800 	.word	0x40023800
 8004a90:	007a1200 	.word	0x007a1200
 8004a94:	00f42400 	.word	0x00f42400

08004a98 <UART_EndRxTransfer>:
 8004a98:	6802      	ldr	r2, [r0, #0]
 8004a9a:	f102 030c 	add.w	r3, r2, #12
 8004a9e:	e853 3f00 	ldrex	r3, [r3]
 8004aa2:	f423 7390 	bic.w	r3, r3, #288	; 0x120
 8004aa6:	320c      	adds	r2, #12
 8004aa8:	e842 3100 	strex	r1, r3, [r2]
 8004aac:	6802      	ldr	r2, [r0, #0]
 8004aae:	2900      	cmp	r1, #0
 8004ab0:	d1f2      	bne.n	8004a98 <UART_EndRxTransfer>
 8004ab2:	f102 0314 	add.w	r3, r2, #20
 8004ab6:	e853 3f00 	ldrex	r3, [r3]
 8004aba:	f023 0301 	bic.w	r3, r3, #1
 8004abe:	f102 0c14 	add.w	ip, r2, #20
 8004ac2:	e84c 3100 	strex	r1, r3, [ip]
 8004ac6:	2900      	cmp	r1, #0
 8004ac8:	d1f3      	bne.n	8004ab2 <UART_EndRxTransfer+0x1a>
 8004aca:	6b03      	ldr	r3, [r0, #48]	; 0x30
 8004acc:	2b01      	cmp	r3, #1
 8004ace:	d10b      	bne.n	8004ae8 <UART_EndRxTransfer+0x50>
 8004ad0:	f102 030c 	add.w	r3, r2, #12
 8004ad4:	e853 3f00 	ldrex	r3, [r3]
 8004ad8:	f023 0310 	bic.w	r3, r3, #16
 8004adc:	f102 0c0c 	add.w	ip, r2, #12
 8004ae0:	e84c 3100 	strex	r1, r3, [ip]
 8004ae4:	2900      	cmp	r1, #0
 8004ae6:	d1f3      	bne.n	8004ad0 <UART_EndRxTransfer+0x38>
 8004ae8:	2320      	movs	r3, #32
 8004aea:	f880 303e 	strb.w	r3, [r0, #62]	; 0x3e
 8004aee:	2300      	movs	r3, #0
 8004af0:	6303      	str	r3, [r0, #48]	; 0x30
 8004af2:	4770      	bx	lr

08004af4 <UART_SetConfig>:
 8004af4:	6802      	ldr	r2, [r0, #0]
 8004af6:	68c1      	ldr	r1, [r0, #12]
 8004af8:	6913      	ldr	r3, [r2, #16]
 8004afa:	f423 5340 	bic.w	r3, r3, #12288	; 0x3000
 8004afe:	430b      	orrs	r3, r1
 8004b00:	b570      	push	{r4, r5, r6, lr}
 8004b02:	6113      	str	r3, [r2, #16]
 8004b04:	4605      	mov	r5, r0
 8004b06:	6883      	ldr	r3, [r0, #8]
 8004b08:	6900      	ldr	r0, [r0, #16]
 8004b0a:	68d1      	ldr	r1, [r2, #12]
 8004b0c:	4303      	orrs	r3, r0
 8004b0e:	6968      	ldr	r0, [r5, #20]
 8004b10:	4303      	orrs	r3, r0
 8004b12:	69e8      	ldr	r0, [r5, #28]
 8004b14:	f421 4116 	bic.w	r1, r1, #38400	; 0x9600
 8004b18:	f021 010c 	bic.w	r1, r1, #12
 8004b1c:	4303      	orrs	r3, r0
 8004b1e:	430b      	orrs	r3, r1
 8004b20:	60d3      	str	r3, [r2, #12]
 8004b22:	6953      	ldr	r3, [r2, #20]
 8004b24:	69a9      	ldr	r1, [r5, #24]
 8004b26:	f423 7340 	bic.w	r3, r3, #768	; 0x300
 8004b2a:	430b      	orrs	r3, r1
 8004b2c:	6153      	str	r3, [r2, #20]
 8004b2e:	4b1f      	ldr	r3, [pc, #124]	; (8004bac <UART_SetConfig+0xb8>)
 8004b30:	429a      	cmp	r2, r3
 8004b32:	d003      	beq.n	8004b3c <UART_SetConfig+0x48>
 8004b34:	f503 6380 	add.w	r3, r3, #1024	; 0x400
 8004b38:	429a      	cmp	r2, r3
 8004b3a:	d123      	bne.n	8004b84 <UART_SetConfig+0x90>
 8004b3c:	f7ff feb0 	bl	80048a0 <HAL_RCC_GetPCLK2Freq>
 8004b40:	69eb      	ldr	r3, [r5, #28]
 8004b42:	2119      	movs	r1, #25
 8004b44:	f5b3 4f00 	cmp.w	r3, #32768	; 0x8000
 8004b48:	e9d5 4600 	ldrd	r4, r6, [r5]
 8004b4c:	fba0 0101 	umull	r0, r1, r0, r1
 8004b50:	d11b      	bne.n	8004b8a <UART_SetConfig+0x96>
 8004b52:	19b2      	adds	r2, r6, r6
 8004b54:	f04f 0300 	mov.w	r3, #0
 8004b58:	415b      	adcs	r3, r3
 8004b5a:	f7fb fb3d 	bl	80001d8 <__aeabi_uldivmod>
 8004b5e:	2264      	movs	r2, #100	; 0x64
 8004b60:	fbb0 f1f2 	udiv	r1, r0, r2
 8004b64:	fb02 0311 	mls	r3, r2, r1, r0
 8004b68:	00db      	lsls	r3, r3, #3
 8004b6a:	3332      	adds	r3, #50	; 0x32
 8004b6c:	fbb3 f3f2 	udiv	r3, r3, r2
 8004b70:	f003 0207 	and.w	r2, r3, #7
 8004b74:	005b      	lsls	r3, r3, #1
 8004b76:	eb02 1201 	add.w	r2, r2, r1, lsl #4
 8004b7a:	f403 73f8 	and.w	r3, r3, #496	; 0x1f0
 8004b7e:	4413      	add	r3, r2
 8004b80:	60a3      	str	r3, [r4, #8]
 8004b82:	bd70      	pop	{r4, r5, r6, pc}
 8004b84:	f7ff fe7c 	bl	8004880 <HAL_RCC_GetPCLK1Freq>
 8004b88:	e7da      	b.n	8004b40 <UART_SetConfig+0x4c>
 8004b8a:	00b2      	lsls	r2, r6, #2
 8004b8c:	0fb3      	lsrs	r3, r6, #30
 8004b8e:	f7fb fb23 	bl	80001d8 <__aeabi_uldivmod>
 8004b92:	2264      	movs	r2, #100	; 0x64
 8004b94:	fbb0 f1f2 	udiv	r1, r0, r2
 8004b98:	fb02 0311 	mls	r3, r2, r1, r0
 8004b9c:	011b      	lsls	r3, r3, #4
 8004b9e:	3332      	adds	r3, #50	; 0x32
 8004ba0:	fbb3 f3f2 	udiv	r3, r3, r2
 8004ba4:	eb03 1301 	add.w	r3, r3, r1, lsl #4
 8004ba8:	e7ea      	b.n	8004b80 <UART_SetConfig+0x8c>
 8004baa:	bf00      	nop
 8004bac:	40011000 	.word	0x40011000

08004bb0 <HAL_UART_Init>:
 8004bb0:	b510      	push	{r4, lr}
 8004bb2:	4604      	mov	r4, r0
 8004bb4:	b340      	cbz	r0, 8004c08 <HAL_UART_Init+0x58>
 8004bb6:	f890 303d 	ldrb.w	r3, [r0, #61]	; 0x3d
 8004bba:	f003 02ff 	and.w	r2, r3, #255	; 0xff
 8004bbe:	b91b      	cbnz	r3, 8004bc8 <HAL_UART_Init+0x18>
 8004bc0:	f880 203c 	strb.w	r2, [r0, #60]	; 0x3c
 8004bc4:	f7fc ff6e 	bl	8001aa4 <HAL_UART_MspInit>
 8004bc8:	6822      	ldr	r2, [r4, #0]
 8004bca:	2324      	movs	r3, #36	; 0x24
 8004bcc:	f884 303d 	strb.w	r3, [r4, #61]	; 0x3d
 8004bd0:	68d3      	ldr	r3, [r2, #12]
 8004bd2:	f423 5300 	bic.w	r3, r3, #8192	; 0x2000
 8004bd6:	60d3      	str	r3, [r2, #12]
 8004bd8:	4620      	mov	r0, r4
 8004bda:	f7ff ff8b 	bl	8004af4 <UART_SetConfig>
 8004bde:	6823      	ldr	r3, [r4, #0]
 8004be0:	691a      	ldr	r2, [r3, #16]
 8004be2:	f422 4290 	bic.w	r2, r2, #18432	; 0x4800
 8004be6:	611a      	str	r2, [r3, #16]
 8004be8:	695a      	ldr	r2, [r3, #20]
 8004bea:	f022 022a 	bic.w	r2, r2, #42	; 0x2a
 8004bee:	615a      	str	r2, [r3, #20]
 8004bf0:	68da      	ldr	r2, [r3, #12]
 8004bf2:	f442 5200 	orr.w	r2, r2, #8192	; 0x2000
 8004bf6:	60da      	str	r2, [r3, #12]
 8004bf8:	2000      	movs	r0, #0
 8004bfa:	2320      	movs	r3, #32
 8004bfc:	6420      	str	r0, [r4, #64]	; 0x40
 8004bfe:	f884 303d 	strb.w	r3, [r4, #61]	; 0x3d
 8004c02:	f884 303e 	strb.w	r3, [r4, #62]	; 0x3e
 8004c06:	bd10      	pop	{r4, pc}
 8004c08:	2001      	movs	r0, #1
 8004c0a:	e7fc      	b.n	8004c06 <HAL_UART_Init+0x56>

08004c0c <HAL_UART_TxCpltCallback>:
 8004c0c:	4770      	bx	lr

08004c0e <HAL_UART_ErrorCallback>:
 8004c0e:	4770      	bx	lr

08004c10 <UART_DMAAbortOnError>:
 8004c10:	b508      	push	{r3, lr}
 8004c12:	6b80      	ldr	r0, [r0, #56]	; 0x38
 8004c14:	2300      	movs	r3, #0
 8004c16:	85c3      	strh	r3, [r0, #46]	; 0x2e
 8004c18:	84c3      	strh	r3, [r0, #38]	; 0x26
 8004c1a:	f7ff fff8 	bl	8004c0e <HAL_UART_ErrorCallback>
 8004c1e:	bd08      	pop	{r3, pc}

08004c20 <HAL_UARTEx_RxEventCallback>:
 8004c20:	4770      	bx	lr

08004c22 <UART_Receive_IT.isra.0>:
 8004c22:	f890 303e 	ldrb.w	r3, [r0, #62]	; 0x3e
 8004c26:	2b22      	cmp	r3, #34	; 0x22
 8004c28:	b507      	push	{r0, r1, r2, lr}
 8004c2a:	d141      	bne.n	8004cb0 <UART_Receive_IT.isra.0+0x8e>
 8004c2c:	6881      	ldr	r1, [r0, #8]
 8004c2e:	6a83      	ldr	r3, [r0, #40]	; 0x28
 8004c30:	6802      	ldr	r2, [r0, #0]
 8004c32:	f5b1 5f80 	cmp.w	r1, #4096	; 0x1000
 8004c36:	d13e      	bne.n	8004cb6 <UART_Receive_IT.isra.0+0x94>
 8004c38:	6901      	ldr	r1, [r0, #16]
 8004c3a:	2900      	cmp	r1, #0
 8004c3c:	d13e      	bne.n	8004cbc <UART_Receive_IT.isra.0+0x9a>
 8004c3e:	6852      	ldr	r2, [r2, #4]
 8004c40:	f3c2 0208 	ubfx	r2, r2, #0, #9
 8004c44:	f823 2b02 	strh.w	r2, [r3], #2
 8004c48:	6283      	str	r3, [r0, #40]	; 0x28
 8004c4a:	8dc3      	ldrh	r3, [r0, #46]	; 0x2e
 8004c4c:	3b01      	subs	r3, #1
 8004c4e:	b29b      	uxth	r3, r3
 8004c50:	85c3      	strh	r3, [r0, #46]	; 0x2e
 8004c52:	2b00      	cmp	r3, #0
 8004c54:	d12c      	bne.n	8004cb0 <UART_Receive_IT.isra.0+0x8e>
 8004c56:	6802      	ldr	r2, [r0, #0]
 8004c58:	68d1      	ldr	r1, [r2, #12]
 8004c5a:	f021 0120 	bic.w	r1, r1, #32
 8004c5e:	60d1      	str	r1, [r2, #12]
 8004c60:	68d1      	ldr	r1, [r2, #12]
 8004c62:	f421 7180 	bic.w	r1, r1, #256	; 0x100
 8004c66:	60d1      	str	r1, [r2, #12]
 8004c68:	6951      	ldr	r1, [r2, #20]
 8004c6a:	f021 0101 	bic.w	r1, r1, #1
 8004c6e:	6151      	str	r1, [r2, #20]
 8004c70:	2220      	movs	r2, #32
 8004c72:	f880 203e 	strb.w	r2, [r0, #62]	; 0x3e
 8004c76:	6b02      	ldr	r2, [r0, #48]	; 0x30
 8004c78:	2a01      	cmp	r2, #1
 8004c7a:	6802      	ldr	r2, [r0, #0]
 8004c7c:	d128      	bne.n	8004cd0 <UART_Receive_IT.isra.0+0xae>
 8004c7e:	6303      	str	r3, [r0, #48]	; 0x30
 8004c80:	f102 030c 	add.w	r3, r2, #12
 8004c84:	e853 3f00 	ldrex	r3, [r3]
 8004c88:	f023 0310 	bic.w	r3, r3, #16
 8004c8c:	f102 0c0c 	add.w	ip, r2, #12
 8004c90:	e84c 3100 	strex	r1, r3, [ip]
 8004c94:	2900      	cmp	r1, #0
 8004c96:	d1f3      	bne.n	8004c80 <UART_Receive_IT.isra.0+0x5e>
 8004c98:	6813      	ldr	r3, [r2, #0]
 8004c9a:	06db      	lsls	r3, r3, #27
 8004c9c:	d505      	bpl.n	8004caa <UART_Receive_IT.isra.0+0x88>
 8004c9e:	9101      	str	r1, [sp, #4]
 8004ca0:	6813      	ldr	r3, [r2, #0]
 8004ca2:	9301      	str	r3, [sp, #4]
 8004ca4:	6853      	ldr	r3, [r2, #4]
 8004ca6:	9301      	str	r3, [sp, #4]
 8004ca8:	9b01      	ldr	r3, [sp, #4]
 8004caa:	8d81      	ldrh	r1, [r0, #44]	; 0x2c
 8004cac:	f7ff ffb8 	bl	8004c20 <HAL_UARTEx_RxEventCallback>
 8004cb0:	b003      	add	sp, #12
 8004cb2:	f85d fb04 	ldr.w	pc, [sp], #4
 8004cb6:	b939      	cbnz	r1, 8004cc8 <UART_Receive_IT.isra.0+0xa6>
 8004cb8:	6901      	ldr	r1, [r0, #16]
 8004cba:	b929      	cbnz	r1, 8004cc8 <UART_Receive_IT.isra.0+0xa6>
 8004cbc:	6852      	ldr	r2, [r2, #4]
 8004cbe:	b2d2      	uxtb	r2, r2
 8004cc0:	701a      	strb	r2, [r3, #0]
 8004cc2:	6a83      	ldr	r3, [r0, #40]	; 0x28
 8004cc4:	3301      	adds	r3, #1
 8004cc6:	e7bf      	b.n	8004c48 <UART_Receive_IT.isra.0+0x26>
 8004cc8:	6852      	ldr	r2, [r2, #4]
 8004cca:	f002 027f 	and.w	r2, r2, #127	; 0x7f
 8004cce:	e7f7      	b.n	8004cc0 <UART_Receive_IT.isra.0+0x9e>
 8004cd0:	f7fc fc5a 	bl	8001588 <HAL_UART_RxCpltCallback>
 8004cd4:	e7ec      	b.n	8004cb0 <UART_Receive_IT.isra.0+0x8e>
	...

08004cd8 <HAL_UART_IRQHandler>:
 8004cd8:	6803      	ldr	r3, [r0, #0]
 8004cda:	681a      	ldr	r2, [r3, #0]
 8004cdc:	b573      	push	{r0, r1, r4, r5, r6, lr}
 8004cde:	0716      	lsls	r6, r2, #28
 8004ce0:	68d9      	ldr	r1, [r3, #12]
 8004ce2:	695d      	ldr	r5, [r3, #20]
 8004ce4:	4604      	mov	r4, r0
 8004ce6:	d108      	bne.n	8004cfa <HAL_UART_IRQHandler+0x22>
 8004ce8:	0696      	lsls	r6, r2, #26
 8004cea:	d568      	bpl.n	8004dbe <HAL_UART_IRQHandler+0xe6>
 8004cec:	068d      	lsls	r5, r1, #26
 8004cee:	d566      	bpl.n	8004dbe <HAL_UART_IRQHandler+0xe6>
 8004cf0:	b002      	add	sp, #8
 8004cf2:	e8bd 4070 	ldmia.w	sp!, {r4, r5, r6, lr}
 8004cf6:	f7ff bf94 	b.w	8004c22 <UART_Receive_IT.isra.0>
 8004cfa:	f005 0001 	and.w	r0, r5, #1
 8004cfe:	f401 7590 	and.w	r5, r1, #288	; 0x120
 8004d02:	4305      	orrs	r5, r0
 8004d04:	d05b      	beq.n	8004dbe <HAL_UART_IRQHandler+0xe6>
 8004d06:	07d6      	lsls	r6, r2, #31
 8004d08:	d505      	bpl.n	8004d16 <HAL_UART_IRQHandler+0x3e>
 8004d0a:	05cd      	lsls	r5, r1, #23
 8004d0c:	bf42      	ittt	mi
 8004d0e:	6c23      	ldrmi	r3, [r4, #64]	; 0x40
 8004d10:	f043 0301 	orrmi.w	r3, r3, #1
 8004d14:	6423      	strmi	r3, [r4, #64]	; 0x40
 8004d16:	0753      	lsls	r3, r2, #29
 8004d18:	d504      	bpl.n	8004d24 <HAL_UART_IRQHandler+0x4c>
 8004d1a:	b118      	cbz	r0, 8004d24 <HAL_UART_IRQHandler+0x4c>
 8004d1c:	6c23      	ldr	r3, [r4, #64]	; 0x40
 8004d1e:	f043 0302 	orr.w	r3, r3, #2
 8004d22:	6423      	str	r3, [r4, #64]	; 0x40
 8004d24:	0796      	lsls	r6, r2, #30
 8004d26:	d504      	bpl.n	8004d32 <HAL_UART_IRQHandler+0x5a>
 8004d28:	b118      	cbz	r0, 8004d32 <HAL_UART_IRQHandler+0x5a>
 8004d2a:	6c23      	ldr	r3, [r4, #64]	; 0x40
 8004d2c:	f043 0304 	orr.w	r3, r3, #4
 8004d30:	6423      	str	r3, [r4, #64]	; 0x40
 8004d32:	0715      	lsls	r5, r2, #28
 8004d34:	d507      	bpl.n	8004d46 <HAL_UART_IRQHandler+0x6e>
 8004d36:	f001 0320 	and.w	r3, r1, #32
 8004d3a:	4303      	orrs	r3, r0
 8004d3c:	bf1e      	ittt	ne
 8004d3e:	6c23      	ldrne	r3, [r4, #64]	; 0x40
 8004d40:	f043 0308 	orrne.w	r3, r3, #8
 8004d44:	6423      	strne	r3, [r4, #64]	; 0x40
 8004d46:	6c23      	ldr	r3, [r4, #64]	; 0x40
 8004d48:	2b00      	cmp	r3, #0
 8004d4a:	d032      	beq.n	8004db2 <HAL_UART_IRQHandler+0xda>
 8004d4c:	0692      	lsls	r2, r2, #26
 8004d4e:	d504      	bpl.n	8004d5a <HAL_UART_IRQHandler+0x82>
 8004d50:	068b      	lsls	r3, r1, #26
 8004d52:	d502      	bpl.n	8004d5a <HAL_UART_IRQHandler+0x82>
 8004d54:	4620      	mov	r0, r4
 8004d56:	f7ff ff64 	bl	8004c22 <UART_Receive_IT.isra.0>
 8004d5a:	6826      	ldr	r6, [r4, #0]
 8004d5c:	6973      	ldr	r3, [r6, #20]
 8004d5e:	6c22      	ldr	r2, [r4, #64]	; 0x40
 8004d60:	f003 0340 	and.w	r3, r3, #64	; 0x40
 8004d64:	f002 0208 	and.w	r2, r2, #8
 8004d68:	ea53 0502 	orrs.w	r5, r3, r2
 8004d6c:	4620      	mov	r0, r4
 8004d6e:	d022      	beq.n	8004db6 <HAL_UART_IRQHandler+0xde>
 8004d70:	f7ff fe92 	bl	8004a98 <UART_EndRxTransfer>
 8004d74:	6973      	ldr	r3, [r6, #20]
 8004d76:	065e      	lsls	r6, r3, #25
 8004d78:	d518      	bpl.n	8004dac <HAL_UART_IRQHandler+0xd4>
 8004d7a:	6822      	ldr	r2, [r4, #0]
 8004d7c:	f102 0314 	add.w	r3, r2, #20
 8004d80:	e853 3f00 	ldrex	r3, [r3]
 8004d84:	f023 0340 	bic.w	r3, r3, #64	; 0x40
 8004d88:	3214      	adds	r2, #20
 8004d8a:	e842 3100 	strex	r1, r3, [r2]
 8004d8e:	2900      	cmp	r1, #0
 8004d90:	d1f3      	bne.n	8004d7a <HAL_UART_IRQHandler+0xa2>
 8004d92:	6ba0      	ldr	r0, [r4, #56]	; 0x38
 8004d94:	b150      	cbz	r0, 8004dac <HAL_UART_IRQHandler+0xd4>
 8004d96:	4b72      	ldr	r3, [pc, #456]	; (8004f60 <HAL_UART_IRQHandler+0x288>)
 8004d98:	6503      	str	r3, [r0, #80]	; 0x50
 8004d9a:	f7fd fa50 	bl	800223e <HAL_DMA_Abort_IT>
 8004d9e:	b140      	cbz	r0, 8004db2 <HAL_UART_IRQHandler+0xda>
 8004da0:	6ba0      	ldr	r0, [r4, #56]	; 0x38
 8004da2:	6d03      	ldr	r3, [r0, #80]	; 0x50
 8004da4:	b002      	add	sp, #8
 8004da6:	e8bd 4070 	ldmia.w	sp!, {r4, r5, r6, lr}
 8004daa:	4718      	bx	r3
 8004dac:	4620      	mov	r0, r4
 8004dae:	f7ff ff2e 	bl	8004c0e <HAL_UART_ErrorCallback>
 8004db2:	b002      	add	sp, #8
 8004db4:	bd70      	pop	{r4, r5, r6, pc}
 8004db6:	f7ff ff2a 	bl	8004c0e <HAL_UART_ErrorCallback>
 8004dba:	6425      	str	r5, [r4, #64]	; 0x40
 8004dbc:	e7f9      	b.n	8004db2 <HAL_UART_IRQHandler+0xda>
 8004dbe:	6b20      	ldr	r0, [r4, #48]	; 0x30
 8004dc0:	2801      	cmp	r0, #1
 8004dc2:	f040 8091 	bne.w	8004ee8 <HAL_UART_IRQHandler+0x210>
 8004dc6:	06d5      	lsls	r5, r2, #27
 8004dc8:	f140 808e 	bpl.w	8004ee8 <HAL_UART_IRQHandler+0x210>
 8004dcc:	06c8      	lsls	r0, r1, #27
 8004dce:	f140 808b 	bpl.w	8004ee8 <HAL_UART_IRQHandler+0x210>
 8004dd2:	2200      	movs	r2, #0
 8004dd4:	9201      	str	r2, [sp, #4]
 8004dd6:	681a      	ldr	r2, [r3, #0]
 8004dd8:	9201      	str	r2, [sp, #4]
 8004dda:	685a      	ldr	r2, [r3, #4]
 8004ddc:	9201      	str	r2, [sp, #4]
 8004dde:	9a01      	ldr	r2, [sp, #4]
 8004de0:	695a      	ldr	r2, [r3, #20]
 8004de2:	0652      	lsls	r2, r2, #25
 8004de4:	d54c      	bpl.n	8004e80 <HAL_UART_IRQHandler+0x1a8>
 8004de6:	6ba1      	ldr	r1, [r4, #56]	; 0x38
 8004de8:	680a      	ldr	r2, [r1, #0]
 8004dea:	6852      	ldr	r2, [r2, #4]
 8004dec:	b292      	uxth	r2, r2
 8004dee:	2a00      	cmp	r2, #0
 8004df0:	d0df      	beq.n	8004db2 <HAL_UART_IRQHandler+0xda>
 8004df2:	8da0      	ldrh	r0, [r4, #44]	; 0x2c
 8004df4:	4290      	cmp	r0, r2
 8004df6:	d9dc      	bls.n	8004db2 <HAL_UART_IRQHandler+0xda>
 8004df8:	85e2      	strh	r2, [r4, #46]	; 0x2e
 8004dfa:	69ca      	ldr	r2, [r1, #28]
 8004dfc:	f5b2 7f80 	cmp.w	r2, #256	; 0x100
 8004e00:	d036      	beq.n	8004e70 <HAL_UART_IRQHandler+0x198>
 8004e02:	f103 020c 	add.w	r2, r3, #12
 8004e06:	e852 2f00 	ldrex	r2, [r2]
 8004e0a:	f422 7280 	bic.w	r2, r2, #256	; 0x100
 8004e0e:	f103 000c 	add.w	r0, r3, #12
 8004e12:	e840 2100 	strex	r1, r2, [r0]
 8004e16:	2900      	cmp	r1, #0
 8004e18:	d1f3      	bne.n	8004e02 <HAL_UART_IRQHandler+0x12a>
 8004e1a:	f103 0214 	add.w	r2, r3, #20
 8004e1e:	e852 2f00 	ldrex	r2, [r2]
 8004e22:	f022 0201 	bic.w	r2, r2, #1
 8004e26:	f103 0014 	add.w	r0, r3, #20
 8004e2a:	e840 2100 	strex	r1, r2, [r0]
 8004e2e:	2900      	cmp	r1, #0
 8004e30:	d1f3      	bne.n	8004e1a <HAL_UART_IRQHandler+0x142>
 8004e32:	f103 0214 	add.w	r2, r3, #20
 8004e36:	e852 2f00 	ldrex	r2, [r2]
 8004e3a:	f022 0240 	bic.w	r2, r2, #64	; 0x40
 8004e3e:	f103 0014 	add.w	r0, r3, #20
 8004e42:	e840 2100 	strex	r1, r2, [r0]
 8004e46:	2900      	cmp	r1, #0
 8004e48:	d1f3      	bne.n	8004e32 <HAL_UART_IRQHandler+0x15a>
 8004e4a:	2220      	movs	r2, #32
 8004e4c:	f884 203e 	strb.w	r2, [r4, #62]	; 0x3e
 8004e50:	6321      	str	r1, [r4, #48]	; 0x30
 8004e52:	f103 020c 	add.w	r2, r3, #12
 8004e56:	e852 2f00 	ldrex	r2, [r2]
 8004e5a:	f022 0210 	bic.w	r2, r2, #16
 8004e5e:	f103 000c 	add.w	r0, r3, #12
 8004e62:	e840 2100 	strex	r1, r2, [r0]
 8004e66:	2900      	cmp	r1, #0
 8004e68:	d1f3      	bne.n	8004e52 <HAL_UART_IRQHandler+0x17a>
 8004e6a:	6ba0      	ldr	r0, [r4, #56]	; 0x38
 8004e6c:	f7fd f9a8 	bl	80021c0 <HAL_DMA_Abort>
 8004e70:	8de3      	ldrh	r3, [r4, #46]	; 0x2e
 8004e72:	8da1      	ldrh	r1, [r4, #44]	; 0x2c
 8004e74:	1ac9      	subs	r1, r1, r3
 8004e76:	b289      	uxth	r1, r1
 8004e78:	4620      	mov	r0, r4
 8004e7a:	f7ff fed1 	bl	8004c20 <HAL_UARTEx_RxEventCallback>
 8004e7e:	e798      	b.n	8004db2 <HAL_UART_IRQHandler+0xda>
 8004e80:	8de2      	ldrh	r2, [r4, #46]	; 0x2e
 8004e82:	8de0      	ldrh	r0, [r4, #46]	; 0x2e
 8004e84:	8da1      	ldrh	r1, [r4, #44]	; 0x2c
 8004e86:	b280      	uxth	r0, r0
 8004e88:	b292      	uxth	r2, r2
 8004e8a:	2800      	cmp	r0, #0
 8004e8c:	d091      	beq.n	8004db2 <HAL_UART_IRQHandler+0xda>
 8004e8e:	1a89      	subs	r1, r1, r2
 8004e90:	b289      	uxth	r1, r1
 8004e92:	2900      	cmp	r1, #0
 8004e94:	d08d      	beq.n	8004db2 <HAL_UART_IRQHandler+0xda>
 8004e96:	f103 020c 	add.w	r2, r3, #12
 8004e9a:	e852 2f00 	ldrex	r2, [r2]
 8004e9e:	f422 7290 	bic.w	r2, r2, #288	; 0x120
 8004ea2:	f103 050c 	add.w	r5, r3, #12
 8004ea6:	e845 2000 	strex	r0, r2, [r5]
 8004eaa:	2800      	cmp	r0, #0
 8004eac:	d1f3      	bne.n	8004e96 <HAL_UART_IRQHandler+0x1be>
 8004eae:	f103 0214 	add.w	r2, r3, #20
 8004eb2:	e852 2f00 	ldrex	r2, [r2]
 8004eb6:	f022 0201 	bic.w	r2, r2, #1
 8004eba:	f103 0514 	add.w	r5, r3, #20
 8004ebe:	e845 2000 	strex	r0, r2, [r5]
 8004ec2:	2800      	cmp	r0, #0
 8004ec4:	d1f3      	bne.n	8004eae <HAL_UART_IRQHandler+0x1d6>
 8004ec6:	2220      	movs	r2, #32
 8004ec8:	f884 203e 	strb.w	r2, [r4, #62]	; 0x3e
 8004ecc:	6320      	str	r0, [r4, #48]	; 0x30
 8004ece:	f103 020c 	add.w	r2, r3, #12
 8004ed2:	e852 2f00 	ldrex	r2, [r2]
 8004ed6:	f022 0210 	bic.w	r2, r2, #16
 8004eda:	f103 050c 	add.w	r5, r3, #12
 8004ede:	e845 2000 	strex	r0, r2, [r5]
 8004ee2:	2800      	cmp	r0, #0
 8004ee4:	d1f3      	bne.n	8004ece <HAL_UART_IRQHandler+0x1f6>
 8004ee6:	e7c7      	b.n	8004e78 <HAL_UART_IRQHandler+0x1a0>
 8004ee8:	0616      	lsls	r6, r2, #24
 8004eea:	d528      	bpl.n	8004f3e <HAL_UART_IRQHandler+0x266>
 8004eec:	060d      	lsls	r5, r1, #24
 8004eee:	d526      	bpl.n	8004f3e <HAL_UART_IRQHandler+0x266>
 8004ef0:	f894 203d 	ldrb.w	r2, [r4, #61]	; 0x3d
 8004ef4:	2a21      	cmp	r2, #33	; 0x21
 8004ef6:	f47f af5c 	bne.w	8004db2 <HAL_UART_IRQHandler+0xda>
 8004efa:	68a1      	ldr	r1, [r4, #8]
 8004efc:	6a22      	ldr	r2, [r4, #32]
 8004efe:	f5b1 5f80 	cmp.w	r1, #4096	; 0x1000
 8004f02:	d117      	bne.n	8004f34 <HAL_UART_IRQHandler+0x25c>
 8004f04:	6921      	ldr	r1, [r4, #16]
 8004f06:	b9a9      	cbnz	r1, 8004f34 <HAL_UART_IRQHandler+0x25c>
 8004f08:	f832 1b02 	ldrh.w	r1, [r2], #2
 8004f0c:	f3c1 0108 	ubfx	r1, r1, #0, #9
 8004f10:	6059      	str	r1, [r3, #4]
 8004f12:	6222      	str	r2, [r4, #32]
 8004f14:	8ce2      	ldrh	r2, [r4, #38]	; 0x26
 8004f16:	3a01      	subs	r2, #1
 8004f18:	b292      	uxth	r2, r2
 8004f1a:	84e2      	strh	r2, [r4, #38]	; 0x26
 8004f1c:	2a00      	cmp	r2, #0
 8004f1e:	f47f af48 	bne.w	8004db2 <HAL_UART_IRQHandler+0xda>
 8004f22:	68da      	ldr	r2, [r3, #12]
 8004f24:	f022 0280 	bic.w	r2, r2, #128	; 0x80
 8004f28:	60da      	str	r2, [r3, #12]
 8004f2a:	68da      	ldr	r2, [r3, #12]
 8004f2c:	f042 0240 	orr.w	r2, r2, #64	; 0x40
 8004f30:	60da      	str	r2, [r3, #12]
 8004f32:	e73e      	b.n	8004db2 <HAL_UART_IRQHandler+0xda>
 8004f34:	1c51      	adds	r1, r2, #1
 8004f36:	6221      	str	r1, [r4, #32]
 8004f38:	7812      	ldrb	r2, [r2, #0]
 8004f3a:	605a      	str	r2, [r3, #4]
 8004f3c:	e7ea      	b.n	8004f14 <HAL_UART_IRQHandler+0x23c>
 8004f3e:	0650      	lsls	r0, r2, #25
 8004f40:	f57f af37 	bpl.w	8004db2 <HAL_UART_IRQHandler+0xda>
 8004f44:	064a      	lsls	r2, r1, #25
 8004f46:	f57f af34 	bpl.w	8004db2 <HAL_UART_IRQHandler+0xda>
 8004f4a:	68da      	ldr	r2, [r3, #12]
 8004f4c:	f022 0240 	bic.w	r2, r2, #64	; 0x40
 8004f50:	60da      	str	r2, [r3, #12]
 8004f52:	2320      	movs	r3, #32
 8004f54:	f884 303d 	strb.w	r3, [r4, #61]	; 0x3d
 8004f58:	4620      	mov	r0, r4
 8004f5a:	f7ff fe57 	bl	8004c0c <HAL_UART_TxCpltCallback>
 8004f5e:	e728      	b.n	8004db2 <HAL_UART_IRQHandler+0xda>
 8004f60:	08004c11 	.word	0x08004c11

08004f64 <UART_Start_Receive_IT>:
 8004f64:	85c2      	strh	r2, [r0, #46]	; 0x2e
 8004f66:	2300      	movs	r3, #0
 8004f68:	8582      	strh	r2, [r0, #44]	; 0x2c
 8004f6a:	2222      	movs	r2, #34	; 0x22
 8004f6c:	6403      	str	r3, [r0, #64]	; 0x40
 8004f6e:	f880 203e 	strb.w	r2, [r0, #62]	; 0x3e
 8004f72:	6902      	ldr	r2, [r0, #16]
 8004f74:	f880 303c 	strb.w	r3, [r0, #60]	; 0x3c
 8004f78:	6281      	str	r1, [r0, #40]	; 0x28
 8004f7a:	6803      	ldr	r3, [r0, #0]
 8004f7c:	b11a      	cbz	r2, 8004f86 <UART_Start_Receive_IT+0x22>
 8004f7e:	68da      	ldr	r2, [r3, #12]
 8004f80:	f442 7280 	orr.w	r2, r2, #256	; 0x100
 8004f84:	60da      	str	r2, [r3, #12]
 8004f86:	695a      	ldr	r2, [r3, #20]
 8004f88:	f042 0201 	orr.w	r2, r2, #1
 8004f8c:	615a      	str	r2, [r3, #20]
 8004f8e:	68da      	ldr	r2, [r3, #12]
 8004f90:	f042 0220 	orr.w	r2, r2, #32
 8004f94:	60da      	str	r2, [r3, #12]
 8004f96:	2000      	movs	r0, #0
 8004f98:	4770      	bx	lr

08004f9a <HAL_UART_Receive_IT>:
 8004f9a:	b470      	push	{r4, r5, r6}
 8004f9c:	f890 603e 	ldrb.w	r6, [r0, #62]	; 0x3e
 8004fa0:	2e20      	cmp	r6, #32
 8004fa2:	d110      	bne.n	8004fc6 <HAL_UART_Receive_IT+0x2c>
 8004fa4:	b161      	cbz	r1, 8004fc0 <HAL_UART_Receive_IT+0x26>
 8004fa6:	b15a      	cbz	r2, 8004fc0 <HAL_UART_Receive_IT+0x26>
 8004fa8:	f890 403c 	ldrb.w	r4, [r0, #60]	; 0x3c
 8004fac:	2c01      	cmp	r4, #1
 8004fae:	d00a      	beq.n	8004fc6 <HAL_UART_Receive_IT+0x2c>
 8004fb0:	2401      	movs	r4, #1
 8004fb2:	f880 403c 	strb.w	r4, [r0, #60]	; 0x3c
 8004fb6:	2400      	movs	r4, #0
 8004fb8:	6304      	str	r4, [r0, #48]	; 0x30
 8004fba:	bc70      	pop	{r4, r5, r6}
 8004fbc:	f7ff bfd2 	b.w	8004f64 <UART_Start_Receive_IT>
 8004fc0:	2001      	movs	r0, #1
 8004fc2:	bc70      	pop	{r4, r5, r6}
 8004fc4:	4770      	bx	lr
 8004fc6:	2002      	movs	r0, #2
 8004fc8:	e7fb      	b.n	8004fc2 <HAL_UART_Receive_IT+0x28>
	...

08004fcc <USB_CoreReset>:
 8004fcc:	b082      	sub	sp, #8
 8004fce:	2300      	movs	r3, #0
 8004fd0:	4a10      	ldr	r2, [pc, #64]	; (8005014 <USB_CoreReset+0x48>)
 8004fd2:	9301      	str	r3, [sp, #4]
 8004fd4:	9b01      	ldr	r3, [sp, #4]
 8004fd6:	3301      	adds	r3, #1
 8004fd8:	9301      	str	r3, [sp, #4]
 8004fda:	9b01      	ldr	r3, [sp, #4]
 8004fdc:	4293      	cmp	r3, r2
 8004fde:	d816      	bhi.n	800500e <USB_CoreReset+0x42>
 8004fe0:	6903      	ldr	r3, [r0, #16]
 8004fe2:	2b00      	cmp	r3, #0
 8004fe4:	daf6      	bge.n	8004fd4 <USB_CoreReset+0x8>
 8004fe6:	2300      	movs	r3, #0
 8004fe8:	9301      	str	r3, [sp, #4]
 8004fea:	6903      	ldr	r3, [r0, #16]
 8004fec:	4a09      	ldr	r2, [pc, #36]	; (8005014 <USB_CoreReset+0x48>)
 8004fee:	f043 0301 	orr.w	r3, r3, #1
 8004ff2:	6103      	str	r3, [r0, #16]
 8004ff4:	9b01      	ldr	r3, [sp, #4]
 8004ff6:	3301      	adds	r3, #1
 8004ff8:	9301      	str	r3, [sp, #4]
 8004ffa:	9b01      	ldr	r3, [sp, #4]
 8004ffc:	4293      	cmp	r3, r2
 8004ffe:	d806      	bhi.n	800500e <USB_CoreReset+0x42>
 8005000:	6903      	ldr	r3, [r0, #16]
 8005002:	f013 0301 	ands.w	r3, r3, #1
 8005006:	d1f5      	bne.n	8004ff4 <USB_CoreReset+0x28>
 8005008:	4618      	mov	r0, r3
 800500a:	b002      	add	sp, #8
 800500c:	4770      	bx	lr
 800500e:	2003      	movs	r0, #3
 8005010:	e7fb      	b.n	800500a <USB_CoreReset+0x3e>
 8005012:	bf00      	nop
 8005014:	00030d40 	.word	0x00030d40

08005018 <USB_CoreInit>:
 8005018:	b084      	sub	sp, #16
 800501a:	b538      	push	{r3, r4, r5, lr}
 800501c:	ad05      	add	r5, sp, #20
 800501e:	e885 000e 	stmia.w	r5, {r1, r2, r3}
 8005022:	9b0a      	ldr	r3, [sp, #40]	; 0x28
 8005024:	2b01      	cmp	r3, #1
 8005026:	4604      	mov	r4, r0
 8005028:	d125      	bne.n	8005076 <USB_CoreInit+0x5e>
 800502a:	6b83      	ldr	r3, [r0, #56]	; 0x38
 800502c:	f423 3380 	bic.w	r3, r3, #65536	; 0x10000
 8005030:	6383      	str	r3, [r0, #56]	; 0x38
 8005032:	68c3      	ldr	r3, [r0, #12]
 8005034:	f423 0384 	bic.w	r3, r3, #4325376	; 0x420000
 8005038:	f023 0340 	bic.w	r3, r3, #64	; 0x40
 800503c:	60c3      	str	r3, [r0, #12]
 800503e:	68c3      	ldr	r3, [r0, #12]
 8005040:	f423 1340 	bic.w	r3, r3, #3145728	; 0x300000
 8005044:	60c3      	str	r3, [r0, #12]
 8005046:	9b11      	ldr	r3, [sp, #68]	; 0x44
 8005048:	2b01      	cmp	r3, #1
 800504a:	bf02      	ittt	eq
 800504c:	68c3      	ldreq	r3, [r0, #12]
 800504e:	f443 1380 	orreq.w	r3, r3, #1048576	; 0x100000
 8005052:	60c3      	streq	r3, [r0, #12]
 8005054:	f7ff ffba 	bl	8004fcc <USB_CoreReset>
 8005058:	9b08      	ldr	r3, [sp, #32]
 800505a:	2b01      	cmp	r3, #1
 800505c:	d107      	bne.n	800506e <USB_CoreInit+0x56>
 800505e:	68a3      	ldr	r3, [r4, #8]
 8005060:	f043 0306 	orr.w	r3, r3, #6
 8005064:	60a3      	str	r3, [r4, #8]
 8005066:	68a3      	ldr	r3, [r4, #8]
 8005068:	f043 0320 	orr.w	r3, r3, #32
 800506c:	60a3      	str	r3, [r4, #8]
 800506e:	e8bd 4038 	ldmia.w	sp!, {r3, r4, r5, lr}
 8005072:	b004      	add	sp, #16
 8005074:	4770      	bx	lr
 8005076:	68c3      	ldr	r3, [r0, #12]
 8005078:	f043 0340 	orr.w	r3, r3, #64	; 0x40
 800507c:	60c3      	str	r3, [r0, #12]
 800507e:	f7ff ffa5 	bl	8004fcc <USB_CoreReset>
 8005082:	9b0e      	ldr	r3, [sp, #56]	; 0x38
 8005084:	b923      	cbnz	r3, 8005090 <USB_CoreInit+0x78>
 8005086:	6ba3      	ldr	r3, [r4, #56]	; 0x38
 8005088:	f443 3380 	orr.w	r3, r3, #65536	; 0x10000
 800508c:	63a3      	str	r3, [r4, #56]	; 0x38
 800508e:	e7e3      	b.n	8005058 <USB_CoreInit+0x40>
 8005090:	6ba3      	ldr	r3, [r4, #56]	; 0x38
 8005092:	f423 3380 	bic.w	r3, r3, #65536	; 0x10000
 8005096:	e7f9      	b.n	800508c <USB_CoreInit+0x74>

08005098 <USB_EnableGlobalInt>:
 8005098:	6883      	ldr	r3, [r0, #8]
 800509a:	f043 0301 	orr.w	r3, r3, #1
 800509e:	6083      	str	r3, [r0, #8]
 80050a0:	2000      	movs	r0, #0
 80050a2:	4770      	bx	lr

080050a4 <USB_DisableGlobalInt>:
 80050a4:	6883      	ldr	r3, [r0, #8]
 80050a6:	f023 0301 	bic.w	r3, r3, #1
 80050aa:	6083      	str	r3, [r0, #8]
 80050ac:	2000      	movs	r0, #0
 80050ae:	4770      	bx	lr

080050b0 <USB_SetCurrentMode>:
 80050b0:	b538      	push	{r3, r4, r5, lr}
 80050b2:	68c3      	ldr	r3, [r0, #12]
 80050b4:	2901      	cmp	r1, #1
 80050b6:	f023 43c0 	bic.w	r3, r3, #1610612736	; 0x60000000
 80050ba:	4605      	mov	r5, r0
 80050bc:	60c3      	str	r3, [r0, #12]
 80050be:	d110      	bne.n	80050e2 <USB_SetCurrentMode+0x32>
 80050c0:	68c3      	ldr	r3, [r0, #12]
 80050c2:	f043 5300 	orr.w	r3, r3, #536870912	; 0x20000000
 80050c6:	60c3      	str	r3, [r0, #12]
 80050c8:	2400      	movs	r4, #0
 80050ca:	2001      	movs	r0, #1
 80050cc:	f7fc ff06 	bl	8001edc <HAL_Delay>
 80050d0:	696b      	ldr	r3, [r5, #20]
 80050d2:	07d9      	lsls	r1, r3, #31
 80050d4:	f104 0401 	add.w	r4, r4, #1
 80050d8:	d415      	bmi.n	8005106 <USB_SetCurrentMode+0x56>
 80050da:	2c32      	cmp	r4, #50	; 0x32
 80050dc:	d1f5      	bne.n	80050ca <USB_SetCurrentMode+0x1a>
 80050de:	2001      	movs	r0, #1
 80050e0:	bd38      	pop	{r3, r4, r5, pc}
 80050e2:	2900      	cmp	r1, #0
 80050e4:	d1fb      	bne.n	80050de <USB_SetCurrentMode+0x2e>
 80050e6:	68c3      	ldr	r3, [r0, #12]
 80050e8:	f043 4380 	orr.w	r3, r3, #1073741824	; 0x40000000
 80050ec:	60c3      	str	r3, [r0, #12]
 80050ee:	460c      	mov	r4, r1
 80050f0:	2001      	movs	r0, #1
 80050f2:	f7fc fef3 	bl	8001edc <HAL_Delay>
 80050f6:	696b      	ldr	r3, [r5, #20]
 80050f8:	07da      	lsls	r2, r3, #31
 80050fa:	f104 0401 	add.w	r4, r4, #1
 80050fe:	d502      	bpl.n	8005106 <USB_SetCurrentMode+0x56>
 8005100:	2c32      	cmp	r4, #50	; 0x32
 8005102:	d1f5      	bne.n	80050f0 <USB_SetCurrentMode+0x40>
 8005104:	e7eb      	b.n	80050de <USB_SetCurrentMode+0x2e>
 8005106:	f1a4 0332 	sub.w	r3, r4, #50	; 0x32
 800510a:	4258      	negs	r0, r3
 800510c:	4158      	adcs	r0, r3
 800510e:	e7e7      	b.n	80050e0 <USB_SetCurrentMode+0x30>

08005110 <USB_FlushTxFifo>:
 8005110:	b082      	sub	sp, #8
 8005112:	2300      	movs	r3, #0
 8005114:	4a10      	ldr	r2, [pc, #64]	; (8005158 <USB_FlushTxFifo+0x48>)
 8005116:	9301      	str	r3, [sp, #4]
 8005118:	9b01      	ldr	r3, [sp, #4]
 800511a:	3301      	adds	r3, #1
 800511c:	9301      	str	r3, [sp, #4]
 800511e:	9b01      	ldr	r3, [sp, #4]
 8005120:	4293      	cmp	r3, r2
 8005122:	d816      	bhi.n	8005152 <USB_FlushTxFifo+0x42>
 8005124:	6903      	ldr	r3, [r0, #16]
 8005126:	2b00      	cmp	r3, #0
 8005128:	daf6      	bge.n	8005118 <USB_FlushTxFifo+0x8>
 800512a:	0189      	lsls	r1, r1, #6
 800512c:	2300      	movs	r3, #0
 800512e:	f041 0120 	orr.w	r1, r1, #32
 8005132:	4a09      	ldr	r2, [pc, #36]	; (8005158 <USB_FlushTxFifo+0x48>)
 8005134:	9301      	str	r3, [sp, #4]
 8005136:	6101      	str	r1, [r0, #16]
 8005138:	9b01      	ldr	r3, [sp, #4]
 800513a:	3301      	adds	r3, #1
 800513c:	9301      	str	r3, [sp, #4]
 800513e:	9b01      	ldr	r3, [sp, #4]
 8005140:	4293      	cmp	r3, r2
 8005142:	d806      	bhi.n	8005152 <USB_FlushTxFifo+0x42>
 8005144:	6903      	ldr	r3, [r0, #16]
 8005146:	f013 0320 	ands.w	r3, r3, #32
 800514a:	d1f5      	bne.n	8005138 <USB_FlushTxFifo+0x28>
 800514c:	4618      	mov	r0, r3
 800514e:	b002      	add	sp, #8
 8005150:	4770      	bx	lr
 8005152:	2003      	movs	r0, #3
 8005154:	e7fb      	b.n	800514e <USB_FlushTxFifo+0x3e>
 8005156:	bf00      	nop
 8005158:	00030d40 	.word	0x00030d40

0800515c <USB_FlushRxFifo>:
 800515c:	b082      	sub	sp, #8
 800515e:	2300      	movs	r3, #0
 8005160:	4a0f      	ldr	r2, [pc, #60]	; (80051a0 <USB_FlushRxFifo+0x44>)
 8005162:	9301      	str	r3, [sp, #4]
 8005164:	9b01      	ldr	r3, [sp, #4]
 8005166:	3301      	adds	r3, #1
 8005168:	9301      	str	r3, [sp, #4]
 800516a:	9b01      	ldr	r3, [sp, #4]
 800516c:	4293      	cmp	r3, r2
 800516e:	d814      	bhi.n	800519a <USB_FlushRxFifo+0x3e>
 8005170:	6903      	ldr	r3, [r0, #16]
 8005172:	2b00      	cmp	r3, #0
 8005174:	daf6      	bge.n	8005164 <USB_FlushRxFifo+0x8>
 8005176:	2300      	movs	r3, #0
 8005178:	9301      	str	r3, [sp, #4]
 800517a:	4a09      	ldr	r2, [pc, #36]	; (80051a0 <USB_FlushRxFifo+0x44>)
 800517c:	2310      	movs	r3, #16
 800517e:	6103      	str	r3, [r0, #16]
 8005180:	9b01      	ldr	r3, [sp, #4]
 8005182:	3301      	adds	r3, #1
 8005184:	9301      	str	r3, [sp, #4]
 8005186:	9b01      	ldr	r3, [sp, #4]
 8005188:	4293      	cmp	r3, r2
 800518a:	d806      	bhi.n	800519a <USB_FlushRxFifo+0x3e>
 800518c:	6903      	ldr	r3, [r0, #16]
 800518e:	f013 0310 	ands.w	r3, r3, #16
 8005192:	d1f5      	bne.n	8005180 <USB_FlushRxFifo+0x24>
 8005194:	4618      	mov	r0, r3
 8005196:	b002      	add	sp, #8
 8005198:	4770      	bx	lr
 800519a:	2003      	movs	r0, #3
 800519c:	e7fb      	b.n	8005196 <USB_FlushRxFifo+0x3a>
 800519e:	bf00      	nop
 80051a0:	00030d40 	.word	0x00030d40

080051a4 <USB_WritePacket>:
 80051a4:	b510      	push	{r4, lr}
 80051a6:	f89d 4008 	ldrb.w	r4, [sp, #8]
 80051aa:	b944      	cbnz	r4, 80051be <USB_WritePacket+0x1a>
 80051ac:	3303      	adds	r3, #3
 80051ae:	3201      	adds	r2, #1
 80051b0:	089b      	lsrs	r3, r3, #2
 80051b2:	eb00 3002 	add.w	r0, r0, r2, lsl #12
 80051b6:	eb01 0383 	add.w	r3, r1, r3, lsl #2
 80051ba:	428b      	cmp	r3, r1
 80051bc:	d101      	bne.n	80051c2 <USB_WritePacket+0x1e>
 80051be:	2000      	movs	r0, #0
 80051c0:	bd10      	pop	{r4, pc}
 80051c2:	f851 2b04 	ldr.w	r2, [r1], #4
 80051c6:	6002      	str	r2, [r0, #0]
 80051c8:	e7f7      	b.n	80051ba <USB_WritePacket+0x16>

080051ca <USB_ReadPacket>:
 80051ca:	b570      	push	{r4, r5, r6, lr}
 80051cc:	2300      	movs	r3, #0
 80051ce:	0894      	lsrs	r4, r2, #2
 80051d0:	f500 5580 	add.w	r5, r0, #4096	; 0x1000
 80051d4:	f002 0203 	and.w	r2, r2, #3
 80051d8:	42a3      	cmp	r3, r4
 80051da:	d311      	bcc.n	8005200 <USB_ReadPacket+0x36>
 80051dc:	eb01 0184 	add.w	r1, r1, r4, lsl #2
 80051e0:	b162      	cbz	r2, 80051fc <USB_ReadPacket+0x32>
 80051e2:	f500 5080 	add.w	r0, r0, #4096	; 0x1000
 80051e6:	2300      	movs	r3, #0
 80051e8:	6804      	ldr	r4, [r0, #0]
 80051ea:	00d8      	lsls	r0, r3, #3
 80051ec:	fa24 f000 	lsr.w	r0, r4, r0
 80051f0:	54c8      	strb	r0, [r1, r3]
 80051f2:	3301      	adds	r3, #1
 80051f4:	b298      	uxth	r0, r3
 80051f6:	4282      	cmp	r2, r0
 80051f8:	d1f7      	bne.n	80051ea <USB_ReadPacket+0x20>
 80051fa:	4411      	add	r1, r2
 80051fc:	4608      	mov	r0, r1
 80051fe:	bd70      	pop	{r4, r5, r6, pc}
 8005200:	682e      	ldr	r6, [r5, #0]
 8005202:	f841 6023 	str.w	r6, [r1, r3, lsl #2]
 8005206:	3301      	adds	r3, #1
 8005208:	e7e6      	b.n	80051d8 <USB_ReadPacket+0xe>

0800520a <USB_ReadInterrupts>:
 800520a:	6942      	ldr	r2, [r0, #20]
 800520c:	6980      	ldr	r0, [r0, #24]
 800520e:	4010      	ands	r0, r2
 8005210:	4770      	bx	lr

08005212 <USB_GetMode>:
 8005212:	6940      	ldr	r0, [r0, #20]
 8005214:	f000 0001 	and.w	r0, r0, #1
 8005218:	4770      	bx	lr
	...

0800521c <USB_HostInit>:
 800521c:	b084      	sub	sp, #16
 800521e:	b570      	push	{r4, r5, r6, lr}
 8005220:	4604      	mov	r4, r0
 8005222:	a805      	add	r0, sp, #20
 8005224:	e880 000e 	stmia.w	r0, {r1, r2, r3}
 8005228:	2300      	movs	r3, #0
 800522a:	f8c4 3e00 	str.w	r3, [r4, #3584]	; 0xe00
 800522e:	6ba3      	ldr	r3, [r4, #56]	; 0x38
 8005230:	f443 1300 	orr.w	r3, r3, #2097152	; 0x200000
 8005234:	63a3      	str	r3, [r4, #56]	; 0x38
 8005236:	6ba3      	ldr	r3, [r4, #56]	; 0x38
 8005238:	f423 2300 	bic.w	r3, r3, #524288	; 0x80000
 800523c:	63a3      	str	r3, [r4, #56]	; 0x38
 800523e:	6ba3      	ldr	r3, [r4, #56]	; 0x38
 8005240:	f423 2380 	bic.w	r3, r3, #262144	; 0x40000
 8005244:	63a3      	str	r3, [r4, #56]	; 0x38
 8005246:	6be3      	ldr	r3, [r4, #60]	; 0x3c
 8005248:	05da      	lsls	r2, r3, #23
 800524a:	d53b      	bpl.n	80052c4 <USB_HostInit+0xa8>
 800524c:	9b07      	ldr	r3, [sp, #28]
 800524e:	2b01      	cmp	r3, #1
 8005250:	f8d4 3400 	ldr.w	r3, [r4, #1024]	; 0x400
 8005254:	d138      	bne.n	80052c8 <USB_HostInit+0xac>
 8005256:	f043 0304 	orr.w	r3, r3, #4
 800525a:	f8c4 3400 	str.w	r3, [r4, #1024]	; 0x400
 800525e:	2110      	movs	r1, #16
 8005260:	4620      	mov	r0, r4
 8005262:	f7ff ff55 	bl	8005110 <USB_FlushTxFifo>
 8005266:	4601      	mov	r1, r0
 8005268:	4620      	mov	r0, r4
 800526a:	f7ff ff77 	bl	800515c <USB_FlushRxFifo>
 800526e:	4308      	orrs	r0, r1
 8005270:	b2c0      	uxtb	r0, r0
 8005272:	3800      	subs	r0, #0
 8005274:	f04f 0300 	mov.w	r3, #0
 8005278:	9e06      	ldr	r6, [sp, #24]
 800527a:	bf18      	it	ne
 800527c:	2001      	movne	r0, #1
 800527e:	f504 62a0 	add.w	r2, r4, #1280	; 0x500
 8005282:	461d      	mov	r5, r3
 8005284:	f04f 31ff 	mov.w	r1, #4294967295
 8005288:	429e      	cmp	r6, r3
 800528a:	d120      	bne.n	80052ce <USB_HostInit+0xb2>
 800528c:	61a5      	str	r5, [r4, #24]
 800528e:	6161      	str	r1, [r4, #20]
 8005290:	6be3      	ldr	r3, [r4, #60]	; 0x3c
 8005292:	05db      	lsls	r3, r3, #23
 8005294:	d520      	bpl.n	80052d8 <USB_HostInit+0xbc>
 8005296:	f44f 7300 	mov.w	r3, #512	; 0x200
 800529a:	6263      	str	r3, [r4, #36]	; 0x24
 800529c:	f103 7380 	add.w	r3, r3, #16777216	; 0x1000000
 80052a0:	62a3      	str	r3, [r4, #40]	; 0x28
 80052a2:	4b11      	ldr	r3, [pc, #68]	; (80052e8 <USB_HostInit+0xcc>)
 80052a4:	f8c4 3100 	str.w	r3, [r4, #256]	; 0x100
 80052a8:	9b08      	ldr	r3, [sp, #32]
 80052aa:	b91b      	cbnz	r3, 80052b4 <USB_HostInit+0x98>
 80052ac:	69a3      	ldr	r3, [r4, #24]
 80052ae:	f043 0310 	orr.w	r3, r3, #16
 80052b2:	61a3      	str	r3, [r4, #24]
 80052b4:	69a2      	ldr	r2, [r4, #24]
 80052b6:	4b0d      	ldr	r3, [pc, #52]	; (80052ec <USB_HostInit+0xd0>)
 80052b8:	4313      	orrs	r3, r2
 80052ba:	61a3      	str	r3, [r4, #24]
 80052bc:	e8bd 4070 	ldmia.w	sp!, {r4, r5, r6, lr}
 80052c0:	b004      	add	sp, #16
 80052c2:	4770      	bx	lr
 80052c4:	f8d4 3400 	ldr.w	r3, [r4, #1024]	; 0x400
 80052c8:	f023 0304 	bic.w	r3, r3, #4
 80052cc:	e7c5      	b.n	800525a <USB_HostInit+0x3e>
 80052ce:	6091      	str	r1, [r2, #8]
 80052d0:	3301      	adds	r3, #1
 80052d2:	60d5      	str	r5, [r2, #12]
 80052d4:	3220      	adds	r2, #32
 80052d6:	e7d7      	b.n	8005288 <USB_HostInit+0x6c>
 80052d8:	2380      	movs	r3, #128	; 0x80
 80052da:	6263      	str	r3, [r4, #36]	; 0x24
 80052dc:	f503 03c0 	add.w	r3, r3, #6291456	; 0x600000
 80052e0:	62a3      	str	r3, [r4, #40]	; 0x28
 80052e2:	4b03      	ldr	r3, [pc, #12]	; (80052f0 <USB_HostInit+0xd4>)
 80052e4:	e7de      	b.n	80052a4 <USB_HostInit+0x88>
 80052e6:	bf00      	nop
 80052e8:	00e00300 	.word	0x00e00300
 80052ec:	a3200008 	.word	0xa3200008
 80052f0:	004000e0 	.word	0x004000e0

080052f4 <USB_InitFSLSPClkSel>:
 80052f4:	f8d0 3400 	ldr.w	r3, [r0, #1024]	; 0x400
 80052f8:	f023 0303 	bic.w	r3, r3, #3
 80052fc:	b510      	push	{r4, lr}
 80052fe:	f8c0 3400 	str.w	r3, [r0, #1024]	; 0x400
 8005302:	f8d0 4400 	ldr.w	r4, [r0, #1024]	; 0x400
 8005306:	f001 0303 	and.w	r3, r1, #3
 800530a:	4323      	orrs	r3, r4
 800530c:	2901      	cmp	r1, #1
 800530e:	f500 6280 	add.w	r2, r0, #1024	; 0x400
 8005312:	f8c0 3400 	str.w	r3, [r0, #1024]	; 0x400
 8005316:	d104      	bne.n	8005322 <USB_InitFSLSPClkSel+0x2e>
 8005318:	f64b 3380 	movw	r3, #48000	; 0xbb80
 800531c:	6053      	str	r3, [r2, #4]
 800531e:	2000      	movs	r0, #0
 8005320:	bd10      	pop	{r4, pc}
 8005322:	2902      	cmp	r1, #2
 8005324:	d1fb      	bne.n	800531e <USB_InitFSLSPClkSel+0x2a>
 8005326:	f241 7370 	movw	r3, #6000	; 0x1770
 800532a:	e7f7      	b.n	800531c <USB_InitFSLSPClkSel+0x28>

0800532c <USB_ResetPort>:
 800532c:	b537      	push	{r0, r1, r2, r4, r5, lr}
 800532e:	2500      	movs	r5, #0
 8005330:	9501      	str	r5, [sp, #4]
 8005332:	f8d0 3440 	ldr.w	r3, [r0, #1088]	; 0x440
 8005336:	9301      	str	r3, [sp, #4]
 8005338:	9b01      	ldr	r3, [sp, #4]
 800533a:	f023 032e 	bic.w	r3, r3, #46	; 0x2e
 800533e:	9301      	str	r3, [sp, #4]
 8005340:	9b01      	ldr	r3, [sp, #4]
 8005342:	f443 7380 	orr.w	r3, r3, #256	; 0x100
 8005346:	4604      	mov	r4, r0
 8005348:	f8c0 3440 	str.w	r3, [r0, #1088]	; 0x440
 800534c:	2064      	movs	r0, #100	; 0x64
 800534e:	f7fc fdc5 	bl	8001edc <HAL_Delay>
 8005352:	9b01      	ldr	r3, [sp, #4]
 8005354:	f423 7380 	bic.w	r3, r3, #256	; 0x100
 8005358:	f8c4 3440 	str.w	r3, [r4, #1088]	; 0x440
 800535c:	200a      	movs	r0, #10
 800535e:	f7fc fdbd 	bl	8001edc <HAL_Delay>
 8005362:	4628      	mov	r0, r5
 8005364:	b003      	add	sp, #12
 8005366:	bd30      	pop	{r4, r5, pc}

08005368 <USB_DriveVbus>:
 8005368:	b082      	sub	sp, #8
 800536a:	2300      	movs	r3, #0
 800536c:	9301      	str	r3, [sp, #4]
 800536e:	f8d0 3440 	ldr.w	r3, [r0, #1088]	; 0x440
 8005372:	9301      	str	r3, [sp, #4]
 8005374:	9b01      	ldr	r3, [sp, #4]
 8005376:	f023 032e 	bic.w	r3, r3, #46	; 0x2e
 800537a:	9301      	str	r3, [sp, #4]
 800537c:	9b01      	ldr	r3, [sp, #4]
 800537e:	04da      	lsls	r2, r3, #19
 8005380:	d406      	bmi.n	8005390 <USB_DriveVbus+0x28>
 8005382:	2901      	cmp	r1, #1
 8005384:	bf02      	ittt	eq
 8005386:	9b01      	ldreq	r3, [sp, #4]
 8005388:	f443 5380 	orreq.w	r3, r3, #4096	; 0x1000
 800538c:	f8c0 3440 	streq.w	r3, [r0, #1088]	; 0x440
 8005390:	9b01      	ldr	r3, [sp, #4]
 8005392:	04db      	lsls	r3, r3, #19
 8005394:	d505      	bpl.n	80053a2 <USB_DriveVbus+0x3a>
 8005396:	b921      	cbnz	r1, 80053a2 <USB_DriveVbus+0x3a>
 8005398:	9b01      	ldr	r3, [sp, #4]
 800539a:	f423 5380 	bic.w	r3, r3, #4096	; 0x1000
 800539e:	f8c0 3440 	str.w	r3, [r0, #1088]	; 0x440
 80053a2:	2000      	movs	r0, #0
 80053a4:	b002      	add	sp, #8
 80053a6:	4770      	bx	lr

080053a8 <USB_GetHostSpeed>:
 80053a8:	b082      	sub	sp, #8
 80053aa:	2300      	movs	r3, #0
 80053ac:	9301      	str	r3, [sp, #4]
 80053ae:	f8d0 3440 	ldr.w	r3, [r0, #1088]	; 0x440
 80053b2:	9301      	str	r3, [sp, #4]
 80053b4:	9801      	ldr	r0, [sp, #4]
 80053b6:	f3c0 4041 	ubfx	r0, r0, #17, #2
 80053ba:	b002      	add	sp, #8
 80053bc:	4770      	bx	lr

080053be <USB_GetCurrentFrame>:
 80053be:	f500 6080 	add.w	r0, r0, #1024	; 0x400
 80053c2:	6880      	ldr	r0, [r0, #8]
 80053c4:	b280      	uxth	r0, r0
 80053c6:	4770      	bx	lr

080053c8 <USB_HC_Init>:
 80053c8:	e92d 41f0 	stmdb	sp!, {r4, r5, r6, r7, r8, lr}
 80053cc:	eb00 1741 	add.w	r7, r0, r1, lsl #5
 80053d0:	461c      	mov	r4, r3
 80053d2:	f89d 601c 	ldrb.w	r6, [sp, #28]
 80053d6:	f507 63a0 	add.w	r3, r7, #1280	; 0x500
 80053da:	f04f 35ff 	mov.w	r5, #4294967295
 80053de:	609d      	str	r5, [r3, #8]
 80053e0:	fa4f f882 	sxtb.w	r8, r2
 80053e4:	2e03      	cmp	r6, #3
 80053e6:	d86b      	bhi.n	80054c0 <USB_HC_Init+0xf8>
 80053e8:	e8df f006 	tbb	[pc, r6]
 80053ec:	59026002 	.word	0x59026002
 80053f0:	f240 459d 	movw	r5, #1181	; 0x49d
 80053f4:	f1b8 0f00 	cmp.w	r8, #0
 80053f8:	60dd      	str	r5, [r3, #12]
 80053fa:	da03      	bge.n	8005404 <USB_HC_Init+0x3c>
 80053fc:	68dd      	ldr	r5, [r3, #12]
 80053fe:	f445 7580 	orr.w	r5, r5, #256	; 0x100
 8005402:	e04a      	b.n	800549a <USB_HC_Init+0xd2>
 8005404:	6bc5      	ldr	r5, [r0, #60]	; 0x3c
 8005406:	05ed      	lsls	r5, r5, #23
 8005408:	d444      	bmi.n	8005494 <USB_HC_Init+0xcc>
 800540a:	2500      	movs	r5, #0
 800540c:	f8d3 c00c 	ldr.w	ip, [r3, #12]
 8005410:	f04c 0c02 	orr.w	ip, ip, #2
 8005414:	f8c3 c00c 	str.w	ip, [r3, #12]
 8005418:	f8d0 e418 	ldr.w	lr, [r0, #1048]	; 0x418
 800541c:	f001 010f 	and.w	r1, r1, #15
 8005420:	2301      	movs	r3, #1
 8005422:	408b      	lsls	r3, r1
 8005424:	ea43 030e 	orr.w	r3, r3, lr
 8005428:	f8c0 3418 	str.w	r3, [r0, #1048]	; 0x418
 800542c:	6983      	ldr	r3, [r0, #24]
 800542e:	f043 7300 	orr.w	r3, r3, #33554432	; 0x2000000
 8005432:	6183      	str	r3, [r0, #24]
 8005434:	f7ff ffb8 	bl	80053a8 <USB_GetHostSpeed>
 8005438:	f89d 3018 	ldrb.w	r3, [sp, #24]
 800543c:	ea4f 78d8 	mov.w	r8, r8, lsr #31
 8005440:	2b02      	cmp	r3, #2
 8005442:	ea4f 38c8 	mov.w	r8, r8, lsl #15
 8005446:	d13d      	bne.n	80054c4 <USB_HC_Init+0xfc>
 8005448:	3802      	subs	r0, #2
 800544a:	bf18      	it	ne
 800544c:	2001      	movne	r0, #1
 800544e:	0441      	lsls	r1, r0, #17
 8005450:	f8bd 0020 	ldrh.w	r0, [sp, #32]
 8005454:	05a3      	lsls	r3, r4, #22
 8005456:	f3c0 000a 	ubfx	r0, r0, #0, #11
 800545a:	f003 53fe 	and.w	r3, r3, #532676608	; 0x1fc00000
 800545e:	02d2      	lsls	r2, r2, #11
 8005460:	4303      	orrs	r3, r0
 8005462:	f402 42f0 	and.w	r2, r2, #30720	; 0x7800
 8005466:	4313      	orrs	r3, r2
 8005468:	04b2      	lsls	r2, r6, #18
 800546a:	ea43 0308 	orr.w	r3, r3, r8
 800546e:	f402 2240 	and.w	r2, r2, #786432	; 0xc0000
 8005472:	4313      	orrs	r3, r2
 8005474:	430b      	orrs	r3, r1
 8005476:	f006 06fd 	and.w	r6, r6, #253	; 0xfd
 800547a:	f8c7 3500 	str.w	r3, [r7, #1280]	; 0x500
 800547e:	2e01      	cmp	r6, #1
 8005480:	bf02      	ittt	eq
 8005482:	f8d7 3500 	ldreq.w	r3, [r7, #1280]	; 0x500
 8005486:	f043 5300 	orreq.w	r3, r3, #536870912	; 0x20000000
 800548a:	f8c7 3500 	streq.w	r3, [r7, #1280]	; 0x500
 800548e:	4628      	mov	r0, r5
 8005490:	e8bd 81f0 	ldmia.w	sp!, {r4, r5, r6, r7, r8, pc}
 8005494:	68dd      	ldr	r5, [r3, #12]
 8005496:	f045 0560 	orr.w	r5, r5, #96	; 0x60
 800549a:	60dd      	str	r5, [r3, #12]
 800549c:	e7b5      	b.n	800540a <USB_HC_Init+0x42>
 800549e:	f240 659d 	movw	r5, #1693	; 0x69d
 80054a2:	f1b8 0f00 	cmp.w	r8, #0
 80054a6:	60dd      	str	r5, [r3, #12]
 80054a8:	daaf      	bge.n	800540a <USB_HC_Init+0x42>
 80054aa:	e7a7      	b.n	80053fc <USB_HC_Init+0x34>
 80054ac:	f240 2525 	movw	r5, #549	; 0x225
 80054b0:	f1b8 0f00 	cmp.w	r8, #0
 80054b4:	60dd      	str	r5, [r3, #12]
 80054b6:	daa8      	bge.n	800540a <USB_HC_Init+0x42>
 80054b8:	68dd      	ldr	r5, [r3, #12]
 80054ba:	f445 75c0 	orr.w	r5, r5, #384	; 0x180
 80054be:	e7ec      	b.n	800549a <USB_HC_Init+0xd2>
 80054c0:	2501      	movs	r5, #1
 80054c2:	e7a3      	b.n	800540c <USB_HC_Init+0x44>
 80054c4:	2100      	movs	r1, #0
 80054c6:	e7c3      	b.n	8005450 <USB_HC_Init+0x88>

080054c8 <USB_HC_ReadInterrupt>:
 80054c8:	f500 6080 	add.w	r0, r0, #1024	; 0x400
 80054cc:	6940      	ldr	r0, [r0, #20]
 80054ce:	b280      	uxth	r0, r0
 80054d0:	4770      	bx	lr

080054d2 <USB_HC_Halt>:
 80054d2:	b537      	push	{r0, r1, r2, r4, r5, lr}
 80054d4:	2300      	movs	r3, #0
 80054d6:	eb00 1141 	add.w	r1, r0, r1, lsl #5
 80054da:	9301      	str	r3, [sp, #4]
 80054dc:	f8d1 3500 	ldr.w	r3, [r1, #1280]	; 0x500
 80054e0:	f8d1 4500 	ldr.w	r4, [r1, #1280]	; 0x500
 80054e4:	6885      	ldr	r5, [r0, #8]
 80054e6:	06ad      	lsls	r5, r5, #26
 80054e8:	f501 62a0 	add.w	r2, r1, #1280	; 0x500
 80054ec:	ea4f 4393 	mov.w	r3, r3, lsr #18
 80054f0:	d501      	bpl.n	80054f6 <USB_HC_Halt+0x24>
 80054f2:	2c00      	cmp	r4, #0
 80054f4:	da25      	bge.n	8005542 <USB_HC_Halt+0x70>
 80054f6:	f013 0f01 	tst.w	r3, #1
 80054fa:	f8d1 3500 	ldr.w	r3, [r1, #1280]	; 0x500
 80054fe:	f043 4380 	orr.w	r3, r3, #1073741824	; 0x40000000
 8005502:	f8c1 3500 	str.w	r3, [r1, #1280]	; 0x500
 8005506:	d11f      	bne.n	8005548 <USB_HC_Halt+0x76>
 8005508:	6883      	ldr	r3, [r0, #8]
 800550a:	069b      	lsls	r3, r3, #26
 800550c:	d419      	bmi.n	8005542 <USB_HC_Halt+0x70>
 800550e:	6ac3      	ldr	r3, [r0, #44]	; 0x2c
 8005510:	f413 0f7f 	tst.w	r3, #16711680	; 0xff0000
 8005514:	f8d1 3500 	ldr.w	r3, [r1, #1280]	; 0x500
 8005518:	d132      	bne.n	8005580 <USB_HC_Halt+0xae>
 800551a:	f023 4300 	bic.w	r3, r3, #2147483648	; 0x80000000
 800551e:	f8c1 3500 	str.w	r3, [r1, #1280]	; 0x500
 8005522:	f8d1 3500 	ldr.w	r3, [r1, #1280]	; 0x500
 8005526:	f043 4300 	orr.w	r3, r3, #2147483648	; 0x80000000
 800552a:	f8c1 3500 	str.w	r3, [r1, #1280]	; 0x500
 800552e:	9b01      	ldr	r3, [sp, #4]
 8005530:	3301      	adds	r3, #1
 8005532:	9301      	str	r3, [sp, #4]
 8005534:	9b01      	ldr	r3, [sp, #4]
 8005536:	f5b3 7f7a 	cmp.w	r3, #1000	; 0x3e8
 800553a:	d802      	bhi.n	8005542 <USB_HC_Halt+0x70>
 800553c:	6813      	ldr	r3, [r2, #0]
 800553e:	2b00      	cmp	r3, #0
 8005540:	dbf5      	blt.n	800552e <USB_HC_Halt+0x5c>
 8005542:	2000      	movs	r0, #0
 8005544:	b003      	add	sp, #12
 8005546:	bd30      	pop	{r4, r5, pc}
 8005548:	f8d0 3410 	ldr.w	r3, [r0, #1040]	; 0x410
 800554c:	f413 0f7f 	tst.w	r3, #16711680	; 0xff0000
 8005550:	f8d1 3500 	ldr.w	r3, [r1, #1280]	; 0x500
 8005554:	d114      	bne.n	8005580 <USB_HC_Halt+0xae>
 8005556:	f023 4300 	bic.w	r3, r3, #2147483648	; 0x80000000
 800555a:	f8c1 3500 	str.w	r3, [r1, #1280]	; 0x500
 800555e:	f8d1 3500 	ldr.w	r3, [r1, #1280]	; 0x500
 8005562:	f043 4300 	orr.w	r3, r3, #2147483648	; 0x80000000
 8005566:	f8c1 3500 	str.w	r3, [r1, #1280]	; 0x500
 800556a:	9b01      	ldr	r3, [sp, #4]
 800556c:	3301      	adds	r3, #1
 800556e:	9301      	str	r3, [sp, #4]
 8005570:	9b01      	ldr	r3, [sp, #4]
 8005572:	f5b3 7f7a 	cmp.w	r3, #1000	; 0x3e8
 8005576:	d8e4      	bhi.n	8005542 <USB_HC_Halt+0x70>
 8005578:	6813      	ldr	r3, [r2, #0]
 800557a:	2b00      	cmp	r3, #0
 800557c:	dbf5      	blt.n	800556a <USB_HC_Halt+0x98>
 800557e:	e7e0      	b.n	8005542 <USB_HC_Halt+0x70>
 8005580:	f043 4300 	orr.w	r3, r3, #2147483648	; 0x80000000
 8005584:	f8c1 3500 	str.w	r3, [r1, #1280]	; 0x500
 8005588:	e7db      	b.n	8005542 <USB_HC_Halt+0x70>
	...

0800558c <USB_DoPing>:
 800558c:	eb00 1041 	add.w	r0, r0, r1, lsl #5
 8005590:	4a06      	ldr	r2, [pc, #24]	; (80055ac <USB_DoPing+0x20>)
 8005592:	f8c0 2510 	str.w	r2, [r0, #1296]	; 0x510
 8005596:	f8d0 3500 	ldr.w	r3, [r0, #1280]	; 0x500
 800559a:	f023 4380 	bic.w	r3, r3, #1073741824	; 0x40000000
 800559e:	f043 4300 	orr.w	r3, r3, #2147483648	; 0x80000000
 80055a2:	f8c0 3500 	str.w	r3, [r0, #1280]	; 0x500
 80055a6:	2000      	movs	r0, #0
 80055a8:	4770      	bx	lr
 80055aa:	bf00      	nop
 80055ac:	80080000 	.word	0x80080000

080055b0 <USB_HC_StartXfer>:
 80055b0:	e92d 41ff 	stmdb	sp!, {r0, r1, r2, r3, r4, r5, r6, r7, r8, lr}
 80055b4:	6bc3      	ldr	r3, [r0, #60]	; 0x3c
 80055b6:	05db      	lsls	r3, r3, #23
 80055b8:	460c      	mov	r4, r1
 80055ba:	4605      	mov	r5, r0
 80055bc:	7849      	ldrb	r1, [r1, #1]
 80055be:	d50f      	bpl.n	80055e0 <USB_HC_StartXfer+0x30>
 80055c0:	7923      	ldrb	r3, [r4, #4]
 80055c2:	b96b      	cbnz	r3, 80055e0 <USB_HC_StartXfer+0x30>
 80055c4:	2a01      	cmp	r2, #1
 80055c6:	d167      	bne.n	8005698 <USB_HC_StartXfer+0xe8>
 80055c8:	79e3      	ldrb	r3, [r4, #7]
 80055ca:	f013 0ffd 	tst.w	r3, #253	; 0xfd
 80055ce:	d107      	bne.n	80055e0 <USB_HC_StartXfer+0x30>
 80055d0:	eb00 1341 	add.w	r3, r0, r1, lsl #5
 80055d4:	f8d3 050c 	ldr.w	r0, [r3, #1292]	; 0x50c
 80055d8:	f020 0070 	bic.w	r0, r0, #112	; 0x70
 80055dc:	f8c3 050c 	str.w	r0, [r3, #1292]	; 0x50c
 80055e0:	6963      	ldr	r3, [r4, #20]
 80055e2:	2b00      	cmp	r3, #0
 80055e4:	d063      	beq.n	80056ae <USB_HC_StartXfer+0xfe>
 80055e6:	8926      	ldrh	r6, [r4, #8]
 80055e8:	1e58      	subs	r0, r3, #1
 80055ea:	4430      	add	r0, r6
 80055ec:	fbb0 f0f6 	udiv	r0, r0, r6
 80055f0:	b280      	uxth	r0, r0
 80055f2:	f5b0 7f80 	cmp.w	r0, #256	; 0x100
 80055f6:	bf28      	it	cs
 80055f8:	f44f 7080 	movcs.w	r0, #256	; 0x100
 80055fc:	78e7      	ldrb	r7, [r4, #3]
 80055fe:	2f00      	cmp	r7, #0
 8005600:	d057      	beq.n	80056b2 <USB_HC_StartXfer+0x102>
 8005602:	f8b4 8008 	ldrh.w	r8, [r4, #8]
 8005606:	fb00 f808 	mul.w	r8, r0, r8
 800560a:	f894 c00a 	ldrb.w	ip, [r4, #10]
 800560e:	f8c4 8010 	str.w	r8, [r4, #16]
 8005612:	ea4f 7c4c 	mov.w	ip, ip, lsl #29
 8005616:	f00c 4cc0 	and.w	ip, ip, #1610612736	; 0x60000000
 800561a:	eb05 1641 	add.w	r6, r5, r1, lsl #5
 800561e:	ea4c 40c0 	orr.w	r0, ip, r0, lsl #19
 8005622:	f3c8 0812 	ubfx	r8, r8, #0, #19
 8005626:	ea40 0008 	orr.w	r0, r0, r8
 800562a:	f8c6 0510 	str.w	r0, [r6, #1296]	; 0x510
 800562e:	b112      	cbz	r2, 8005636 <USB_HC_StartXfer+0x86>
 8005630:	68e0      	ldr	r0, [r4, #12]
 8005632:	f8c6 0514 	str.w	r0, [r6, #1300]	; 0x514
 8005636:	f8d5 0408 	ldr.w	r0, [r5, #1032]	; 0x408
 800563a:	f8d6 e500 	ldr.w	lr, [r6, #1280]	; 0x500
 800563e:	f02e 5e00 	bic.w	lr, lr, #536870912	; 0x20000000
 8005642:	f8c6 e500 	str.w	lr, [r6, #1280]	; 0x500
 8005646:	43c0      	mvns	r0, r0
 8005648:	f8d6 e500 	ldr.w	lr, [r6, #1280]	; 0x500
 800564c:	0740      	lsls	r0, r0, #29
 800564e:	f000 5000 	and.w	r0, r0, #536870912	; 0x20000000
 8005652:	ea40 000e 	orr.w	r0, r0, lr
 8005656:	f8c6 0500 	str.w	r0, [r6, #1280]	; 0x500
 800565a:	f8d6 0500 	ldr.w	r0, [r6, #1280]	; 0x500
 800565e:	9003      	str	r0, [sp, #12]
 8005660:	9803      	ldr	r0, [sp, #12]
 8005662:	f020 4080 	bic.w	r0, r0, #1073741824	; 0x40000000
 8005666:	9003      	str	r0, [sp, #12]
 8005668:	f505 6c80 	add.w	ip, r5, #1024	; 0x400
 800566c:	9803      	ldr	r0, [sp, #12]
 800566e:	b317      	cbz	r7, 80056b6 <USB_HC_StartXfer+0x106>
 8005670:	f440 4000 	orr.w	r0, r0, #32768	; 0x8000
 8005674:	9003      	str	r0, [sp, #12]
 8005676:	9803      	ldr	r0, [sp, #12]
 8005678:	f040 4000 	orr.w	r0, r0, #2147483648	; 0x80000000
 800567c:	9003      	str	r0, [sp, #12]
 800567e:	9803      	ldr	r0, [sp, #12]
 8005680:	f8c6 0500 	str.w	r0, [r6, #1280]	; 0x500
 8005684:	4317      	orrs	r7, r2
 8005686:	d10e      	bne.n	80056a6 <USB_HC_StartXfer+0xf6>
 8005688:	b16b      	cbz	r3, 80056a6 <USB_HC_StartXfer+0xf6>
 800568a:	79e2      	ldrb	r2, [r4, #7]
 800568c:	2a03      	cmp	r2, #3
 800568e:	d820      	bhi.n	80056d2 <USB_HC_StartXfer+0x122>
 8005690:	e8df f002 	tbb	[pc, r2]
 8005694:	28142814 	.word	0x28142814
 8005698:	2a00      	cmp	r2, #0
 800569a:	d1a1      	bne.n	80055e0 <USB_HC_StartXfer+0x30>
 800569c:	7963      	ldrb	r3, [r4, #5]
 800569e:	2b01      	cmp	r3, #1
 80056a0:	d19e      	bne.n	80055e0 <USB_HC_StartXfer+0x30>
 80056a2:	f7ff ff73 	bl	800558c <USB_DoPing>
 80056a6:	2000      	movs	r0, #0
 80056a8:	b004      	add	sp, #16
 80056aa:	e8bd 81f0 	ldmia.w	sp!, {r4, r5, r6, r7, r8, pc}
 80056ae:	2001      	movs	r0, #1
 80056b0:	e7a4      	b.n	80055fc <USB_HC_StartXfer+0x4c>
 80056b2:	4698      	mov	r8, r3
 80056b4:	e7a9      	b.n	800560a <USB_HC_StartXfer+0x5a>
 80056b6:	f420 4000 	bic.w	r0, r0, #32768	; 0x8000
 80056ba:	e7db      	b.n	8005674 <USB_HC_StartXfer+0xc4>
 80056bc:	6ae8      	ldr	r0, [r5, #44]	; 0x2c
 80056be:	1cda      	adds	r2, r3, #3
 80056c0:	b280      	uxth	r0, r0
 80056c2:	f3c2 028f 	ubfx	r2, r2, #2, #16
 80056c6:	4290      	cmp	r0, r2
 80056c8:	d203      	bcs.n	80056d2 <USB_HC_StartXfer+0x122>
 80056ca:	69aa      	ldr	r2, [r5, #24]
 80056cc:	f042 0220 	orr.w	r2, r2, #32
 80056d0:	61aa      	str	r2, [r5, #24]
 80056d2:	2200      	movs	r2, #0
 80056d4:	9200      	str	r2, [sp, #0]
 80056d6:	b29b      	uxth	r3, r3
 80056d8:	460a      	mov	r2, r1
 80056da:	4628      	mov	r0, r5
 80056dc:	68e1      	ldr	r1, [r4, #12]
 80056de:	f7ff fd61 	bl	80051a4 <USB_WritePacket>
 80056e2:	e7e0      	b.n	80056a6 <USB_HC_StartXfer+0xf6>
 80056e4:	f8dc 0010 	ldr.w	r0, [ip, #16]
 80056e8:	1cda      	adds	r2, r3, #3
 80056ea:	b280      	uxth	r0, r0
 80056ec:	f3c2 028f 	ubfx	r2, r2, #2, #16
 80056f0:	4290      	cmp	r0, r2
 80056f2:	d2ee      	bcs.n	80056d2 <USB_HC_StartXfer+0x122>
 80056f4:	69aa      	ldr	r2, [r5, #24]
 80056f6:	f042 6280 	orr.w	r2, r2, #67108864	; 0x4000000
 80056fa:	e7e9      	b.n	80056d0 <USB_HC_StartXfer+0x120>

080056fc <USB_StopHost>:
 80056fc:	b537      	push	{r0, r1, r2, r4, r5, lr}
 80056fe:	2300      	movs	r3, #0
 8005700:	9301      	str	r3, [sp, #4]
 8005702:	6883      	ldr	r3, [r0, #8]
 8005704:	f023 0301 	bic.w	r3, r3, #1
 8005708:	6083      	str	r3, [r0, #8]
 800570a:	2110      	movs	r1, #16
 800570c:	4604      	mov	r4, r0
 800570e:	f7ff fcff 	bl	8005110 <USB_FlushTxFifo>
 8005712:	4601      	mov	r1, r0
 8005714:	4620      	mov	r0, r4
 8005716:	f7ff fd21 	bl	800515c <USB_FlushRxFifo>
 800571a:	4308      	orrs	r0, r1
 800571c:	b2c0      	uxtb	r0, r0
 800571e:	3800      	subs	r0, #0
 8005720:	f504 63a0 	add.w	r3, r4, #1280	; 0x500
 8005724:	bf18      	it	ne
 8005726:	2001      	movne	r0, #1
 8005728:	f504 65e0 	add.w	r5, r4, #1792	; 0x700
 800572c:	4619      	mov	r1, r3
 800572e:	680a      	ldr	r2, [r1, #0]
 8005730:	f022 2280 	bic.w	r2, r2, #2147516416	; 0x80008000
 8005734:	f042 4280 	orr.w	r2, r2, #1073741824	; 0x40000000
 8005738:	f841 2b20 	str.w	r2, [r1], #32
 800573c:	42a9      	cmp	r1, r5
 800573e:	d1f6      	bne.n	800572e <USB_StopHost+0x32>
 8005740:	681a      	ldr	r2, [r3, #0]
 8005742:	f422 4200 	bic.w	r2, r2, #32768	; 0x8000
 8005746:	f042 4240 	orr.w	r2, r2, #3221225472	; 0xc0000000
 800574a:	601a      	str	r2, [r3, #0]
 800574c:	9a01      	ldr	r2, [sp, #4]
 800574e:	3201      	adds	r2, #1
 8005750:	9201      	str	r2, [sp, #4]
 8005752:	9a01      	ldr	r2, [sp, #4]
 8005754:	f5b2 7f7a 	cmp.w	r2, #1000	; 0x3e8
 8005758:	d802      	bhi.n	8005760 <USB_StopHost+0x64>
 800575a:	681a      	ldr	r2, [r3, #0]
 800575c:	2a00      	cmp	r2, #0
 800575e:	dbf5      	blt.n	800574c <USB_StopHost+0x50>
 8005760:	3320      	adds	r3, #32
 8005762:	42ab      	cmp	r3, r5
 8005764:	d1ec      	bne.n	8005740 <USB_StopHost+0x44>
 8005766:	f04f 33ff 	mov.w	r3, #4294967295
 800576a:	f8c4 3414 	str.w	r3, [r4, #1044]	; 0x414
 800576e:	6163      	str	r3, [r4, #20]
 8005770:	68a3      	ldr	r3, [r4, #8]
 8005772:	f043 0301 	orr.w	r3, r3, #1
 8005776:	60a3      	str	r3, [r4, #8]
 8005778:	b003      	add	sp, #12
 800577a:	bd30      	pop	{r4, r5, pc}

0800577c <MX_FATFS_Init>:
 800577c:	b508      	push	{r3, lr}
 800577e:	4903      	ldr	r1, [pc, #12]	; (800578c <MX_FATFS_Init+0x10>)
 8005780:	4803      	ldr	r0, [pc, #12]	; (8005790 <MX_FATFS_Init+0x14>)
 8005782:	f003 f923 	bl	80089cc <FATFS_LinkDriver>
 8005786:	4b03      	ldr	r3, [pc, #12]	; (8005794 <MX_FATFS_Init+0x18>)
 8005788:	7018      	strb	r0, [r3, #0]
 800578a:	bd08      	pop	{r3, pc}
 800578c:	200024b0 	.word	0x200024b0
 8005790:	0800a68c 	.word	0x0800a68c
 8005794:	200024b4 	.word	0x200024b4

08005798 <get_fattime>:
 8005798:	2000      	movs	r0, #0
 800579a:	4770      	bx	lr

0800579c <USBH_initialize>:
 800579c:	2000      	movs	r0, #0
 800579e:	4770      	bx	lr

080057a0 <USBH_status>:
 80057a0:	4601      	mov	r1, r0
 80057a2:	b508      	push	{r3, lr}
 80057a4:	4803      	ldr	r0, [pc, #12]	; (80057b4 <USBH_status+0x14>)
 80057a6:	f000 fa72 	bl	8005c8e <USBH_MSC_UnitIsReady>
 80057aa:	fab0 f080 	clz	r0, r0
 80057ae:	0940      	lsrs	r0, r0, #5
 80057b0:	bd08      	pop	{r3, pc}
 80057b2:	bf00      	nop
 80057b4:	20002700 	.word	0x20002700

080057b8 <USBH_ioctl>:
 80057b8:	b510      	push	{r4, lr}
 80057ba:	4603      	mov	r3, r0
 80057bc:	b08e      	sub	sp, #56	; 0x38
 80057be:	4608      	mov	r0, r1
 80057c0:	4614      	mov	r4, r2
 80057c2:	2903      	cmp	r1, #3
 80057c4:	d803      	bhi.n	80057ce <USBH_ioctl+0x16>
 80057c6:	e8df f001 	tbb	[pc, r1]
 80057ca:	0503      	.short	0x0503
 80057cc:	1a10      	.short	0x1a10
 80057ce:	2004      	movs	r0, #4
 80057d0:	b00e      	add	sp, #56	; 0x38
 80057d2:	bd10      	pop	{r4, pc}
 80057d4:	480f      	ldr	r0, [pc, #60]	; (8005814 <USBH_ioctl+0x5c>)
 80057d6:	aa01      	add	r2, sp, #4
 80057d8:	4619      	mov	r1, r3
 80057da:	f000 fa69 	bl	8005cb0 <USBH_MSC_GetLUNInfo>
 80057de:	b108      	cbz	r0, 80057e4 <USBH_ioctl+0x2c>
 80057e0:	2001      	movs	r0, #1
 80057e2:	e7f5      	b.n	80057d0 <USBH_ioctl+0x18>
 80057e4:	9b02      	ldr	r3, [sp, #8]
 80057e6:	6023      	str	r3, [r4, #0]
 80057e8:	e7f2      	b.n	80057d0 <USBH_ioctl+0x18>
 80057ea:	480a      	ldr	r0, [pc, #40]	; (8005814 <USBH_ioctl+0x5c>)
 80057ec:	aa01      	add	r2, sp, #4
 80057ee:	4619      	mov	r1, r3
 80057f0:	f000 fa5e 	bl	8005cb0 <USBH_MSC_GetLUNInfo>
 80057f4:	2800      	cmp	r0, #0
 80057f6:	d1f3      	bne.n	80057e0 <USBH_ioctl+0x28>
 80057f8:	f8bd 300c 	ldrh.w	r3, [sp, #12]
 80057fc:	e7f3      	b.n	80057e6 <USBH_ioctl+0x2e>
 80057fe:	4805      	ldr	r0, [pc, #20]	; (8005814 <USBH_ioctl+0x5c>)
 8005800:	aa01      	add	r2, sp, #4
 8005802:	4619      	mov	r1, r3
 8005804:	f000 fa54 	bl	8005cb0 <USBH_MSC_GetLUNInfo>
 8005808:	2800      	cmp	r0, #0
 800580a:	d1e9      	bne.n	80057e0 <USBH_ioctl+0x28>
 800580c:	f8bd 300c 	ldrh.w	r3, [sp, #12]
 8005810:	0a5b      	lsrs	r3, r3, #9
 8005812:	e7e8      	b.n	80057e6 <USBH_ioctl+0x2e>
 8005814:	20002700 	.word	0x20002700

08005818 <USBH_read>:
 8005818:	b510      	push	{r4, lr}
 800581a:	b090      	sub	sp, #64	; 0x40
 800581c:	4604      	mov	r4, r0
 800581e:	9300      	str	r3, [sp, #0]
 8005820:	460b      	mov	r3, r1
 8005822:	4601      	mov	r1, r0
 8005824:	480b      	ldr	r0, [pc, #44]	; (8005854 <USBH_read+0x3c>)
 8005826:	f000 fa5b 	bl	8005ce0 <USBH_MSC_Read>
 800582a:	b170      	cbz	r0, 800584a <USBH_read+0x32>
 800582c:	4809      	ldr	r0, [pc, #36]	; (8005854 <USBH_read+0x3c>)
 800582e:	aa03      	add	r2, sp, #12
 8005830:	4621      	mov	r1, r4
 8005832:	f000 fa3d 	bl	8005cb0 <USBH_MSC_GetLUNInfo>
 8005836:	f89d 3019 	ldrb.w	r3, [sp, #25]
 800583a:	2b28      	cmp	r3, #40	; 0x28
 800583c:	d007      	beq.n	800584e <USBH_read+0x36>
 800583e:	2b3a      	cmp	r3, #58	; 0x3a
 8005840:	d005      	beq.n	800584e <USBH_read+0x36>
 8005842:	2b04      	cmp	r3, #4
 8005844:	bf14      	ite	ne
 8005846:	2001      	movne	r0, #1
 8005848:	2003      	moveq	r0, #3
 800584a:	b010      	add	sp, #64	; 0x40
 800584c:	bd10      	pop	{r4, pc}
 800584e:	2003      	movs	r0, #3
 8005850:	e7fb      	b.n	800584a <USBH_read+0x32>
 8005852:	bf00      	nop
 8005854:	20002700 	.word	0x20002700

08005858 <USBH_write>:
 8005858:	b510      	push	{r4, lr}
 800585a:	b090      	sub	sp, #64	; 0x40
 800585c:	4604      	mov	r4, r0
 800585e:	9300      	str	r3, [sp, #0]
 8005860:	460b      	mov	r3, r1
 8005862:	4601      	mov	r1, r0
 8005864:	480d      	ldr	r0, [pc, #52]	; (800589c <USBH_write+0x44>)
 8005866:	f000 fa7c 	bl	8005d62 <USBH_MSC_Write>
 800586a:	b168      	cbz	r0, 8005888 <USBH_write+0x30>
 800586c:	480b      	ldr	r0, [pc, #44]	; (800589c <USBH_write+0x44>)
 800586e:	aa03      	add	r2, sp, #12
 8005870:	4621      	mov	r1, r4
 8005872:	f000 fa1d 	bl	8005cb0 <USBH_MSC_GetLUNInfo>
 8005876:	f89d 3019 	ldrb.w	r3, [sp, #25]
 800587a:	2b27      	cmp	r3, #39	; 0x27
 800587c:	d00a      	beq.n	8005894 <USBH_write+0x3c>
 800587e:	d805      	bhi.n	800588c <USBH_write+0x34>
 8005880:	2b04      	cmp	r3, #4
 8005882:	bf14      	ite	ne
 8005884:	2001      	movne	r0, #1
 8005886:	2003      	moveq	r0, #3
 8005888:	b010      	add	sp, #64	; 0x40
 800588a:	bd10      	pop	{r4, pc}
 800588c:	2b28      	cmp	r3, #40	; 0x28
 800588e:	d003      	beq.n	8005898 <USBH_write+0x40>
 8005890:	2b3a      	cmp	r3, #58	; 0x3a
 8005892:	e7f6      	b.n	8005882 <USBH_write+0x2a>
 8005894:	2002      	movs	r0, #2
 8005896:	e7f7      	b.n	8005888 <USBH_write+0x30>
 8005898:	2003      	movs	r0, #3
 800589a:	e7f5      	b.n	8005888 <USBH_write+0x30>
 800589c:	20002700 	.word	0x20002700

080058a0 <USBH_MSC_SOFProcess>:
 80058a0:	2000      	movs	r0, #0
 80058a2:	4770      	bx	lr

080058a4 <USBH_MSC_Process>:
 80058a4:	b5f8      	push	{r3, r4, r5, r6, r7, lr}
 80058a6:	f8d0 337c 	ldr.w	r3, [r0, #892]	; 0x37c
 80058aa:	69dc      	ldr	r4, [r3, #28]
 80058ac:	7b23      	ldrb	r3, [r4, #12]
 80058ae:	4607      	mov	r7, r0
 80058b0:	b123      	cbz	r3, 80058bc <USBH_MSC_Process+0x18>
 80058b2:	2b01      	cmp	r3, #1
 80058b4:	f000 80cf 	beq.w	8005a56 <USBH_MSC_Process+0x1b2>
 80058b8:	2001      	movs	r0, #1
 80058ba:	e083      	b.n	80059c4 <USBH_MSC_Process+0x120>
 80058bc:	f8b4 10f8 	ldrh.w	r1, [r4, #248]	; 0xf8
 80058c0:	7822      	ldrb	r2, [r4, #0]
 80058c2:	428a      	cmp	r2, r1
 80058c4:	f04f 0501 	mov.w	r5, #1
 80058c8:	f240 80bd 	bls.w	8005a46 <USBH_MSC_Process+0x1a2>
 80058cc:	2634      	movs	r6, #52	; 0x34
 80058ce:	fb06 4301 	mla	r3, r6, r1, r4
 80058d2:	f883 5091 	strb.w	r5, [r3, #145]	; 0x91
 80058d6:	f893 3090 	ldrb.w	r3, [r3, #144]	; 0x90
 80058da:	2b08      	cmp	r3, #8
 80058dc:	d8ec      	bhi.n	80058b8 <USBH_MSC_Process+0x14>
 80058de:	a201      	add	r2, pc, #4	; (adr r2, 80058e4 <USBH_MSC_Process+0x40>)
 80058e0:	f852 f023 	ldr.w	pc, [r2, r3, lsl #2]
 80058e4:	08005909 	.word	0x08005909
 80058e8:	080058b9 	.word	0x080058b9
 80058ec:	0800593d 	.word	0x0800593d
 80058f0:	080059a3 	.word	0x080059a3
 80058f4:	0800591d 	.word	0x0800591d
 80058f8:	080059d7 	.word	0x080059d7
 80058fc:	080058b9 	.word	0x080058b9
 8005900:	080058b9 	.word	0x080058b9
 8005904:	08005a3f 	.word	0x08005a3f
 8005908:	fb06 4101 	mla	r1, r6, r1, r4
 800590c:	2304      	movs	r3, #4
 800590e:	f881 3090 	strb.w	r3, [r1, #144]	; 0x90
 8005912:	f8d0 33c4 	ldr.w	r3, [r0, #964]	; 0x3c4
 8005916:	f8c4 30fc 	str.w	r3, [r4, #252]	; 0xfc
 800591a:	e7cd      	b.n	80058b8 <USBH_MSC_Process+0x14>
 800591c:	fb06 4201 	mla	r2, r6, r1, r4
 8005920:	329f      	adds	r2, #159	; 0x9f
 8005922:	b2c9      	uxtb	r1, r1
 8005924:	f000 fbc0 	bl	80060a8 <USBH_MSC_SCSI_Inquiry>
 8005928:	2800      	cmp	r0, #0
 800592a:	d14c      	bne.n	80059c6 <USBH_MSC_Process+0x122>
 800592c:	f8b4 30f8 	ldrh.w	r3, [r4, #248]	; 0xf8
 8005930:	2202      	movs	r2, #2
 8005932:	fb06 4303 	mla	r3, r6, r3, r4
 8005936:	f883 2090 	strb.w	r2, [r3, #144]	; 0x90
 800593a:	e7bd      	b.n	80058b8 <USBH_MSC_Process+0x14>
 800593c:	b2c9      	uxtb	r1, r1
 800593e:	f000 fb5b 	bl	8005ff8 <USBH_MSC_SCSI_TestUnitReady>
 8005942:	b988      	cbnz	r0, 8005968 <USBH_MSC_Process+0xc4>
 8005944:	f8b4 30f8 	ldrh.w	r3, [r4, #248]	; 0xf8
 8005948:	2234      	movs	r2, #52	; 0x34
 800594a:	fb02 4303 	mla	r3, r2, r3, r4
 800594e:	f893 2092 	ldrb.w	r2, [r3, #146]	; 0x92
 8005952:	3a00      	subs	r2, #0
 8005954:	bf18      	it	ne
 8005956:	2201      	movne	r2, #1
 8005958:	f883 20c1 	strb.w	r2, [r3, #193]	; 0xc1
 800595c:	2203      	movs	r2, #3
 800595e:	f8a3 2090 	strh.w	r2, [r3, #144]	; 0x90
 8005962:	f883 0092 	strb.w	r0, [r3, #146]	; 0x92
 8005966:	e7a7      	b.n	80058b8 <USBH_MSC_Process+0x14>
 8005968:	2802      	cmp	r0, #2
 800596a:	d10e      	bne.n	800598a <USBH_MSC_Process+0xe6>
 800596c:	f8b4 30f8 	ldrh.w	r3, [r4, #248]	; 0xf8
 8005970:	2234      	movs	r2, #52	; 0x34
 8005972:	fb02 4303 	mla	r3, r2, r3, r4
 8005976:	f893 2092 	ldrb.w	r2, [r3, #146]	; 0x92
 800597a:	3a02      	subs	r2, #2
 800597c:	bf18      	it	ne
 800597e:	2201      	movne	r2, #1
 8005980:	f883 20c1 	strb.w	r2, [r3, #193]	; 0xc1
 8005984:	f240 1205 	movw	r2, #261	; 0x105
 8005988:	e7e9      	b.n	800595e <USBH_MSC_Process+0xba>
 800598a:	2804      	cmp	r0, #4
 800598c:	d194      	bne.n	80058b8 <USBH_MSC_Process+0x14>
 800598e:	f8b4 30f8 	ldrh.w	r3, [r4, #248]	; 0xf8
 8005992:	2234      	movs	r2, #52	; 0x34
 8005994:	fb02 4303 	mla	r3, r2, r3, r4
 8005998:	f240 2201 	movw	r2, #513	; 0x201
 800599c:	f8a3 2090 	strh.w	r2, [r3, #144]	; 0x90
 80059a0:	e78a      	b.n	80058b8 <USBH_MSC_Process+0x14>
 80059a2:	fb06 4201 	mla	r2, r6, r1, r4
 80059a6:	3294      	adds	r2, #148	; 0x94
 80059a8:	b2c9      	uxtb	r1, r1
 80059aa:	f000 fb48 	bl	800603e <USBH_MSC_SCSI_ReadCapacity>
 80059ae:	b950      	cbnz	r0, 80059c6 <USBH_MSC_Process+0x122>
 80059b0:	f8b4 30f8 	ldrh.w	r3, [r4, #248]	; 0xf8
 80059b4:	fb06 4603 	mla	r6, r6, r3, r4
 80059b8:	2001      	movs	r0, #1
 80059ba:	f8a6 0090 	strh.w	r0, [r6, #144]	; 0x90
 80059be:	4403      	add	r3, r0
 80059c0:	f8a4 30f8 	strh.w	r3, [r4, #248]	; 0xf8
 80059c4:	bdf8      	pop	{r3, r4, r5, r6, r7, pc}
 80059c6:	2802      	cmp	r0, #2
 80059c8:	d131      	bne.n	8005a2e <USBH_MSC_Process+0x18a>
 80059ca:	f8b4 30f8 	ldrh.w	r3, [r4, #248]	; 0xf8
 80059ce:	2205      	movs	r2, #5
 80059d0:	fb06 4303 	mla	r3, r6, r3, r4
 80059d4:	e7af      	b.n	8005936 <USBH_MSC_Process+0x92>
 80059d6:	fb06 4201 	mla	r2, r6, r1, r4
 80059da:	329c      	adds	r2, #156	; 0x9c
 80059dc:	b2c9      	uxtb	r1, r1
 80059de:	f000 fbc3 	bl	8006168 <USBH_MSC_SCSI_RequestSense>
 80059e2:	b9e0      	cbnz	r0, 8005a1e <USBH_MSC_Process+0x17a>
 80059e4:	f8b4 30f8 	ldrh.w	r3, [r4, #248]	; 0xf8
 80059e8:	fb06 4603 	mla	r6, r6, r3, r4
 80059ec:	f896 209c 	ldrb.w	r2, [r6, #156]	; 0x9c
 80059f0:	f002 02fb 	and.w	r2, r2, #251	; 0xfb
 80059f4:	2a02      	cmp	r2, #2
 80059f6:	d10b      	bne.n	8005a10 <USBH_MSC_Process+0x16c>
 80059f8:	f8d4 00fc 	ldr.w	r0, [r4, #252]	; 0xfc
 80059fc:	f8d7 13c4 	ldr.w	r1, [r7, #964]	; 0x3c4
 8005a00:	1a09      	subs	r1, r1, r0
 8005a02:	f242 700f 	movw	r0, #9999	; 0x270f
 8005a06:	4281      	cmp	r1, r0
 8005a08:	d802      	bhi.n	8005a10 <USBH_MSC_Process+0x16c>
 8005a0a:	f886 2090 	strb.w	r2, [r6, #144]	; 0x90
 8005a0e:	e753      	b.n	80058b8 <USBH_MSC_Process+0x14>
 8005a10:	2234      	movs	r2, #52	; 0x34
 8005a12:	fb02 4203 	mla	r2, r2, r3, r4
 8005a16:	2001      	movs	r0, #1
 8005a18:	f882 0090 	strb.w	r0, [r2, #144]	; 0x90
 8005a1c:	e7cf      	b.n	80059be <USBH_MSC_Process+0x11a>
 8005a1e:	2802      	cmp	r0, #2
 8005a20:	d105      	bne.n	8005a2e <USBH_MSC_Process+0x18a>
 8005a22:	f8b4 30f8 	ldrh.w	r3, [r4, #248]	; 0xf8
 8005a26:	2208      	movs	r2, #8
 8005a28:	fb06 4303 	mla	r3, r6, r3, r4
 8005a2c:	e783      	b.n	8005936 <USBH_MSC_Process+0x92>
 8005a2e:	2804      	cmp	r0, #4
 8005a30:	f47f af42 	bne.w	80058b8 <USBH_MSC_Process+0x14>
 8005a34:	f8b4 30f8 	ldrh.w	r3, [r4, #248]	; 0xf8
 8005a38:	fb06 4303 	mla	r3, r6, r3, r4
 8005a3c:	e7ac      	b.n	8005998 <USBH_MSC_Process+0xf4>
 8005a3e:	3101      	adds	r1, #1
 8005a40:	f8a4 10f8 	strh.w	r1, [r4, #248]	; 0xf8
 8005a44:	e738      	b.n	80058b8 <USBH_MSC_Process+0x14>
 8005a46:	7325      	strb	r5, [r4, #12]
 8005a48:	f8a4 30f8 	strh.w	r3, [r4, #248]	; 0xf8
 8005a4c:	2102      	movs	r1, #2
 8005a4e:	f8d0 33d4 	ldr.w	r3, [r0, #980]	; 0x3d4
 8005a52:	4798      	blx	r3
 8005a54:	e730      	b.n	80058b8 <USBH_MSC_Process+0x14>
 8005a56:	2000      	movs	r0, #0
 8005a58:	e7b4      	b.n	80059c4 <USBH_MSC_Process+0x120>
 8005a5a:	bf00      	nop

08005a5c <USBH_MSC_ClassRequest>:
 8005a5c:	b510      	push	{r4, lr}
 8005a5e:	f8d0 237c 	ldr.w	r2, [r0, #892]	; 0x37c
 8005a62:	69d4      	ldr	r4, [r2, #28]
 8005a64:	7ba2      	ldrb	r2, [r4, #14]
 8005a66:	2a02      	cmp	r2, #2
 8005a68:	4603      	mov	r3, r0
 8005a6a:	d002      	beq.n	8005a72 <USBH_MSC_ClassRequest+0x16>
 8005a6c:	2a03      	cmp	r2, #3
 8005a6e:	d021      	beq.n	8005ab4 <USBH_MSC_ClassRequest+0x58>
 8005a70:	bb32      	cbnz	r2, 8005ac0 <USBH_MSC_ClassRequest+0x64>
 8005a72:	4621      	mov	r1, r4
 8005a74:	4618      	mov	r0, r3
 8005a76:	f000 f9bd 	bl	8005df4 <USBH_MSC_BOT_REQ_GetMaxLUN>
 8005a7a:	2803      	cmp	r0, #3
 8005a7c:	d117      	bne.n	8005aae <USBH_MSC_ClassRequest+0x52>
 8005a7e:	2300      	movs	r3, #0
 8005a80:	7023      	strb	r3, [r4, #0]
 8005a82:	7823      	ldrb	r3, [r4, #0]
 8005a84:	2b02      	cmp	r3, #2
 8005a86:	bf98      	it	ls
 8005a88:	3301      	addls	r3, #1
 8005a8a:	f04f 0202 	mov.w	r2, #2
 8005a8e:	bf94      	ite	ls
 8005a90:	b2db      	uxtbls	r3, r3
 8005a92:	4613      	movhi	r3, r2
 8005a94:	2000      	movs	r0, #0
 8005a96:	2b01      	cmp	r3, #1
 8005a98:	7023      	strb	r3, [r4, #0]
 8005a9a:	f884 2092 	strb.w	r2, [r4, #146]	; 0x92
 8005a9e:	f884 00c1 	strb.w	r0, [r4, #193]	; 0xc1
 8005aa2:	d006      	beq.n	8005ab2 <USBH_MSC_ClassRequest+0x56>
 8005aa4:	f884 20c6 	strb.w	r2, [r4, #198]	; 0xc6
 8005aa8:	f884 00f5 	strb.w	r0, [r4, #245]	; 0xf5
 8005aac:	e001      	b.n	8005ab2 <USBH_MSC_ClassRequest+0x56>
 8005aae:	2800      	cmp	r0, #0
 8005ab0:	d0e7      	beq.n	8005a82 <USBH_MSC_ClassRequest+0x26>
 8005ab2:	bd10      	pop	{r4, pc}
 8005ab4:	2100      	movs	r1, #0
 8005ab6:	f001 f916 	bl	8006ce6 <USBH_ClrFeature>
 8005aba:	b908      	cbnz	r0, 8005ac0 <USBH_MSC_ClassRequest+0x64>
 8005abc:	7be3      	ldrb	r3, [r4, #15]
 8005abe:	73a3      	strb	r3, [r4, #14]
 8005ac0:	2001      	movs	r0, #1
 8005ac2:	e7f6      	b.n	8005ab2 <USBH_MSC_ClassRequest+0x56>

08005ac4 <USBH_MSC_InterfaceDeInit>:
 8005ac4:	b538      	push	{r3, r4, r5, lr}
 8005ac6:	f8d0 337c 	ldr.w	r3, [r0, #892]	; 0x37c
 8005aca:	69dd      	ldr	r5, [r3, #28]
 8005acc:	7969      	ldrb	r1, [r5, #5]
 8005ace:	4604      	mov	r4, r0
 8005ad0:	b139      	cbz	r1, 8005ae2 <USBH_MSC_InterfaceDeInit+0x1e>
 8005ad2:	f001 f982 	bl	8006dda <USBH_ClosePipe>
 8005ad6:	7969      	ldrb	r1, [r5, #5]
 8005ad8:	4620      	mov	r0, r4
 8005ada:	f001 f99b 	bl	8006e14 <USBH_FreePipe>
 8005ade:	2300      	movs	r3, #0
 8005ae0:	716b      	strb	r3, [r5, #5]
 8005ae2:	7929      	ldrb	r1, [r5, #4]
 8005ae4:	b141      	cbz	r1, 8005af8 <USBH_MSC_InterfaceDeInit+0x34>
 8005ae6:	4620      	mov	r0, r4
 8005ae8:	f001 f977 	bl	8006dda <USBH_ClosePipe>
 8005aec:	7929      	ldrb	r1, [r5, #4]
 8005aee:	4620      	mov	r0, r4
 8005af0:	f001 f990 	bl	8006e14 <USBH_FreePipe>
 8005af4:	2300      	movs	r3, #0
 8005af6:	712b      	strb	r3, [r5, #4]
 8005af8:	f8d4 337c 	ldr.w	r3, [r4, #892]	; 0x37c
 8005afc:	69d8      	ldr	r0, [r3, #28]
 8005afe:	b128      	cbz	r0, 8005b0c <USBH_MSC_InterfaceDeInit+0x48>
 8005b00:	f003 f928 	bl	8008d54 <free>
 8005b04:	f8d4 337c 	ldr.w	r3, [r4, #892]	; 0x37c
 8005b08:	2200      	movs	r2, #0
 8005b0a:	61da      	str	r2, [r3, #28]
 8005b0c:	2000      	movs	r0, #0
 8005b0e:	bd38      	pop	{r3, r4, r5, pc}

08005b10 <USBH_MSC_InterfaceInit>:
 8005b10:	e92d 41ff 	stmdb	sp!, {r0, r1, r2, r3, r4, r5, r6, r7, r8, lr}
 8005b14:	f8d0 137c 	ldr.w	r1, [r0, #892]	; 0x37c
 8005b18:	2350      	movs	r3, #80	; 0x50
 8005b1a:	7909      	ldrb	r1, [r1, #4]
 8005b1c:	2206      	movs	r2, #6
 8005b1e:	4605      	mov	r5, r0
 8005b20:	f000 fc2f 	bl	8006382 <USBH_FindInterface>
 8005b24:	2801      	cmp	r0, #1
 8005b26:	4606      	mov	r6, r0
 8005b28:	d904      	bls.n	8005b34 <USBH_MSC_InterfaceInit+0x24>
 8005b2a:	2702      	movs	r7, #2
 8005b2c:	4638      	mov	r0, r7
 8005b2e:	b004      	add	sp, #16
 8005b30:	e8bd 81f0 	ldmia.w	sp!, {r4, r5, r6, r7, r8, pc}
 8005b34:	4601      	mov	r1, r0
 8005b36:	4628      	mov	r0, r5
 8005b38:	f000 fc1a 	bl	8006370 <USBH_SelectInterface>
 8005b3c:	4607      	mov	r7, r0
 8005b3e:	2800      	cmp	r0, #0
 8005b40:	d1f3      	bne.n	8005b2a <USBH_MSC_InterfaceInit+0x1a>
 8005b42:	f44f 7080 	mov.w	r0, #256	; 0x100
 8005b46:	f8d5 837c 	ldr.w	r8, [r5, #892]	; 0x37c
 8005b4a:	f003 f8fb 	bl	8008d44 <malloc>
 8005b4e:	4604      	mov	r4, r0
 8005b50:	f8c8 001c 	str.w	r0, [r8, #28]
 8005b54:	2800      	cmp	r0, #0
 8005b56:	d0e8      	beq.n	8005b2a <USBH_MSC_InterfaceInit+0x1a>
 8005b58:	f44f 7280 	mov.w	r2, #256	; 0x100
 8005b5c:	4639      	mov	r1, r7
 8005b5e:	f003 f9ad 	bl	8008ebc <memset>
 8005b62:	221a      	movs	r2, #26
 8005b64:	fb02 5306 	mla	r3, r2, r6, r5
 8005b68:	fb02 5606 	mla	r6, r2, r6, r5
 8005b6c:	f993 034e 	ldrsb.w	r0, [r3, #846]	; 0x34e
 8005b70:	f893 134e 	ldrb.w	r1, [r3, #846]	; 0x34e
 8005b74:	f8b3 3350 	ldrh.w	r3, [r3, #848]	; 0x350
 8005b78:	f896 2356 	ldrb.w	r2, [r6, #854]	; 0x356
 8005b7c:	2800      	cmp	r0, #0
 8005b7e:	bfac      	ite	ge
 8005b80:	71a1      	strbge	r1, [r4, #6]
 8005b82:	71e1      	strblt	r1, [r4, #7]
 8005b84:	f996 1356 	ldrsb.w	r1, [r6, #854]	; 0x356
 8005b88:	bfb4      	ite	lt
 8005b8a:	8163      	strhlt	r3, [r4, #10]
 8005b8c:	8123      	strhge	r3, [r4, #8]
 8005b8e:	2900      	cmp	r1, #0
 8005b90:	bfa8      	it	ge
 8005b92:	71a2      	strbge	r2, [r4, #6]
 8005b94:	f8b6 3358 	ldrh.w	r3, [r6, #856]	; 0x358
 8005b98:	79a1      	ldrb	r1, [r4, #6]
 8005b9a:	bfb8      	it	lt
 8005b9c:	71e2      	strblt	r2, [r4, #7]
 8005b9e:	4628      	mov	r0, r5
 8005ba0:	bfb4      	ite	lt
 8005ba2:	8163      	strhlt	r3, [r4, #10]
 8005ba4:	8123      	strhge	r3, [r4, #8]
 8005ba6:	f001 f91d 	bl	8006de4 <USBH_AllocPipe>
 8005baa:	79e1      	ldrb	r1, [r4, #7]
 8005bac:	7160      	strb	r0, [r4, #5]
 8005bae:	4628      	mov	r0, r5
 8005bb0:	f001 f918 	bl	8006de4 <USBH_AllocPipe>
 8005bb4:	7120      	strb	r0, [r4, #4]
 8005bb6:	4628      	mov	r0, r5
 8005bb8:	f000 f926 	bl	8005e08 <USBH_MSC_BOT_Init>
 8005bbc:	79a2      	ldrb	r2, [r4, #6]
 8005bbe:	b90a      	cbnz	r2, 8005bc4 <USBH_MSC_InterfaceInit+0xb4>
 8005bc0:	2703      	movs	r7, #3
 8005bc2:	e7b3      	b.n	8005b2c <USBH_MSC_InterfaceInit+0x1c>
 8005bc4:	8923      	ldrh	r3, [r4, #8]
 8005bc6:	2b00      	cmp	r3, #0
 8005bc8:	d0fa      	beq.n	8005bc0 <USBH_MSC_InterfaceInit+0xb0>
 8005bca:	9302      	str	r3, [sp, #8]
 8005bcc:	2602      	movs	r6, #2
 8005bce:	f895 331d 	ldrb.w	r3, [r5, #797]	; 0x31d
 8005bd2:	9300      	str	r3, [sp, #0]
 8005bd4:	7961      	ldrb	r1, [r4, #5]
 8005bd6:	f895 331c 	ldrb.w	r3, [r5, #796]	; 0x31c
 8005bda:	9601      	str	r6, [sp, #4]
 8005bdc:	4628      	mov	r0, r5
 8005bde:	f001 f8ed 	bl	8006dbc <USBH_OpenPipe>
 8005be2:	79e2      	ldrb	r2, [r4, #7]
 8005be4:	2a00      	cmp	r2, #0
 8005be6:	d0eb      	beq.n	8005bc0 <USBH_MSC_InterfaceInit+0xb0>
 8005be8:	8963      	ldrh	r3, [r4, #10]
 8005bea:	2b00      	cmp	r3, #0
 8005bec:	d0e8      	beq.n	8005bc0 <USBH_MSC_InterfaceInit+0xb0>
 8005bee:	e9cd 6301 	strd	r6, r3, [sp, #4]
 8005bf2:	f895 331d 	ldrb.w	r3, [r5, #797]	; 0x31d
 8005bf6:	7921      	ldrb	r1, [r4, #4]
 8005bf8:	9300      	str	r3, [sp, #0]
 8005bfa:	4628      	mov	r0, r5
 8005bfc:	f895 331c 	ldrb.w	r3, [r5, #796]	; 0x31c
 8005c00:	f001 f8dc 	bl	8006dbc <USBH_OpenPipe>
 8005c04:	7921      	ldrb	r1, [r4, #4]
 8005c06:	2200      	movs	r2, #0
 8005c08:	4628      	mov	r0, r5
 8005c0a:	f003 f81e 	bl	8008c4a <USBH_LL_SetToggle>
 8005c0e:	7961      	ldrb	r1, [r4, #5]
 8005c10:	2200      	movs	r2, #0
 8005c12:	4628      	mov	r0, r5
 8005c14:	f003 f819 	bl	8008c4a <USBH_LL_SetToggle>
 8005c18:	e788      	b.n	8005b2c <USBH_MSC_InterfaceInit+0x1c>

08005c1a <USBH_MSC_RdWrProcess>:
 8005c1a:	f8d0 237c 	ldr.w	r2, [r0, #892]	; 0x37c
 8005c1e:	b573      	push	{r0, r1, r4, r5, r6, lr}
 8005c20:	69d2      	ldr	r2, [r2, #28]
 8005c22:	2634      	movs	r6, #52	; 0x34
 8005c24:	fb06 2401 	mla	r4, r6, r1, r2
 8005c28:	f894 5090 	ldrb.w	r5, [r4, #144]	; 0x90
 8005c2c:	2d06      	cmp	r5, #6
 8005c2e:	d005      	beq.n	8005c3c <USBH_MSC_RdWrProcess+0x22>
 8005c30:	2d07      	cmp	r5, #7
 8005c32:	d00e      	beq.n	8005c52 <USBH_MSC_RdWrProcess+0x38>
 8005c34:	2d05      	cmp	r5, #5
 8005c36:	d018      	beq.n	8005c6a <USBH_MSC_RdWrProcess+0x50>
 8005c38:	2001      	movs	r0, #1
 8005c3a:	e008      	b.n	8005c4e <USBH_MSC_RdWrProcess+0x34>
 8005c3c:	2300      	movs	r3, #0
 8005c3e:	9300      	str	r3, [sp, #0]
 8005c40:	461a      	mov	r2, r3
 8005c42:	f000 fb0d 	bl	8006260 <USBH_MSC_SCSI_Read>
 8005c46:	b950      	cbnz	r0, 8005c5e <USBH_MSC_RdWrProcess+0x44>
 8005c48:	2301      	movs	r3, #1
 8005c4a:	f884 3090 	strb.w	r3, [r4, #144]	; 0x90
 8005c4e:	b002      	add	sp, #8
 8005c50:	bd70      	pop	{r4, r5, r6, pc}
 8005c52:	2300      	movs	r3, #0
 8005c54:	9300      	str	r3, [sp, #0]
 8005c56:	461a      	mov	r2, r3
 8005c58:	f000 fac3 	bl	80061e2 <USBH_MSC_SCSI_Write>
 8005c5c:	e7f3      	b.n	8005c46 <USBH_MSC_RdWrProcess+0x2c>
 8005c5e:	2802      	cmp	r0, #2
 8005c60:	d10f      	bne.n	8005c82 <USBH_MSC_RdWrProcess+0x68>
 8005c62:	2305      	movs	r3, #5
 8005c64:	f884 3090 	strb.w	r3, [r4, #144]	; 0x90
 8005c68:	e7e6      	b.n	8005c38 <USBH_MSC_RdWrProcess+0x1e>
 8005c6a:	fb06 2201 	mla	r2, r6, r1, r2
 8005c6e:	329c      	adds	r2, #156	; 0x9c
 8005c70:	f000 fa7a 	bl	8006168 <USBH_MSC_SCSI_RequestSense>
 8005c74:	b928      	cbnz	r0, 8005c82 <USBH_MSC_RdWrProcess+0x68>
 8005c76:	f240 2301 	movw	r3, #513	; 0x201
 8005c7a:	f8a4 3090 	strh.w	r3, [r4, #144]	; 0x90
 8005c7e:	2002      	movs	r0, #2
 8005c80:	e7e5      	b.n	8005c4e <USBH_MSC_RdWrProcess+0x34>
 8005c82:	2804      	cmp	r0, #4
 8005c84:	d1d8      	bne.n	8005c38 <USBH_MSC_RdWrProcess+0x1e>
 8005c86:	2308      	movs	r3, #8
 8005c88:	f884 3090 	strb.w	r3, [r4, #144]	; 0x90
 8005c8c:	e7f7      	b.n	8005c7e <USBH_MSC_RdWrProcess+0x64>

08005c8e <USBH_MSC_UnitIsReady>:
 8005c8e:	7803      	ldrb	r3, [r0, #0]
 8005c90:	2b0b      	cmp	r3, #11
 8005c92:	bf01      	itttt	eq
 8005c94:	f8d0 337c 	ldreq.w	r3, [r0, #892]	; 0x37c
 8005c98:	69db      	ldreq	r3, [r3, #28]
 8005c9a:	2234      	moveq	r2, #52	; 0x34
 8005c9c:	fb02 3101 	mlaeq	r1, r2, r1, r3
 8005ca0:	bf03      	ittte	eq
 8005ca2:	f891 0091 	ldrbeq.w	r0, [r1, #145]	; 0x91
 8005ca6:	fab0 f080 	clzeq	r0, r0
 8005caa:	0940      	lsreq	r0, r0, #5
 8005cac:	2000      	movne	r0, #0
 8005cae:	4770      	bx	lr

08005cb0 <USBH_MSC_GetLUNInfo>:
 8005cb0:	b510      	push	{r4, lr}
 8005cb2:	7803      	ldrb	r3, [r0, #0]
 8005cb4:	2b0b      	cmp	r3, #11
 8005cb6:	d111      	bne.n	8005cdc <USBH_MSC_GetLUNInfo+0x2c>
 8005cb8:	f8d0 037c 	ldr.w	r0, [r0, #892]	; 0x37c
 8005cbc:	2334      	movs	r3, #52	; 0x34
 8005cbe:	2490      	movs	r4, #144	; 0x90
 8005cc0:	fb13 4101 	smlabb	r1, r3, r1, r4
 8005cc4:	69c3      	ldr	r3, [r0, #28]
 8005cc6:	4419      	add	r1, r3
 8005cc8:	f101 0334 	add.w	r3, r1, #52	; 0x34
 8005ccc:	f851 0b04 	ldr.w	r0, [r1], #4
 8005cd0:	f842 0b04 	str.w	r0, [r2], #4
 8005cd4:	4299      	cmp	r1, r3
 8005cd6:	d1f9      	bne.n	8005ccc <USBH_MSC_GetLUNInfo+0x1c>
 8005cd8:	2000      	movs	r0, #0
 8005cda:	bd10      	pop	{r4, pc}
 8005cdc:	2002      	movs	r0, #2
 8005cde:	e7fc      	b.n	8005cda <USBH_MSC_GetLUNInfo+0x2a>

08005ce0 <USBH_MSC_Read>:
 8005ce0:	e92d 41f3 	stmdb	sp!, {r0, r1, r4, r5, r6, r7, r8, lr}
 8005ce4:	f890 5320 	ldrb.w	r5, [r0, #800]	; 0x320
 8005ce8:	9f08      	ldr	r7, [sp, #32]
 8005cea:	4604      	mov	r4, r0
 8005cec:	460e      	mov	r6, r1
 8005cee:	b3b5      	cbz	r5, 8005d5e <USBH_MSC_Read+0x7e>
 8005cf0:	7805      	ldrb	r5, [r0, #0]
 8005cf2:	2d0b      	cmp	r5, #11
 8005cf4:	d133      	bne.n	8005d5e <USBH_MSC_Read+0x7e>
 8005cf6:	f8d0 537c 	ldr.w	r5, [r0, #892]	; 0x37c
 8005cfa:	69ed      	ldr	r5, [r5, #28]
 8005cfc:	f04f 0c34 	mov.w	ip, #52	; 0x34
 8005d00:	fb0c 5c01 	mla	ip, ip, r1, r5
 8005d04:	f89c e090 	ldrb.w	lr, [ip, #144]	; 0x90
 8005d08:	f1be 0f01 	cmp.w	lr, #1
 8005d0c:	d127      	bne.n	8005d5e <USBH_MSC_Read+0x7e>
 8005d0e:	f04f 0e06 	mov.w	lr, #6
 8005d12:	f885 e00c 	strb.w	lr, [r5, #12]
 8005d16:	f88c e090 	strb.w	lr, [ip, #144]	; 0x90
 8005d1a:	f8a5 10fa 	strh.w	r1, [r5, #250]	; 0xfa
 8005d1e:	9700      	str	r7, [sp, #0]
 8005d20:	f000 fa9e 	bl	8006260 <USBH_MSC_SCSI_Read>
 8005d24:	f242 7310 	movw	r3, #10000	; 0x2710
 8005d28:	f8d4 83c4 	ldr.w	r8, [r4, #964]	; 0x3c4
 8005d2c:	435f      	muls	r7, r3
 8005d2e:	4631      	mov	r1, r6
 8005d30:	4620      	mov	r0, r4
 8005d32:	f7ff ff72 	bl	8005c1a <USBH_MSC_RdWrProcess>
 8005d36:	2801      	cmp	r0, #1
 8005d38:	d005      	beq.n	8005d46 <USBH_MSC_Read+0x66>
 8005d3a:	2301      	movs	r3, #1
 8005d3c:	732b      	strb	r3, [r5, #12]
 8005d3e:	2000      	movs	r0, #0
 8005d40:	b002      	add	sp, #8
 8005d42:	e8bd 81f0 	ldmia.w	sp!, {r4, r5, r6, r7, r8, pc}
 8005d46:	f8d4 33c4 	ldr.w	r3, [r4, #964]	; 0x3c4
 8005d4a:	eba3 0308 	sub.w	r3, r3, r8
 8005d4e:	42bb      	cmp	r3, r7
 8005d50:	d803      	bhi.n	8005d5a <USBH_MSC_Read+0x7a>
 8005d52:	f894 3320 	ldrb.w	r3, [r4, #800]	; 0x320
 8005d56:	2b00      	cmp	r3, #0
 8005d58:	d1e9      	bne.n	8005d2e <USBH_MSC_Read+0x4e>
 8005d5a:	2301      	movs	r3, #1
 8005d5c:	732b      	strb	r3, [r5, #12]
 8005d5e:	2002      	movs	r0, #2
 8005d60:	e7ee      	b.n	8005d40 <USBH_MSC_Read+0x60>

08005d62 <USBH_MSC_Write>:
 8005d62:	e92d 41f3 	stmdb	sp!, {r0, r1, r4, r5, r6, r7, r8, lr}
 8005d66:	f890 5320 	ldrb.w	r5, [r0, #800]	; 0x320
 8005d6a:	9f08      	ldr	r7, [sp, #32]
 8005d6c:	4604      	mov	r4, r0
 8005d6e:	460e      	mov	r6, r1
 8005d70:	b3b5      	cbz	r5, 8005de0 <USBH_MSC_Write+0x7e>
 8005d72:	7805      	ldrb	r5, [r0, #0]
 8005d74:	2d0b      	cmp	r5, #11
 8005d76:	d133      	bne.n	8005de0 <USBH_MSC_Write+0x7e>
 8005d78:	f8d0 537c 	ldr.w	r5, [r0, #892]	; 0x37c
 8005d7c:	69ed      	ldr	r5, [r5, #28]
 8005d7e:	f04f 0c34 	mov.w	ip, #52	; 0x34
 8005d82:	fb0c 5c01 	mla	ip, ip, r1, r5
 8005d86:	f89c e090 	ldrb.w	lr, [ip, #144]	; 0x90
 8005d8a:	f1be 0f01 	cmp.w	lr, #1
 8005d8e:	d127      	bne.n	8005de0 <USBH_MSC_Write+0x7e>
 8005d90:	f04f 0e07 	mov.w	lr, #7
 8005d94:	f885 e00c 	strb.w	lr, [r5, #12]
 8005d98:	f88c e090 	strb.w	lr, [ip, #144]	; 0x90
 8005d9c:	f8a5 10fa 	strh.w	r1, [r5, #250]	; 0xfa
 8005da0:	9700      	str	r7, [sp, #0]
 8005da2:	f000 fa1e 	bl	80061e2 <USBH_MSC_SCSI_Write>
 8005da6:	f242 7310 	movw	r3, #10000	; 0x2710
 8005daa:	f8d4 83c4 	ldr.w	r8, [r4, #964]	; 0x3c4
 8005dae:	435f      	muls	r7, r3
 8005db0:	4631      	mov	r1, r6
 8005db2:	4620      	mov	r0, r4
 8005db4:	f7ff ff31 	bl	8005c1a <USBH_MSC_RdWrProcess>
 8005db8:	2801      	cmp	r0, #1
 8005dba:	d005      	beq.n	8005dc8 <USBH_MSC_Write+0x66>
 8005dbc:	2301      	movs	r3, #1
 8005dbe:	732b      	strb	r3, [r5, #12]
 8005dc0:	2000      	movs	r0, #0
 8005dc2:	b002      	add	sp, #8
 8005dc4:	e8bd 81f0 	ldmia.w	sp!, {r4, r5, r6, r7, r8, pc}
 8005dc8:	f8d4 33c4 	ldr.w	r3, [r4, #964]	; 0x3c4
 8005dcc:	eba3 0308 	sub.w	r3, r3, r8
 8005dd0:	42bb      	cmp	r3, r7
 8005dd2:	d803      	bhi.n	8005ddc <USBH_MSC_Write+0x7a>
 8005dd4:	f894 3320 	ldrb.w	r3, [r4, #800]	; 0x320
 8005dd8:	2b00      	cmp	r3, #0
 8005dda:	d1e9      	bne.n	8005db0 <USBH_MSC_Write+0x4e>
 8005ddc:	2301      	movs	r3, #1
 8005dde:	732b      	strb	r3, [r5, #12]
 8005de0:	2002      	movs	r0, #2
 8005de2:	e7ee      	b.n	8005dc2 <USBH_MSC_Write+0x60>

08005de4 <USBH_MSC_BOT_REQ_Reset>:
 8005de4:	f64f 7121 	movw	r1, #65313	; 0xff21
 8005de8:	2200      	movs	r2, #0
 8005dea:	e9c0 1204 	strd	r1, r2, [r0, #16]
 8005dee:	4611      	mov	r1, r2
 8005df0:	f000 bd13 	b.w	800681a <USBH_CtlReq>

08005df4 <USBH_MSC_BOT_REQ_GetMaxLUN>:
 8005df4:	f44f 3280 	mov.w	r2, #65536	; 0x10000
 8005df8:	f64f 6ca1 	movw	ip, #65185	; 0xfea1
 8005dfc:	e9c0 c204 	strd	ip, r2, [r0, #16]
 8005e00:	2201      	movs	r2, #1
 8005e02:	f000 bd0a 	b.w	800681a <USBH_CtlReq>
	...

08005e08 <USBH_MSC_BOT_Init>:
 8005e08:	f8d0 337c 	ldr.w	r3, [r0, #892]	; 0x37c
 8005e0c:	4905      	ldr	r1, [pc, #20]	; (8005e24 <USBH_MSC_BOT_Init+0x1c>)
 8005e0e:	69db      	ldr	r3, [r3, #28]
 8005e10:	4a05      	ldr	r2, [pc, #20]	; (8005e28 <USBH_MSC_BOT_Init+0x20>)
 8005e12:	e9c3 1215 	strd	r1, r2, [r3, #84]	; 0x54
 8005e16:	2201      	movs	r2, #1
 8005e18:	f883 2050 	strb.w	r2, [r3, #80]	; 0x50
 8005e1c:	f883 2052 	strb.w	r2, [r3, #82]	; 0x52
 8005e20:	2000      	movs	r0, #0
 8005e22:	4770      	bx	lr
 8005e24:	43425355 	.word	0x43425355
 8005e28:	20304050 	.word	0x20304050

08005e2c <USBH_MSC_BOT_Process>:
 8005e2c:	b573      	push	{r0, r1, r4, r5, r6, lr}
 8005e2e:	f8d0 337c 	ldr.w	r3, [r0, #892]	; 0x37c
 8005e32:	69dc      	ldr	r4, [r3, #28]
 8005e34:	f894 5050 	ldrb.w	r5, [r4, #80]	; 0x50
 8005e38:	1e6b      	subs	r3, r5, #1
 8005e3a:	4606      	mov	r6, r0
 8005e3c:	2b0a      	cmp	r3, #10
 8005e3e:	d838      	bhi.n	8005eb2 <USBH_MSC_BOT_Process+0x86>
 8005e40:	e8df f003 	tbb	[pc, r3]
 8005e44:	392e1506 	.word	0x392e1506
 8005e48:	89816056 	.word	0x89816056
 8005e4c:	b6ac      	.short	0xb6ac
 8005e4e:	ce          	.byte	0xce
 8005e4f:	00          	.byte	0x00
 8005e50:	2302      	movs	r3, #2
 8005e52:	2201      	movs	r2, #1
 8005e54:	f884 1061 	strb.w	r1, [r4, #97]	; 0x61
 8005e58:	f884 3050 	strb.w	r3, [r4, #80]	; 0x50
 8005e5c:	f104 0154 	add.w	r1, r4, #84	; 0x54
 8005e60:	7963      	ldrb	r3, [r4, #5]
 8005e62:	9200      	str	r2, [sp, #0]
 8005e64:	221f      	movs	r2, #31
 8005e66:	4630      	mov	r0, r6
 8005e68:	f000 ff81 	bl	8006d6e <USBH_BulkSendData>
 8005e6c:	e015      	b.n	8005e9a <USBH_MSC_BOT_Process+0x6e>
 8005e6e:	7961      	ldrb	r1, [r4, #5]
 8005e70:	f002 feda 	bl	8008c28 <USBH_LL_GetURBState>
 8005e74:	2801      	cmp	r0, #1
 8005e76:	4605      	mov	r5, r0
 8005e78:	d10a      	bne.n	8005e90 <USBH_MSC_BOT_Process+0x64>
 8005e7a:	6de3      	ldr	r3, [r4, #92]	; 0x5c
 8005e7c:	b36b      	cbz	r3, 8005eda <USBH_MSC_BOT_Process+0xae>
 8005e7e:	f994 3060 	ldrsb.w	r3, [r4, #96]	; 0x60
 8005e82:	2b00      	cmp	r3, #0
 8005e84:	bfb4      	ite	lt
 8005e86:	2303      	movlt	r3, #3
 8005e88:	2305      	movge	r3, #5
 8005e8a:	f884 3050 	strb.w	r3, [r4, #80]	; 0x50
 8005e8e:	e004      	b.n	8005e9a <USBH_MSC_BOT_Process+0x6e>
 8005e90:	2802      	cmp	r0, #2
 8005e92:	d154      	bne.n	8005f3e <USBH_MSC_BOT_Process+0x112>
 8005e94:	2501      	movs	r5, #1
 8005e96:	f884 5050 	strb.w	r5, [r4, #80]	; 0x50
 8005e9a:	4628      	mov	r0, r5
 8005e9c:	b002      	add	sp, #8
 8005e9e:	bd70      	pop	{r4, r5, r6, pc}
 8005ea0:	7923      	ldrb	r3, [r4, #4]
 8005ea2:	8962      	ldrh	r2, [r4, #10]
 8005ea4:	f8d4 108c 	ldr.w	r1, [r4, #140]	; 0x8c
 8005ea8:	f000 ff78 	bl	8006d9c <USBH_BulkReceiveData>
 8005eac:	2304      	movs	r3, #4
 8005eae:	f884 3050 	strb.w	r3, [r4, #80]	; 0x50
 8005eb2:	2501      	movs	r5, #1
 8005eb4:	e7f1      	b.n	8005e9a <USBH_MSC_BOT_Process+0x6e>
 8005eb6:	7921      	ldrb	r1, [r4, #4]
 8005eb8:	f002 feb6 	bl	8008c28 <USBH_LL_GetURBState>
 8005ebc:	2801      	cmp	r0, #1
 8005ebe:	4605      	mov	r5, r0
 8005ec0:	d112      	bne.n	8005ee8 <USBH_MSC_BOT_Process+0xbc>
 8005ec2:	6de3      	ldr	r3, [r4, #92]	; 0x5c
 8005ec4:	8962      	ldrh	r2, [r4, #10]
 8005ec6:	4293      	cmp	r3, r2
 8005ec8:	d932      	bls.n	8005f30 <USBH_MSC_BOT_Process+0x104>
 8005eca:	f8d4 108c 	ldr.w	r1, [r4, #140]	; 0x8c
 8005ece:	1a9b      	subs	r3, r3, r2
 8005ed0:	4411      	add	r1, r2
 8005ed2:	f8c4 108c 	str.w	r1, [r4, #140]	; 0x8c
 8005ed6:	65e3      	str	r3, [r4, #92]	; 0x5c
 8005ed8:	b90b      	cbnz	r3, 8005ede <USBH_MSC_BOT_Process+0xb2>
 8005eda:	2307      	movs	r3, #7
 8005edc:	e7d5      	b.n	8005e8a <USBH_MSC_BOT_Process+0x5e>
 8005ede:	7923      	ldrb	r3, [r4, #4]
 8005ee0:	4630      	mov	r0, r6
 8005ee2:	f000 ff5b 	bl	8006d9c <USBH_BulkReceiveData>
 8005ee6:	e7d8      	b.n	8005e9a <USBH_MSC_BOT_Process+0x6e>
 8005ee8:	2805      	cmp	r0, #5
 8005eea:	d1e2      	bne.n	8005eb2 <USBH_MSC_BOT_Process+0x86>
 8005eec:	2309      	movs	r3, #9
 8005eee:	e7de      	b.n	8005eae <USBH_MSC_BOT_Process+0x82>
 8005ef0:	2501      	movs	r5, #1
 8005ef2:	7963      	ldrb	r3, [r4, #5]
 8005ef4:	8922      	ldrh	r2, [r4, #8]
 8005ef6:	9500      	str	r5, [sp, #0]
 8005ef8:	f8d4 108c 	ldr.w	r1, [r4, #140]	; 0x8c
 8005efc:	f000 ff37 	bl	8006d6e <USBH_BulkSendData>
 8005f00:	2306      	movs	r3, #6
 8005f02:	e7c2      	b.n	8005e8a <USBH_MSC_BOT_Process+0x5e>
 8005f04:	7961      	ldrb	r1, [r4, #5]
 8005f06:	f002 fe8f 	bl	8008c28 <USBH_LL_GetURBState>
 8005f0a:	2801      	cmp	r0, #1
 8005f0c:	4605      	mov	r5, r0
 8005f0e:	d112      	bne.n	8005f36 <USBH_MSC_BOT_Process+0x10a>
 8005f10:	6de3      	ldr	r3, [r4, #92]	; 0x5c
 8005f12:	8922      	ldrh	r2, [r4, #8]
 8005f14:	4293      	cmp	r3, r2
 8005f16:	d90b      	bls.n	8005f30 <USBH_MSC_BOT_Process+0x104>
 8005f18:	f8d4 108c 	ldr.w	r1, [r4, #140]	; 0x8c
 8005f1c:	1a9b      	subs	r3, r3, r2
 8005f1e:	4411      	add	r1, r2
 8005f20:	f8c4 108c 	str.w	r1, [r4, #140]	; 0x8c
 8005f24:	65e3      	str	r3, [r4, #92]	; 0x5c
 8005f26:	2b00      	cmp	r3, #0
 8005f28:	d0d7      	beq.n	8005eda <USBH_MSC_BOT_Process+0xae>
 8005f2a:	7963      	ldrb	r3, [r4, #5]
 8005f2c:	9000      	str	r0, [sp, #0]
 8005f2e:	e79a      	b.n	8005e66 <USBH_MSC_BOT_Process+0x3a>
 8005f30:	2300      	movs	r3, #0
 8005f32:	65e3      	str	r3, [r4, #92]	; 0x5c
 8005f34:	e7d1      	b.n	8005eda <USBH_MSC_BOT_Process+0xae>
 8005f36:	2802      	cmp	r0, #2
 8005f38:	d101      	bne.n	8005f3e <USBH_MSC_BOT_Process+0x112>
 8005f3a:	2305      	movs	r3, #5
 8005f3c:	e7b7      	b.n	8005eae <USBH_MSC_BOT_Process+0x82>
 8005f3e:	2d05      	cmp	r5, #5
 8005f40:	d1b7      	bne.n	8005eb2 <USBH_MSC_BOT_Process+0x86>
 8005f42:	230a      	movs	r3, #10
 8005f44:	e7b3      	b.n	8005eae <USBH_MSC_BOT_Process+0x82>
 8005f46:	7923      	ldrb	r3, [r4, #4]
 8005f48:	220d      	movs	r2, #13
 8005f4a:	f104 0178 	add.w	r1, r4, #120	; 0x78
 8005f4e:	f000 ff25 	bl	8006d9c <USBH_BulkReceiveData>
 8005f52:	2308      	movs	r3, #8
 8005f54:	e7ab      	b.n	8005eae <USBH_MSC_BOT_Process+0x82>
 8005f56:	7921      	ldrb	r1, [r4, #4]
 8005f58:	f002 fe66 	bl	8008c28 <USBH_LL_GetURBState>
 8005f5c:	2801      	cmp	r0, #1
 8005f5e:	d11b      	bne.n	8005f98 <USBH_MSC_BOT_Process+0x16c>
 8005f60:	f884 0050 	strb.w	r0, [r4, #80]	; 0x50
 8005f64:	f884 0052 	strb.w	r0, [r4, #82]	; 0x52
 8005f68:	f8d6 337c 	ldr.w	r3, [r6, #892]	; 0x37c
 8005f6c:	69dc      	ldr	r4, [r3, #28]
 8005f6e:	4630      	mov	r0, r6
 8005f70:	7921      	ldrb	r1, [r4, #4]
 8005f72:	f002 fe55 	bl	8008c20 <USBH_LL_GetLastXferSize>
 8005f76:	280d      	cmp	r0, #13
 8005f78:	d13a      	bne.n	8005ff0 <USBH_MSC_BOT_Process+0x1c4>
 8005f7a:	6fa2      	ldr	r2, [r4, #120]	; 0x78
 8005f7c:	4b1d      	ldr	r3, [pc, #116]	; (8005ff4 <USBH_MSC_BOT_Process+0x1c8>)
 8005f7e:	429a      	cmp	r2, r3
 8005f80:	d136      	bne.n	8005ff0 <USBH_MSC_BOT_Process+0x1c4>
 8005f82:	6fe2      	ldr	r2, [r4, #124]	; 0x7c
 8005f84:	6da3      	ldr	r3, [r4, #88]	; 0x58
 8005f86:	429a      	cmp	r2, r3
 8005f88:	d132      	bne.n	8005ff0 <USBH_MSC_BOT_Process+0x1c4>
 8005f8a:	f894 5084 	ldrb.w	r5, [r4, #132]	; 0x84
 8005f8e:	3d00      	subs	r5, #0
 8005f90:	bf18      	it	ne
 8005f92:	2501      	movne	r5, #1
 8005f94:	006d      	lsls	r5, r5, #1
 8005f96:	e780      	b.n	8005e9a <USBH_MSC_BOT_Process+0x6e>
 8005f98:	2805      	cmp	r0, #5
 8005f9a:	e7a6      	b.n	8005eea <USBH_MSC_BOT_Process+0xbe>
 8005f9c:	79e1      	ldrb	r1, [r4, #7]
 8005f9e:	f000 fea2 	bl	8006ce6 <USBH_ClrFeature>
 8005fa2:	b908      	cbnz	r0, 8005fa8 <USBH_MSC_BOT_Process+0x17c>
 8005fa4:	2307      	movs	r3, #7
 8005fa6:	e782      	b.n	8005eae <USBH_MSC_BOT_Process+0x82>
 8005fa8:	2804      	cmp	r0, #4
 8005faa:	d182      	bne.n	8005eb2 <USBH_MSC_BOT_Process+0x86>
 8005fac:	230b      	movs	r3, #11
 8005fae:	e77e      	b.n	8005eae <USBH_MSC_BOT_Process+0x82>
 8005fb0:	79a1      	ldrb	r1, [r4, #6]
 8005fb2:	f000 fe98 	bl	8006ce6 <USBH_ClrFeature>
 8005fb6:	4605      	mov	r5, r0
 8005fb8:	b980      	cbnz	r0, 8005fdc <USBH_MSC_BOT_Process+0x1b0>
 8005fba:	7961      	ldrb	r1, [r4, #5]
 8005fbc:	4630      	mov	r0, r6
 8005fbe:	f002 fe53 	bl	8008c68 <USBH_LL_GetToggle>
 8005fc2:	f1c0 0001 	rsb	r0, r0, #1
 8005fc6:	7961      	ldrb	r1, [r4, #5]
 8005fc8:	b2c2      	uxtb	r2, r0
 8005fca:	4630      	mov	r0, r6
 8005fcc:	f002 fe3d 	bl	8008c4a <USBH_LL_SetToggle>
 8005fd0:	7921      	ldrb	r1, [r4, #4]
 8005fd2:	462a      	mov	r2, r5
 8005fd4:	4630      	mov	r0, r6
 8005fd6:	f002 fe38 	bl	8008c4a <USBH_LL_SetToggle>
 8005fda:	e787      	b.n	8005eec <USBH_MSC_BOT_Process+0xc0>
 8005fdc:	2804      	cmp	r0, #4
 8005fde:	e7e4      	b.n	8005faa <USBH_MSC_BOT_Process+0x17e>
 8005fe0:	f7ff ff00 	bl	8005de4 <USBH_MSC_BOT_REQ_Reset>
 8005fe4:	4605      	mov	r5, r0
 8005fe6:	2800      	cmp	r0, #0
 8005fe8:	f47f af57 	bne.w	8005e9a <USBH_MSC_BOT_Process+0x6e>
 8005fec:	2301      	movs	r3, #1
 8005fee:	e74c      	b.n	8005e8a <USBH_MSC_BOT_Process+0x5e>
 8005ff0:	2502      	movs	r5, #2
 8005ff2:	e752      	b.n	8005e9a <USBH_MSC_BOT_Process+0x6e>
 8005ff4:	53425355 	.word	0x53425355

08005ff8 <USBH_MSC_SCSI_TestUnitReady>:
 8005ff8:	b538      	push	{r3, r4, r5, lr}
 8005ffa:	f8d0 337c 	ldr.w	r3, [r0, #892]	; 0x37c
 8005ffe:	69dc      	ldr	r4, [r3, #28]
 8006000:	f894 5052 	ldrb.w	r5, [r4, #82]	; 0x52
 8006004:	2d01      	cmp	r5, #1
 8006006:	d004      	beq.n	8006012 <USBH_MSC_SCSI_TestUnitReady+0x1a>
 8006008:	2d02      	cmp	r5, #2
 800600a:	d014      	beq.n	8006036 <USBH_MSC_SCSI_TestUnitReady+0x3e>
 800600c:	2502      	movs	r5, #2
 800600e:	4628      	mov	r0, r5
 8006010:	bd38      	pop	{r3, r4, r5, pc}
 8006012:	2100      	movs	r1, #0
 8006014:	230a      	movs	r3, #10
 8006016:	f884 3062 	strb.w	r3, [r4, #98]	; 0x62
 800601a:	65e1      	str	r1, [r4, #92]	; 0x5c
 800601c:	f884 1060 	strb.w	r1, [r4, #96]	; 0x60
 8006020:	2210      	movs	r2, #16
 8006022:	f104 0063 	add.w	r0, r4, #99	; 0x63
 8006026:	f002 ff49 	bl	8008ebc <memset>
 800602a:	2302      	movs	r3, #2
 800602c:	f884 5050 	strb.w	r5, [r4, #80]	; 0x50
 8006030:	f884 3052 	strb.w	r3, [r4, #82]	; 0x52
 8006034:	e7eb      	b.n	800600e <USBH_MSC_SCSI_TestUnitReady+0x16>
 8006036:	e8bd 4038 	ldmia.w	sp!, {r3, r4, r5, lr}
 800603a:	f7ff bef7 	b.w	8005e2c <USBH_MSC_BOT_Process>

0800603e <USBH_MSC_SCSI_ReadCapacity>:
 800603e:	b570      	push	{r4, r5, r6, lr}
 8006040:	f8d0 337c 	ldr.w	r3, [r0, #892]	; 0x37c
 8006044:	69dc      	ldr	r4, [r3, #28]
 8006046:	f894 5052 	ldrb.w	r5, [r4, #82]	; 0x52
 800604a:	2d01      	cmp	r5, #1
 800604c:	4616      	mov	r6, r2
 800604e:	d004      	beq.n	800605a <USBH_MSC_SCSI_ReadCapacity+0x1c>
 8006050:	2d02      	cmp	r5, #2
 8006052:	d01b      	beq.n	800608c <USBH_MSC_SCSI_ReadCapacity+0x4e>
 8006054:	2501      	movs	r5, #1
 8006056:	4628      	mov	r0, r5
 8006058:	bd70      	pop	{r4, r5, r6, pc}
 800605a:	2308      	movs	r3, #8
 800605c:	65e3      	str	r3, [r4, #92]	; 0x5c
 800605e:	2380      	movs	r3, #128	; 0x80
 8006060:	f884 3060 	strb.w	r3, [r4, #96]	; 0x60
 8006064:	2210      	movs	r2, #16
 8006066:	2100      	movs	r1, #0
 8006068:	f104 0063 	add.w	r0, r4, #99	; 0x63
 800606c:	f002 ff26 	bl	8008ebc <memset>
 8006070:	f242 530a 	movw	r3, #9482	; 0x250a
 8006074:	f8a4 3062 	strh.w	r3, [r4, #98]	; 0x62
 8006078:	2302      	movs	r3, #2
 800607a:	f884 3052 	strb.w	r3, [r4, #82]	; 0x52
 800607e:	f104 0310 	add.w	r3, r4, #16
 8006082:	f884 5050 	strb.w	r5, [r4, #80]	; 0x50
 8006086:	f8c4 308c 	str.w	r3, [r4, #140]	; 0x8c
 800608a:	e7e4      	b.n	8006056 <USBH_MSC_SCSI_ReadCapacity+0x18>
 800608c:	f7ff fece 	bl	8005e2c <USBH_MSC_BOT_Process>
 8006090:	4605      	mov	r5, r0
 8006092:	2800      	cmp	r0, #0
 8006094:	d1df      	bne.n	8006056 <USBH_MSC_SCSI_ReadCapacity+0x18>
 8006096:	f8d4 208c 	ldr.w	r2, [r4, #140]	; 0x8c
 800609a:	6813      	ldr	r3, [r2, #0]
 800609c:	ba1b      	rev	r3, r3
 800609e:	6033      	str	r3, [r6, #0]
 80060a0:	88d3      	ldrh	r3, [r2, #6]
 80060a2:	ba5b      	rev16	r3, r3
 80060a4:	80b3      	strh	r3, [r6, #4]
 80060a6:	e7d6      	b.n	8006056 <USBH_MSC_SCSI_ReadCapacity+0x18>

080060a8 <USBH_MSC_SCSI_Inquiry>:
 80060a8:	b570      	push	{r4, r5, r6, lr}
 80060aa:	4616      	mov	r6, r2
 80060ac:	f8d0 237c 	ldr.w	r2, [r0, #892]	; 0x37c
 80060b0:	69d4      	ldr	r4, [r2, #28]
 80060b2:	f894 5052 	ldrb.w	r5, [r4, #82]	; 0x52
 80060b6:	2d01      	cmp	r5, #1
 80060b8:	460b      	mov	r3, r1
 80060ba:	d004      	beq.n	80060c6 <USBH_MSC_SCSI_Inquiry+0x1e>
 80060bc:	2d02      	cmp	r5, #2
 80060be:	d021      	beq.n	8006104 <USBH_MSC_SCSI_Inquiry+0x5c>
 80060c0:	2502      	movs	r5, #2
 80060c2:	4628      	mov	r0, r5
 80060c4:	bd70      	pop	{r4, r5, r6, pc}
 80060c6:	2280      	movs	r2, #128	; 0x80
 80060c8:	015b      	lsls	r3, r3, #5
 80060ca:	f884 2060 	strb.w	r2, [r4, #96]	; 0x60
 80060ce:	2200      	movs	r2, #0
 80060d0:	f8c4 2063 	str.w	r2, [r4, #99]	; 0x63
 80060d4:	f884 3064 	strb.w	r3, [r4, #100]	; 0x64
 80060d8:	2302      	movs	r3, #2
 80060da:	2124      	movs	r1, #36	; 0x24
 80060dc:	f8c4 2067 	str.w	r2, [r4, #103]	; 0x67
 80060e0:	f8a4 206b 	strh.w	r2, [r4, #107]	; 0x6b
 80060e4:	f884 3052 	strb.w	r3, [r4, #82]	; 0x52
 80060e8:	f241 220a 	movw	r2, #4618	; 0x120a
 80060ec:	f104 0310 	add.w	r3, r4, #16
 80060f0:	65e1      	str	r1, [r4, #92]	; 0x5c
 80060f2:	f8a4 2062 	strh.w	r2, [r4, #98]	; 0x62
 80060f6:	f884 1067 	strb.w	r1, [r4, #103]	; 0x67
 80060fa:	f884 5050 	strb.w	r5, [r4, #80]	; 0x50
 80060fe:	f8c4 308c 	str.w	r3, [r4, #140]	; 0x8c
 8006102:	e7de      	b.n	80060c2 <USBH_MSC_SCSI_Inquiry+0x1a>
 8006104:	f7ff fe92 	bl	8005e2c <USBH_MSC_BOT_Process>
 8006108:	4605      	mov	r5, r0
 800610a:	2800      	cmp	r0, #0
 800610c:	d1d9      	bne.n	80060c2 <USBH_MSC_SCSI_Inquiry+0x1a>
 800610e:	4601      	mov	r1, r0
 8006110:	2222      	movs	r2, #34	; 0x22
 8006112:	4630      	mov	r0, r6
 8006114:	f002 fed2 	bl	8008ebc <memset>
 8006118:	f8d4 308c 	ldr.w	r3, [r4, #140]	; 0x8c
 800611c:	781a      	ldrb	r2, [r3, #0]
 800611e:	f002 021f 	and.w	r2, r2, #31
 8006122:	7072      	strb	r2, [r6, #1]
 8006124:	781a      	ldrb	r2, [r3, #0]
 8006126:	0952      	lsrs	r2, r2, #5
 8006128:	7032      	strb	r2, [r6, #0]
 800612a:	f993 2001 	ldrsb.w	r2, [r3, #1]
 800612e:	2a00      	cmp	r2, #0
 8006130:	bfbc      	itt	lt
 8006132:	2201      	movlt	r2, #1
 8006134:	70b2      	strblt	r2, [r6, #2]
 8006136:	689a      	ldr	r2, [r3, #8]
 8006138:	f8c6 2003 	str.w	r2, [r6, #3]
 800613c:	68da      	ldr	r2, [r3, #12]
 800613e:	f8c6 2007 	str.w	r2, [r6, #7]
 8006142:	f8d4 308c 	ldr.w	r3, [r4, #140]	; 0x8c
 8006146:	f106 010c 	add.w	r1, r6, #12
 800614a:	f103 0210 	add.w	r2, r3, #16
 800614e:	3320      	adds	r3, #32
 8006150:	f852 0b04 	ldr.w	r0, [r2], #4
 8006154:	f841 0b04 	str.w	r0, [r1], #4
 8006158:	429a      	cmp	r2, r3
 800615a:	d1f9      	bne.n	8006150 <USBH_MSC_SCSI_Inquiry+0xa8>
 800615c:	f8d4 308c 	ldr.w	r3, [r4, #140]	; 0x8c
 8006160:	6a1b      	ldr	r3, [r3, #32]
 8006162:	f8c6 301d 	str.w	r3, [r6, #29]
 8006166:	e7ac      	b.n	80060c2 <USBH_MSC_SCSI_Inquiry+0x1a>

08006168 <USBH_MSC_SCSI_RequestSense>:
 8006168:	b5f8      	push	{r3, r4, r5, r6, r7, lr}
 800616a:	f8d0 337c 	ldr.w	r3, [r0, #892]	; 0x37c
 800616e:	69dc      	ldr	r4, [r3, #28]
 8006170:	f894 5052 	ldrb.w	r5, [r4, #82]	; 0x52
 8006174:	2d01      	cmp	r5, #1
 8006176:	460f      	mov	r7, r1
 8006178:	4616      	mov	r6, r2
 800617a:	d004      	beq.n	8006186 <USBH_MSC_SCSI_RequestSense+0x1e>
 800617c:	2d02      	cmp	r5, #2
 800617e:	d020      	beq.n	80061c2 <USBH_MSC_SCSI_RequestSense+0x5a>
 8006180:	2502      	movs	r5, #2
 8006182:	4628      	mov	r0, r5
 8006184:	bdf8      	pop	{r3, r4, r5, r6, r7, pc}
 8006186:	2380      	movs	r3, #128	; 0x80
 8006188:	260e      	movs	r6, #14
 800618a:	f884 3060 	strb.w	r3, [r4, #96]	; 0x60
 800618e:	65e6      	str	r6, [r4, #92]	; 0x5c
 8006190:	2210      	movs	r2, #16
 8006192:	2100      	movs	r1, #0
 8006194:	f104 0063 	add.w	r0, r4, #99	; 0x63
 8006198:	f002 fe90 	bl	8008ebc <memset>
 800619c:	f240 330a 	movw	r3, #778	; 0x30a
 80061a0:	f8a4 3062 	strh.w	r3, [r4, #98]	; 0x62
 80061a4:	2302      	movs	r3, #2
 80061a6:	017f      	lsls	r7, r7, #5
 80061a8:	f884 3052 	strb.w	r3, [r4, #82]	; 0x52
 80061ac:	f104 0310 	add.w	r3, r4, #16
 80061b0:	f884 7064 	strb.w	r7, [r4, #100]	; 0x64
 80061b4:	f884 6067 	strb.w	r6, [r4, #103]	; 0x67
 80061b8:	f884 5050 	strb.w	r5, [r4, #80]	; 0x50
 80061bc:	f8c4 308c 	str.w	r3, [r4, #140]	; 0x8c
 80061c0:	e7df      	b.n	8006182 <USBH_MSC_SCSI_RequestSense+0x1a>
 80061c2:	f7ff fe33 	bl	8005e2c <USBH_MSC_BOT_Process>
 80061c6:	4605      	mov	r5, r0
 80061c8:	2800      	cmp	r0, #0
 80061ca:	d1da      	bne.n	8006182 <USBH_MSC_SCSI_RequestSense+0x1a>
 80061cc:	f8d4 308c 	ldr.w	r3, [r4, #140]	; 0x8c
 80061d0:	789a      	ldrb	r2, [r3, #2]
 80061d2:	f002 020f 	and.w	r2, r2, #15
 80061d6:	7032      	strb	r2, [r6, #0]
 80061d8:	7b1a      	ldrb	r2, [r3, #12]
 80061da:	7072      	strb	r2, [r6, #1]
 80061dc:	7b5b      	ldrb	r3, [r3, #13]
 80061de:	70b3      	strb	r3, [r6, #2]
 80061e0:	e7cf      	b.n	8006182 <USBH_MSC_SCSI_RequestSense+0x1a>

080061e2 <USBH_MSC_SCSI_Write>:
 80061e2:	e92d 41f0 	stmdb	sp!, {r4, r5, r6, r7, r8, lr}
 80061e6:	4698      	mov	r8, r3
 80061e8:	f8d0 337c 	ldr.w	r3, [r0, #892]	; 0x37c
 80061ec:	9f06      	ldr	r7, [sp, #24]
 80061ee:	69dc      	ldr	r4, [r3, #28]
 80061f0:	f894 6052 	ldrb.w	r6, [r4, #82]	; 0x52
 80061f4:	2e01      	cmp	r6, #1
 80061f6:	4615      	mov	r5, r2
 80061f8:	d005      	beq.n	8006206 <USBH_MSC_SCSI_Write+0x24>
 80061fa:	2e02      	cmp	r6, #2
 80061fc:	d02c      	beq.n	8006258 <USBH_MSC_SCSI_Write+0x76>
 80061fe:	2602      	movs	r6, #2
 8006200:	4630      	mov	r0, r6
 8006202:	e8bd 81f0 	ldmia.w	sp!, {r4, r5, r6, r7, r8, pc}
 8006206:	f8b4 3098 	ldrh.w	r3, [r4, #152]	; 0x98
 800620a:	2100      	movs	r1, #0
 800620c:	437b      	muls	r3, r7
 800620e:	65e3      	str	r3, [r4, #92]	; 0x5c
 8006210:	f884 1060 	strb.w	r1, [r4, #96]	; 0x60
 8006214:	2210      	movs	r2, #16
 8006216:	f104 0063 	add.w	r0, r4, #99	; 0x63
 800621a:	f002 fe4f 	bl	8008ebc <memset>
 800621e:	f642 230a 	movw	r3, #10762	; 0x2a0a
 8006222:	f8a4 3062 	strh.w	r3, [r4, #98]	; 0x62
 8006226:	f3c5 6307 	ubfx	r3, r5, #24, #8
 800622a:	f884 3065 	strb.w	r3, [r4, #101]	; 0x65
 800622e:	f3c5 4307 	ubfx	r3, r5, #16, #8
 8006232:	f884 3066 	strb.w	r3, [r4, #102]	; 0x66
 8006236:	f3c5 2307 	ubfx	r3, r5, #8, #8
 800623a:	f884 3067 	strb.w	r3, [r4, #103]	; 0x67
 800623e:	ba7f      	rev16	r7, r7
 8006240:	2302      	movs	r3, #2
 8006242:	f884 5068 	strb.w	r5, [r4, #104]	; 0x68
 8006246:	f8a4 706a 	strh.w	r7, [r4, #106]	; 0x6a
 800624a:	f884 6050 	strb.w	r6, [r4, #80]	; 0x50
 800624e:	f884 3052 	strb.w	r3, [r4, #82]	; 0x52
 8006252:	f8c4 808c 	str.w	r8, [r4, #140]	; 0x8c
 8006256:	e7d3      	b.n	8006200 <USBH_MSC_SCSI_Write+0x1e>
 8006258:	e8bd 41f0 	ldmia.w	sp!, {r4, r5, r6, r7, r8, lr}
 800625c:	f7ff bde6 	b.w	8005e2c <USBH_MSC_BOT_Process>

08006260 <USBH_MSC_SCSI_Read>:
 8006260:	e92d 41f0 	stmdb	sp!, {r4, r5, r6, r7, r8, lr}
 8006264:	4698      	mov	r8, r3
 8006266:	f8d0 337c 	ldr.w	r3, [r0, #892]	; 0x37c
 800626a:	9f06      	ldr	r7, [sp, #24]
 800626c:	69dc      	ldr	r4, [r3, #28]
 800626e:	f894 6052 	ldrb.w	r6, [r4, #82]	; 0x52
 8006272:	2e01      	cmp	r6, #1
 8006274:	4615      	mov	r5, r2
 8006276:	d005      	beq.n	8006284 <USBH_MSC_SCSI_Read+0x24>
 8006278:	2e02      	cmp	r6, #2
 800627a:	d02d      	beq.n	80062d8 <USBH_MSC_SCSI_Read+0x78>
 800627c:	2602      	movs	r6, #2
 800627e:	4630      	mov	r0, r6
 8006280:	e8bd 81f0 	ldmia.w	sp!, {r4, r5, r6, r7, r8, pc}
 8006284:	f8b4 3098 	ldrh.w	r3, [r4, #152]	; 0x98
 8006288:	437b      	muls	r3, r7
 800628a:	65e3      	str	r3, [r4, #92]	; 0x5c
 800628c:	2380      	movs	r3, #128	; 0x80
 800628e:	f884 3060 	strb.w	r3, [r4, #96]	; 0x60
 8006292:	2210      	movs	r2, #16
 8006294:	2100      	movs	r1, #0
 8006296:	f104 0063 	add.w	r0, r4, #99	; 0x63
 800629a:	f002 fe0f 	bl	8008ebc <memset>
 800629e:	f642 030a 	movw	r3, #10250	; 0x280a
 80062a2:	f8a4 3062 	strh.w	r3, [r4, #98]	; 0x62
 80062a6:	f3c5 6307 	ubfx	r3, r5, #24, #8
 80062aa:	f884 3065 	strb.w	r3, [r4, #101]	; 0x65
 80062ae:	f3c5 4307 	ubfx	r3, r5, #16, #8
 80062b2:	f884 3066 	strb.w	r3, [r4, #102]	; 0x66
 80062b6:	f3c5 2307 	ubfx	r3, r5, #8, #8
 80062ba:	f884 3067 	strb.w	r3, [r4, #103]	; 0x67
 80062be:	ba7f      	rev16	r7, r7
 80062c0:	2302      	movs	r3, #2
 80062c2:	f884 5068 	strb.w	r5, [r4, #104]	; 0x68
 80062c6:	f8a4 706a 	strh.w	r7, [r4, #106]	; 0x6a
 80062ca:	f884 6050 	strb.w	r6, [r4, #80]	; 0x50
 80062ce:	f884 3052 	strb.w	r3, [r4, #82]	; 0x52
 80062d2:	f8c4 808c 	str.w	r8, [r4, #140]	; 0x8c
 80062d6:	e7d2      	b.n	800627e <USBH_MSC_SCSI_Read+0x1e>
 80062d8:	e8bd 41f0 	ldmia.w	sp!, {r4, r5, r6, r7, r8, lr}
 80062dc:	f7ff bda6 	b.w	8005e2c <USBH_MSC_BOT_Process>

080062e0 <DeInitStateMachine.isra.0>:
 80062e0:	b538      	push	{r3, r4, r5, lr}
 80062e2:	2540      	movs	r5, #64	; 0x40
 80062e4:	4604      	mov	r4, r0
 80062e6:	462a      	mov	r2, r5
 80062e8:	2100      	movs	r1, #0
 80062ea:	f500 7061 	add.w	r0, r0, #900	; 0x384
 80062ee:	f002 fde5 	bl	8008ebc <memset>
 80062f2:	f44f 7200 	mov.w	r2, #512	; 0x200
 80062f6:	2100      	movs	r1, #0
 80062f8:	f504 708e 	add.w	r0, r4, #284	; 0x11c
 80062fc:	f002 fdde 	bl	8008ebc <memset>
 8006300:	2300      	movs	r3, #0
 8006302:	7023      	strb	r3, [r4, #0]
 8006304:	2201      	movs	r2, #1
 8006306:	7063      	strb	r3, [r4, #1]
 8006308:	f8c4 33c4 	str.w	r3, [r4, #964]	; 0x3c4
 800630c:	f44f 7380 	mov.w	r3, #256	; 0x100
 8006310:	70a2      	strb	r2, [r4, #2]
 8006312:	71a5      	strb	r5, [r4, #6]
 8006314:	8322      	strh	r2, [r4, #24]
 8006316:	f8c4 331c 	str.w	r3, [r4, #796]	; 0x31c
 800631a:	bd38      	pop	{r3, r4, r5, pc}

0800631c <USBH_Init>:
 800631c:	b570      	push	{r4, r5, r6, lr}
 800631e:	460e      	mov	r6, r1
 8006320:	4604      	mov	r4, r0
 8006322:	b1b0      	cbz	r0, 8006352 <USBH_Init+0x36>
 8006324:	2500      	movs	r5, #0
 8006326:	e9c0 55df 	strd	r5, r5, [r0, #892]	; 0x37c
 800632a:	f880 23cc 	strb.w	r2, [r0, #972]	; 0x3cc
 800632e:	f7ff ffd7 	bl	80062e0 <DeInitStateMachine.isra.0>
 8006332:	f884 5320 	strb.w	r5, [r4, #800]	; 0x320
 8006336:	f884 5323 	strb.w	r5, [r4, #803]	; 0x323
 800633a:	f884 5321 	strb.w	r5, [r4, #801]	; 0x321
 800633e:	f884 5322 	strb.w	r5, [r4, #802]	; 0x322
 8006342:	b10e      	cbz	r6, 8006348 <USBH_Init+0x2c>
 8006344:	f8c4 63d4 	str.w	r6, [r4, #980]	; 0x3d4
 8006348:	4620      	mov	r0, r4
 800634a:	f002 fc39 	bl	8008bc0 <USBH_LL_Init>
 800634e:	2000      	movs	r0, #0
 8006350:	bd70      	pop	{r4, r5, r6, pc}
 8006352:	2002      	movs	r0, #2
 8006354:	e7fc      	b.n	8006350 <USBH_Init+0x34>

08006356 <USBH_RegisterClass>:
 8006356:	b149      	cbz	r1, 800636c <USBH_RegisterClass+0x16>
 8006358:	f8d0 3380 	ldr.w	r3, [r0, #896]	; 0x380
 800635c:	b933      	cbnz	r3, 800636c <USBH_RegisterClass+0x16>
 800635e:	2201      	movs	r2, #1
 8006360:	f8c0 2380 	str.w	r2, [r0, #896]	; 0x380
 8006364:	f8c0 1378 	str.w	r1, [r0, #888]	; 0x378
 8006368:	4618      	mov	r0, r3
 800636a:	4770      	bx	lr
 800636c:	2002      	movs	r0, #2
 800636e:	4770      	bx	lr

08006370 <USBH_SelectInterface>:
 8006370:	f890 333c 	ldrb.w	r3, [r0, #828]	; 0x33c
 8006374:	428b      	cmp	r3, r1
 8006376:	bf86      	itte	hi
 8006378:	f880 1324 	strbhi.w	r1, [r0, #804]	; 0x324
 800637c:	2000      	movhi	r0, #0
 800637e:	2002      	movls	r0, #2
 8006380:	4770      	bx	lr

08006382 <USBH_FindInterface>:
 8006382:	b570      	push	{r4, r5, r6, lr}
 8006384:	2400      	movs	r4, #0
 8006386:	f890 6347 	ldrb.w	r6, [r0, #839]	; 0x347
 800638a:	428e      	cmp	r6, r1
 800638c:	b2e5      	uxtb	r5, r4
 800638e:	d001      	beq.n	8006394 <USBH_FindInterface+0x12>
 8006390:	29ff      	cmp	r1, #255	; 0xff
 8006392:	d10b      	bne.n	80063ac <USBH_FindInterface+0x2a>
 8006394:	f890 6348 	ldrb.w	r6, [r0, #840]	; 0x348
 8006398:	4296      	cmp	r6, r2
 800639a:	d001      	beq.n	80063a0 <USBH_FindInterface+0x1e>
 800639c:	2aff      	cmp	r2, #255	; 0xff
 800639e:	d105      	bne.n	80063ac <USBH_FindInterface+0x2a>
 80063a0:	f890 6349 	ldrb.w	r6, [r0, #841]	; 0x349
 80063a4:	429e      	cmp	r6, r3
 80063a6:	d004      	beq.n	80063b2 <USBH_FindInterface+0x30>
 80063a8:	2bff      	cmp	r3, #255	; 0xff
 80063aa:	d002      	beq.n	80063b2 <USBH_FindInterface+0x30>
 80063ac:	301a      	adds	r0, #26
 80063ae:	b114      	cbz	r4, 80063b6 <USBH_FindInterface+0x34>
 80063b0:	25ff      	movs	r5, #255	; 0xff
 80063b2:	4628      	mov	r0, r5
 80063b4:	bd70      	pop	{r4, r5, r6, pc}
 80063b6:	2401      	movs	r4, #1
 80063b8:	e7e5      	b.n	8006386 <USBH_FindInterface+0x4>

080063ba <USBH_Start>:
 80063ba:	b510      	push	{r4, lr}
 80063bc:	4604      	mov	r4, r0
 80063be:	f002 fc6b 	bl	8008c98 <USBH_LL_Start>
 80063c2:	2101      	movs	r1, #1
 80063c4:	4620      	mov	r0, r4
 80063c6:	f002 fc33 	bl	8008c30 <USBH_LL_DriverVBUS>
 80063ca:	2000      	movs	r0, #0
 80063cc:	bd10      	pop	{r4, pc}

080063ce <USBH_Process>:
 80063ce:	b570      	push	{r4, r5, r6, lr}
 80063d0:	b086      	sub	sp, #24
 80063d2:	2302      	movs	r3, #2
 80063d4:	f88d 3017 	strb.w	r3, [sp, #23]
 80063d8:	f890 3321 	ldrb.w	r3, [r0, #801]	; 0x321
 80063dc:	2b01      	cmp	r3, #1
 80063de:	bf04      	itt	eq
 80063e0:	2303      	moveq	r3, #3
 80063e2:	7003      	strbeq	r3, [r0, #0]
 80063e4:	7803      	ldrb	r3, [r0, #0]
 80063e6:	4604      	mov	r4, r0
 80063e8:	2b0b      	cmp	r3, #11
 80063ea:	d81d      	bhi.n	8006428 <USBH_Process+0x5a>
 80063ec:	e8df f013 	tbh	[pc, r3, lsl #1]
 80063f0:	001f000c 	.word	0x001f000c
 80063f4:	01ba0041 	.word	0x01ba0041
 80063f8:	0076001c 	.word	0x0076001c
 80063fc:	015a019e 	.word	0x015a019e
 8006400:	016b0162 	.word	0x016b0162
 8006404:	01b2017f 	.word	0x01b2017f
 8006408:	f890 3320 	ldrb.w	r3, [r0, #800]	; 0x320
 800640c:	b163      	cbz	r3, 8006428 <USBH_Process+0x5a>
 800640e:	2301      	movs	r3, #1
 8006410:	7003      	strb	r3, [r0, #0]
 8006412:	20c8      	movs	r0, #200	; 0xc8
 8006414:	f002 fc36 	bl	8008c84 <USBH_Delay>
 8006418:	4620      	mov	r0, r4
 800641a:	f002 fc4f 	bl	8008cbc <USBH_LL_ResetPort>
 800641e:	2300      	movs	r3, #0
 8006420:	f884 331c 	strb.w	r3, [r4, #796]	; 0x31c
 8006424:	f8c4 33c8 	str.w	r3, [r4, #968]	; 0x3c8
 8006428:	2000      	movs	r0, #0
 800642a:	b006      	add	sp, #24
 800642c:	bd70      	pop	{r4, r5, r6, pc}
 800642e:	f890 3323 	ldrb.w	r3, [r0, #803]	; 0x323
 8006432:	2b01      	cmp	r3, #1
 8006434:	d105      	bne.n	8006442 <USBH_Process+0x74>
 8006436:	2300      	movs	r3, #0
 8006438:	f880 331f 	strb.w	r3, [r0, #799]	; 0x31f
 800643c:	2302      	movs	r3, #2
 800643e:	7023      	strb	r3, [r4, #0]
 8006440:	e7f2      	b.n	8006428 <USBH_Process+0x5a>
 8006442:	f8d0 33c8 	ldr.w	r3, [r0, #968]	; 0x3c8
 8006446:	f5b3 7f7a 	cmp.w	r3, #1000	; 0x3e8
 800644a:	d90b      	bls.n	8006464 <USBH_Process+0x96>
 800644c:	f890 331f 	ldrb.w	r3, [r0, #799]	; 0x31f
 8006450:	3301      	adds	r3, #1
 8006452:	b2db      	uxtb	r3, r3
 8006454:	2b03      	cmp	r3, #3
 8006456:	f880 331f 	strb.w	r3, [r0, #799]	; 0x31f
 800645a:	d901      	bls.n	8006460 <USBH_Process+0x92>
 800645c:	230d      	movs	r3, #13
 800645e:	e7ee      	b.n	800643e <USBH_Process+0x70>
 8006460:	2300      	movs	r3, #0
 8006462:	e7ec      	b.n	800643e <USBH_Process+0x70>
 8006464:	330a      	adds	r3, #10
 8006466:	f8c0 33c8 	str.w	r3, [r0, #968]	; 0x3c8
 800646a:	200a      	movs	r0, #10
 800646c:	f002 fc0a 	bl	8008c84 <USBH_Delay>
 8006470:	e7da      	b.n	8006428 <USBH_Process+0x5a>
 8006472:	f8d0 33d4 	ldr.w	r3, [r0, #980]	; 0x3d4
 8006476:	b10b      	cbz	r3, 800647c <USBH_Process+0xae>
 8006478:	2104      	movs	r1, #4
 800647a:	4798      	blx	r3
 800647c:	2064      	movs	r0, #100	; 0x64
 800647e:	f002 fc01 	bl	8008c84 <USBH_Delay>
 8006482:	4620      	mov	r0, r4
 8006484:	f002 fbc2 	bl	8008c0c <USBH_LL_GetSpeed>
 8006488:	2305      	movs	r3, #5
 800648a:	7023      	strb	r3, [r4, #0]
 800648c:	f884 031d 	strb.w	r0, [r4, #797]	; 0x31d
 8006490:	2100      	movs	r1, #0
 8006492:	4620      	mov	r0, r4
 8006494:	f000 fca6 	bl	8006de4 <USBH_AllocPipe>
 8006498:	2180      	movs	r1, #128	; 0x80
 800649a:	7160      	strb	r0, [r4, #5]
 800649c:	4620      	mov	r0, r4
 800649e:	f000 fca1 	bl	8006de4 <USBH_AllocPipe>
 80064a2:	79a3      	ldrb	r3, [r4, #6]
 80064a4:	9302      	str	r3, [sp, #8]
 80064a6:	2500      	movs	r5, #0
 80064a8:	f894 331d 	ldrb.w	r3, [r4, #797]	; 0x31d
 80064ac:	7120      	strb	r0, [r4, #4]
 80064ae:	4601      	mov	r1, r0
 80064b0:	9300      	str	r3, [sp, #0]
 80064b2:	9501      	str	r5, [sp, #4]
 80064b4:	f894 331c 	ldrb.w	r3, [r4, #796]	; 0x31c
 80064b8:	2280      	movs	r2, #128	; 0x80
 80064ba:	4620      	mov	r0, r4
 80064bc:	f000 fc7e 	bl	8006dbc <USBH_OpenPipe>
 80064c0:	79a3      	ldrb	r3, [r4, #6]
 80064c2:	7961      	ldrb	r1, [r4, #5]
 80064c4:	e9cd 5301 	strd	r5, r3, [sp, #4]
 80064c8:	f894 331d 	ldrb.w	r3, [r4, #797]	; 0x31d
 80064cc:	9300      	str	r3, [sp, #0]
 80064ce:	462a      	mov	r2, r5
 80064d0:	f894 331c 	ldrb.w	r3, [r4, #796]	; 0x31c
 80064d4:	4620      	mov	r0, r4
 80064d6:	f000 fc71 	bl	8006dbc <USBH_OpenPipe>
 80064da:	e7a5      	b.n	8006428 <USBH_Process+0x5a>
 80064dc:	7845      	ldrb	r5, [r0, #1]
 80064de:	2d07      	cmp	r5, #7
 80064e0:	d82b      	bhi.n	800653a <USBH_Process+0x16c>
 80064e2:	e8df f005 	tbb	[pc, r5]
 80064e6:	4104      	.short	0x4104
 80064e8:	af938d71 	.word	0xaf938d71
 80064ec:	cdbe      	.short	0xcdbe
 80064ee:	2108      	movs	r1, #8
 80064f0:	f000 fa6a 	bl	80069c8 <USBH_Get_DevDesc>
 80064f4:	4606      	mov	r6, r0
 80064f6:	b9f0      	cbnz	r0, 8006536 <USBH_Process+0x168>
 80064f8:	f894 332d 	ldrb.w	r3, [r4, #813]	; 0x32d
 80064fc:	71a3      	strb	r3, [r4, #6]
 80064fe:	e9cd 0301 	strd	r0, r3, [sp, #4]
 8006502:	f894 331d 	ldrb.w	r3, [r4, #797]	; 0x31d
 8006506:	9300      	str	r3, [sp, #0]
 8006508:	2501      	movs	r5, #1
 800650a:	f894 331c 	ldrb.w	r3, [r4, #796]	; 0x31c
 800650e:	7065      	strb	r5, [r4, #1]
 8006510:	7921      	ldrb	r1, [r4, #4]
 8006512:	2280      	movs	r2, #128	; 0x80
 8006514:	4620      	mov	r0, r4
 8006516:	f000 fc51 	bl	8006dbc <USBH_OpenPipe>
 800651a:	79a3      	ldrb	r3, [r4, #6]
 800651c:	7961      	ldrb	r1, [r4, #5]
 800651e:	e9cd 6301 	strd	r6, r3, [sp, #4]
 8006522:	f894 331d 	ldrb.w	r3, [r4, #797]	; 0x31d
 8006526:	9300      	str	r3, [sp, #0]
 8006528:	4632      	mov	r2, r6
 800652a:	f894 331c 	ldrb.w	r3, [r4, #796]	; 0x31c
 800652e:	4620      	mov	r0, r4
 8006530:	f000 fc44 	bl	8006dbc <USBH_OpenPipe>
 8006534:	e01e      	b.n	8006574 <USBH_Process+0x1a6>
 8006536:	2803      	cmp	r0, #3
 8006538:	d001      	beq.n	800653e <USBH_Process+0x170>
 800653a:	2501      	movs	r5, #1
 800653c:	e01a      	b.n	8006574 <USBH_Process+0x1a6>
 800653e:	f894 331e 	ldrb.w	r3, [r4, #798]	; 0x31e
 8006542:	3301      	adds	r3, #1
 8006544:	b2db      	uxtb	r3, r3
 8006546:	2b03      	cmp	r3, #3
 8006548:	f884 331e 	strb.w	r3, [r4, #798]	; 0x31e
 800654c:	d901      	bls.n	8006552 <USBH_Process+0x184>
 800654e:	230d      	movs	r3, #13
 8006550:	e008      	b.n	8006564 <USBH_Process+0x196>
 8006552:	7961      	ldrb	r1, [r4, #5]
 8006554:	4620      	mov	r0, r4
 8006556:	f000 fc5d 	bl	8006e14 <USBH_FreePipe>
 800655a:	7921      	ldrb	r1, [r4, #4]
 800655c:	4620      	mov	r0, r4
 800655e:	f000 fc59 	bl	8006e14 <USBH_FreePipe>
 8006562:	2300      	movs	r3, #0
 8006564:	7023      	strb	r3, [r4, #0]
 8006566:	e7e8      	b.n	800653a <USBH_Process+0x16c>
 8006568:	2112      	movs	r1, #18
 800656a:	f000 fa2d 	bl	80069c8 <USBH_Get_DevDesc>
 800656e:	b998      	cbnz	r0, 8006598 <USBH_Process+0x1ca>
 8006570:	2302      	movs	r3, #2
 8006572:	7063      	strb	r3, [r4, #1]
 8006574:	f88d 5017 	strb.w	r5, [sp, #23]
 8006578:	f89d 3017 	ldrb.w	r3, [sp, #23]
 800657c:	f003 02ff 	and.w	r2, r3, #255	; 0xff
 8006580:	2b00      	cmp	r3, #0
 8006582:	f47f af51 	bne.w	8006428 <USBH_Process+0x5a>
 8006586:	f894 3337 	ldrb.w	r3, [r4, #823]	; 0x337
 800658a:	f884 2324 	strb.w	r2, [r4, #804]	; 0x324
 800658e:	2b01      	cmp	r3, #1
 8006590:	f040 8086 	bne.w	80066a0 <USBH_Process+0x2d2>
 8006594:	2308      	movs	r3, #8
 8006596:	e752      	b.n	800643e <USBH_Process+0x70>
 8006598:	2803      	cmp	r0, #3
 800659a:	d1ce      	bne.n	800653a <USBH_Process+0x16c>
 800659c:	f894 331e 	ldrb.w	r3, [r4, #798]	; 0x31e
 80065a0:	3301      	adds	r3, #1
 80065a2:	b2db      	uxtb	r3, r3
 80065a4:	2b03      	cmp	r3, #3
 80065a6:	f884 331e 	strb.w	r3, [r4, #798]	; 0x31e
 80065aa:	d902      	bls.n	80065b2 <USBH_Process+0x1e4>
 80065ac:	230d      	movs	r3, #13
 80065ae:	7023      	strb	r3, [r4, #0]
 80065b0:	e7e0      	b.n	8006574 <USBH_Process+0x1a6>
 80065b2:	7961      	ldrb	r1, [r4, #5]
 80065b4:	4620      	mov	r0, r4
 80065b6:	f000 fc2d 	bl	8006e14 <USBH_FreePipe>
 80065ba:	7921      	ldrb	r1, [r4, #4]
 80065bc:	4620      	mov	r0, r4
 80065be:	f000 fc29 	bl	8006e14 <USBH_FreePipe>
 80065c2:	2300      	movs	r3, #0
 80065c4:	7063      	strb	r3, [r4, #1]
 80065c6:	e7f2      	b.n	80065ae <USBH_Process+0x1e0>
 80065c8:	2101      	movs	r1, #1
 80065ca:	f000 fb65 	bl	8006c98 <USBH_SetAddress>
 80065ce:	4606      	mov	r6, r0
 80065d0:	b978      	cbnz	r0, 80065f2 <USBH_Process+0x224>
 80065d2:	2002      	movs	r0, #2
 80065d4:	f002 fb56 	bl	8008c84 <USBH_Delay>
 80065d8:	2303      	movs	r3, #3
 80065da:	7063      	strb	r3, [r4, #1]
 80065dc:	79a3      	ldrb	r3, [r4, #6]
 80065de:	2501      	movs	r5, #1
 80065e0:	e9cd 6301 	strd	r6, r3, [sp, #4]
 80065e4:	f894 331d 	ldrb.w	r3, [r4, #797]	; 0x31d
 80065e8:	9300      	str	r3, [sp, #0]
 80065ea:	f884 531c 	strb.w	r5, [r4, #796]	; 0x31c
 80065ee:	462b      	mov	r3, r5
 80065f0:	e78e      	b.n	8006510 <USBH_Process+0x142>
 80065f2:	2803      	cmp	r0, #3
 80065f4:	d1a1      	bne.n	800653a <USBH_Process+0x16c>
 80065f6:	230d      	movs	r3, #13
 80065f8:	7023      	strb	r3, [r4, #0]
 80065fa:	2300      	movs	r3, #0
 80065fc:	7063      	strb	r3, [r4, #1]
 80065fe:	e79c      	b.n	800653a <USBH_Process+0x16c>
 8006600:	2109      	movs	r1, #9
 8006602:	f000 fa3b 	bl	8006a7c <USBH_Get_CfgDesc>
 8006606:	b940      	cbnz	r0, 800661a <USBH_Process+0x24c>
 8006608:	2304      	movs	r3, #4
 800660a:	e7f7      	b.n	80065fc <USBH_Process+0x22e>
 800660c:	f8b0 133a 	ldrh.w	r1, [r0, #826]	; 0x33a
 8006610:	f000 fa34 	bl	8006a7c <USBH_Get_CfgDesc>
 8006614:	b908      	cbnz	r0, 800661a <USBH_Process+0x24c>
 8006616:	2305      	movs	r3, #5
 8006618:	e7f0      	b.n	80065fc <USBH_Process+0x22e>
 800661a:	2803      	cmp	r0, #3
 800661c:	d18d      	bne.n	800653a <USBH_Process+0x16c>
 800661e:	f894 331e 	ldrb.w	r3, [r4, #798]	; 0x31e
 8006622:	3301      	adds	r3, #1
 8006624:	b2db      	uxtb	r3, r3
 8006626:	2b03      	cmp	r3, #3
 8006628:	f884 331e 	strb.w	r3, [r4, #798]	; 0x31e
 800662c:	d88f      	bhi.n	800654e <USBH_Process+0x180>
 800662e:	7961      	ldrb	r1, [r4, #5]
 8006630:	4620      	mov	r0, r4
 8006632:	f000 fbef 	bl	8006e14 <USBH_FreePipe>
 8006636:	7921      	ldrb	r1, [r4, #4]
 8006638:	4620      	mov	r0, r4
 800663a:	f000 fbeb 	bl	8006e14 <USBH_FreePipe>
 800663e:	2300      	movs	r3, #0
 8006640:	7063      	strb	r3, [r4, #1]
 8006642:	e78f      	b.n	8006564 <USBH_Process+0x196>
 8006644:	f890 1334 	ldrb.w	r1, [r0, #820]	; 0x334
 8006648:	b129      	cbz	r1, 8006656 <USBH_Process+0x288>
 800664a:	23ff      	movs	r3, #255	; 0xff
 800664c:	f500 728e 	add.w	r2, r0, #284	; 0x11c
 8006650:	f000 fafb 	bl	8006c4a <USBH_Get_StringDesc>
 8006654:	b908      	cbnz	r0, 800665a <USBH_Process+0x28c>
 8006656:	2306      	movs	r3, #6
 8006658:	e7d0      	b.n	80065fc <USBH_Process+0x22e>
 800665a:	2803      	cmp	r0, #3
 800665c:	f47f af6d 	bne.w	800653a <USBH_Process+0x16c>
 8006660:	e7f9      	b.n	8006656 <USBH_Process+0x288>
 8006662:	f890 1335 	ldrb.w	r1, [r0, #821]	; 0x335
 8006666:	b129      	cbz	r1, 8006674 <USBH_Process+0x2a6>
 8006668:	23ff      	movs	r3, #255	; 0xff
 800666a:	f500 728e 	add.w	r2, r0, #284	; 0x11c
 800666e:	f000 faec 	bl	8006c4a <USBH_Get_StringDesc>
 8006672:	b908      	cbnz	r0, 8006678 <USBH_Process+0x2aa>
 8006674:	2307      	movs	r3, #7
 8006676:	e7c1      	b.n	80065fc <USBH_Process+0x22e>
 8006678:	2803      	cmp	r0, #3
 800667a:	f47f af5e 	bne.w	800653a <USBH_Process+0x16c>
 800667e:	e7f9      	b.n	8006674 <USBH_Process+0x2a6>
 8006680:	f890 1336 	ldrb.w	r1, [r0, #822]	; 0x336
 8006684:	b909      	cbnz	r1, 800668a <USBH_Process+0x2bc>
 8006686:	2500      	movs	r5, #0
 8006688:	e774      	b.n	8006574 <USBH_Process+0x1a6>
 800668a:	23ff      	movs	r3, #255	; 0xff
 800668c:	f500 728e 	add.w	r2, r0, #284	; 0x11c
 8006690:	f000 fadb 	bl	8006c4a <USBH_Get_StringDesc>
 8006694:	2800      	cmp	r0, #0
 8006696:	d0f6      	beq.n	8006686 <USBH_Process+0x2b8>
 8006698:	1ec5      	subs	r5, r0, #3
 800669a:	bf18      	it	ne
 800669c:	2501      	movne	r5, #1
 800669e:	e769      	b.n	8006574 <USBH_Process+0x1a6>
 80066a0:	2307      	movs	r3, #7
 80066a2:	e6cc      	b.n	800643e <USBH_Process+0x70>
 80066a4:	f8d0 33d4 	ldr.w	r3, [r0, #980]	; 0x3d4
 80066a8:	2b00      	cmp	r3, #0
 80066aa:	f43f aebd 	beq.w	8006428 <USBH_Process+0x5a>
 80066ae:	2101      	movs	r1, #1
 80066b0:	4798      	blx	r3
 80066b2:	e76f      	b.n	8006594 <USBH_Process+0x1c6>
 80066b4:	f890 133d 	ldrb.w	r1, [r0, #829]	; 0x33d
 80066b8:	f000 fafb 	bl	8006cb2 <USBH_SetCfg>
 80066bc:	2800      	cmp	r0, #0
 80066be:	f47f aeb3 	bne.w	8006428 <USBH_Process+0x5a>
 80066c2:	2309      	movs	r3, #9
 80066c4:	e6bb      	b.n	800643e <USBH_Process+0x70>
 80066c6:	f890 333f 	ldrb.w	r3, [r0, #831]	; 0x33f
 80066ca:	069b      	lsls	r3, r3, #26
 80066cc:	d507      	bpl.n	80066de <USBH_Process+0x310>
 80066ce:	2101      	movs	r1, #1
 80066d0:	f000 fafc 	bl	8006ccc <USBH_SetFeature>
 80066d4:	f88d 0017 	strb.w	r0, [sp, #23]
 80066d8:	f89d 3017 	ldrb.w	r3, [sp, #23]
 80066dc:	b90b      	cbnz	r3, 80066e2 <USBH_Process+0x314>
 80066de:	230a      	movs	r3, #10
 80066e0:	e6ad      	b.n	800643e <USBH_Process+0x70>
 80066e2:	f89d 3017 	ldrb.w	r3, [sp, #23]
 80066e6:	2b03      	cmp	r3, #3
 80066e8:	f47f ae9e 	bne.w	8006428 <USBH_Process+0x5a>
 80066ec:	e7f7      	b.n	80066de <USBH_Process+0x310>
 80066ee:	f8d0 3380 	ldr.w	r3, [r0, #896]	; 0x380
 80066f2:	2b00      	cmp	r3, #0
 80066f4:	f43f ae98 	beq.w	8006428 <USBH_Process+0x5a>
 80066f8:	f8d0 3378 	ldr.w	r3, [r0, #888]	; 0x378
 80066fc:	f890 2347 	ldrb.w	r2, [r0, #839]	; 0x347
 8006700:	7919      	ldrb	r1, [r3, #4]
 8006702:	4291      	cmp	r1, r2
 8006704:	d003      	beq.n	800670e <USBH_Process+0x340>
 8006706:	2300      	movs	r3, #0
 8006708:	f8c0 337c 	str.w	r3, [r0, #892]	; 0x37c
 800670c:	e6a6      	b.n	800645c <USBH_Process+0x8e>
 800670e:	f8c0 337c 	str.w	r3, [r0, #892]	; 0x37c
 8006712:	689b      	ldr	r3, [r3, #8]
 8006714:	4798      	blx	r3
 8006716:	2800      	cmp	r0, #0
 8006718:	f47f aea0 	bne.w	800645c <USBH_Process+0x8e>
 800671c:	2306      	movs	r3, #6
 800671e:	7023      	strb	r3, [r4, #0]
 8006720:	2103      	movs	r1, #3
 8006722:	f8d4 33d4 	ldr.w	r3, [r4, #980]	; 0x3d4
 8006726:	4620      	mov	r0, r4
 8006728:	4798      	blx	r3
 800672a:	e67d      	b.n	8006428 <USBH_Process+0x5a>
 800672c:	f8d0 337c 	ldr.w	r3, [r0, #892]	; 0x37c
 8006730:	2b00      	cmp	r3, #0
 8006732:	f43f ae93 	beq.w	800645c <USBH_Process+0x8e>
 8006736:	691b      	ldr	r3, [r3, #16]
 8006738:	4798      	blx	r3
 800673a:	f88d 0017 	strb.w	r0, [sp, #23]
 800673e:	f89d 3017 	ldrb.w	r3, [sp, #23]
 8006742:	b90b      	cbnz	r3, 8006748 <USBH_Process+0x37a>
 8006744:	230b      	movs	r3, #11
 8006746:	e67a      	b.n	800643e <USBH_Process+0x70>
 8006748:	f89d 3017 	ldrb.w	r3, [sp, #23]
 800674c:	2b02      	cmp	r3, #2
 800674e:	f47f ae6b 	bne.w	8006428 <USBH_Process+0x5a>
 8006752:	e683      	b.n	800645c <USBH_Process+0x8e>
 8006754:	f8d0 337c 	ldr.w	r3, [r0, #892]	; 0x37c
 8006758:	2b00      	cmp	r3, #0
 800675a:	f43f ae65 	beq.w	8006428 <USBH_Process+0x5a>
 800675e:	695b      	ldr	r3, [r3, #20]
 8006760:	4798      	blx	r3
 8006762:	e661      	b.n	8006428 <USBH_Process+0x5a>
 8006764:	2500      	movs	r5, #0
 8006766:	f880 5321 	strb.w	r5, [r0, #801]	; 0x321
 800676a:	f7ff fdb9 	bl	80062e0 <DeInitStateMachine.isra.0>
 800676e:	f8d4 337c 	ldr.w	r3, [r4, #892]	; 0x37c
 8006772:	b123      	cbz	r3, 800677e <USBH_Process+0x3b0>
 8006774:	68db      	ldr	r3, [r3, #12]
 8006776:	4620      	mov	r0, r4
 8006778:	4798      	blx	r3
 800677a:	f8c4 537c 	str.w	r5, [r4, #892]	; 0x37c
 800677e:	f8d4 33d4 	ldr.w	r3, [r4, #980]	; 0x3d4
 8006782:	b113      	cbz	r3, 800678a <USBH_Process+0x3bc>
 8006784:	2105      	movs	r1, #5
 8006786:	4620      	mov	r0, r4
 8006788:	4798      	blx	r3
 800678a:	f894 3322 	ldrb.w	r3, [r4, #802]	; 0x322
 800678e:	2b01      	cmp	r3, #1
 8006790:	d106      	bne.n	80067a0 <USBH_Process+0x3d2>
 8006792:	2300      	movs	r3, #0
 8006794:	f884 3322 	strb.w	r3, [r4, #802]	; 0x322
 8006798:	4620      	mov	r0, r4
 800679a:	f7ff fe0e 	bl	80063ba <USBH_Start>
 800679e:	e643      	b.n	8006428 <USBH_Process+0x5a>
 80067a0:	4620      	mov	r0, r4
 80067a2:	f002 fa79 	bl	8008c98 <USBH_LL_Start>
 80067a6:	e63f      	b.n	8006428 <USBH_Process+0x5a>

080067a8 <USBH_LL_SetTimer>:
 80067a8:	f8c0 13c4 	str.w	r1, [r0, #964]	; 0x3c4
 80067ac:	4770      	bx	lr

080067ae <USBH_LL_IncTimer>:
 80067ae:	f8d0 23c4 	ldr.w	r2, [r0, #964]	; 0x3c4
 80067b2:	3201      	adds	r2, #1
 80067b4:	f8c0 23c4 	str.w	r2, [r0, #964]	; 0x3c4
 80067b8:	7802      	ldrb	r2, [r0, #0]
 80067ba:	2a0b      	cmp	r2, #11
 80067bc:	d104      	bne.n	80067c8 <USBH_LL_IncTimer+0x1a>
 80067be:	f8d0 337c 	ldr.w	r3, [r0, #892]	; 0x37c
 80067c2:	b10b      	cbz	r3, 80067c8 <USBH_LL_IncTimer+0x1a>
 80067c4:	699b      	ldr	r3, [r3, #24]
 80067c6:	4718      	bx	r3
 80067c8:	4770      	bx	lr

080067ca <USBH_LL_PortEnabled>:
 80067ca:	2301      	movs	r3, #1
 80067cc:	f880 3323 	strb.w	r3, [r0, #803]	; 0x323
 80067d0:	4770      	bx	lr

080067d2 <USBH_LL_PortDisabled>:
 80067d2:	2300      	movs	r3, #0
 80067d4:	f880 3323 	strb.w	r3, [r0, #803]	; 0x323
 80067d8:	4770      	bx	lr

080067da <USBH_LL_Connect>:
 80067da:	2301      	movs	r3, #1
 80067dc:	f880 3320 	strb.w	r3, [r0, #800]	; 0x320
 80067e0:	2300      	movs	r3, #0
 80067e2:	f880 3321 	strb.w	r3, [r0, #801]	; 0x321
 80067e6:	f880 3322 	strb.w	r3, [r0, #802]	; 0x322
 80067ea:	4618      	mov	r0, r3
 80067ec:	4770      	bx	lr

080067ee <USBH_LL_Disconnect>:
 80067ee:	b538      	push	{r3, r4, r5, lr}
 80067f0:	4604      	mov	r4, r0
 80067f2:	2301      	movs	r3, #1
 80067f4:	2500      	movs	r5, #0
 80067f6:	f880 3321 	strb.w	r3, [r0, #801]	; 0x321
 80067fa:	f880 5323 	strb.w	r5, [r0, #803]	; 0x323
 80067fe:	f880 5320 	strb.w	r5, [r0, #800]	; 0x320
 8006802:	f002 fa52 	bl	8008caa <USBH_LL_Stop>
 8006806:	7921      	ldrb	r1, [r4, #4]
 8006808:	4620      	mov	r0, r4
 800680a:	f000 fb03 	bl	8006e14 <USBH_FreePipe>
 800680e:	7961      	ldrb	r1, [r4, #5]
 8006810:	4620      	mov	r0, r4
 8006812:	f000 faff 	bl	8006e14 <USBH_FreePipe>
 8006816:	4628      	mov	r0, r5
 8006818:	bd38      	pop	{r3, r4, r5, pc}

0800681a <USBH_CtlReq>:
 800681a:	b573      	push	{r0, r1, r4, r5, r6, lr}
 800681c:	7885      	ldrb	r5, [r0, #2]
 800681e:	2d01      	cmp	r5, #1
 8006820:	4604      	mov	r4, r0
 8006822:	d003      	beq.n	800682c <USBH_CtlReq+0x12>
 8006824:	2d02      	cmp	r5, #2
 8006826:	d007      	beq.n	8006838 <USBH_CtlReq+0x1e>
 8006828:	2501      	movs	r5, #1
 800682a:	e019      	b.n	8006860 <USBH_CtlReq+0x46>
 800682c:	6081      	str	r1, [r0, #8]
 800682e:	8182      	strh	r2, [r0, #12]
 8006830:	7605      	strb	r5, [r0, #24]
 8006832:	2302      	movs	r3, #2
 8006834:	70a3      	strb	r3, [r4, #2]
 8006836:	e013      	b.n	8006860 <USBH_CtlReq+0x46>
 8006838:	7e06      	ldrb	r6, [r0, #24]
 800683a:	1e73      	subs	r3, r6, #1
 800683c:	2b0a      	cmp	r3, #10
 800683e:	d8f3      	bhi.n	8006828 <USBH_CtlReq+0xe>
 8006840:	e8df f003 	tbb	[pc, r3]
 8006844:	392f1106 	.word	0x392f1106
 8006848:	675d4e42 	.word	0x675d4e42
 800684c:	8478      	.short	0x8478
 800684e:	8c          	.byte	0x8c
 800684f:	00          	.byte	0x00
 8006850:	7942      	ldrb	r2, [r0, #5]
 8006852:	f100 0110 	add.w	r1, r0, #16
 8006856:	f000 fa53 	bl	8006d00 <USBH_CtlSendSetup>
 800685a:	2302      	movs	r3, #2
 800685c:	7623      	strb	r3, [r4, #24]
 800685e:	4635      	mov	r5, r6
 8006860:	4628      	mov	r0, r5
 8006862:	b002      	add	sp, #8
 8006864:	bd70      	pop	{r4, r5, r6, pc}
 8006866:	7941      	ldrb	r1, [r0, #5]
 8006868:	f002 f9de 	bl	8008c28 <USBH_LL_GetURBState>
 800686c:	2801      	cmp	r0, #1
 800686e:	4605      	mov	r5, r0
 8006870:	d111      	bne.n	8006896 <USBH_CtlReq+0x7c>
 8006872:	8ae2      	ldrh	r2, [r4, #22]
 8006874:	f994 3010 	ldrsb.w	r3, [r4, #16]
 8006878:	b13a      	cbz	r2, 800688a <USBH_CtlReq+0x70>
 800687a:	2b00      	cmp	r3, #0
 800687c:	da02      	bge.n	8006884 <USBH_CtlReq+0x6a>
 800687e:	2303      	movs	r3, #3
 8006880:	7623      	strb	r3, [r4, #24]
 8006882:	e7ed      	b.n	8006860 <USBH_CtlReq+0x46>
 8006884:	2305      	movs	r3, #5
 8006886:	7623      	strb	r3, [r4, #24]
 8006888:	e7ce      	b.n	8006828 <USBH_CtlReq+0xe>
 800688a:	2b00      	cmp	r3, #0
 800688c:	da01      	bge.n	8006892 <USBH_CtlReq+0x78>
 800688e:	2309      	movs	r3, #9
 8006890:	e7f9      	b.n	8006886 <USBH_CtlReq+0x6c>
 8006892:	2307      	movs	r3, #7
 8006894:	e7f7      	b.n	8006886 <USBH_CtlReq+0x6c>
 8006896:	2804      	cmp	r0, #4
 8006898:	d001      	beq.n	800689e <USBH_CtlReq+0x84>
 800689a:	2802      	cmp	r0, #2
 800689c:	d1c4      	bne.n	8006828 <USBH_CtlReq+0xe>
 800689e:	230b      	movs	r3, #11
 80068a0:	e7f1      	b.n	8006886 <USBH_CtlReq+0x6c>
 80068a2:	f8d0 33c4 	ldr.w	r3, [r0, #964]	; 0x3c4
 80068a6:	81c3      	strh	r3, [r0, #14]
 80068a8:	8982      	ldrh	r2, [r0, #12]
 80068aa:	7903      	ldrb	r3, [r0, #4]
 80068ac:	6881      	ldr	r1, [r0, #8]
 80068ae:	f000 fa4e 	bl	8006d4e <USBH_CtlReceiveData>
 80068b2:	2304      	movs	r3, #4
 80068b4:	e7e7      	b.n	8006886 <USBH_CtlReq+0x6c>
 80068b6:	7901      	ldrb	r1, [r0, #4]
 80068b8:	f002 f9b6 	bl	8008c28 <USBH_LL_GetURBState>
 80068bc:	2801      	cmp	r0, #1
 80068be:	d0e6      	beq.n	800688e <USBH_CtlReq+0x74>
 80068c0:	2805      	cmp	r0, #5
 80068c2:	d035      	beq.n	8006930 <USBH_CtlReq+0x116>
 80068c4:	2804      	cmp	r0, #4
 80068c6:	e7e9      	b.n	800689c <USBH_CtlReq+0x82>
 80068c8:	2501      	movs	r5, #1
 80068ca:	9500      	str	r5, [sp, #0]
 80068cc:	7943      	ldrb	r3, [r0, #5]
 80068ce:	8982      	ldrh	r2, [r0, #12]
 80068d0:	6881      	ldr	r1, [r0, #8]
 80068d2:	f000 fa25 	bl	8006d20 <USBH_CtlSendData>
 80068d6:	f8d4 33c4 	ldr.w	r3, [r4, #964]	; 0x3c4
 80068da:	81e3      	strh	r3, [r4, #14]
 80068dc:	2306      	movs	r3, #6
 80068de:	e7cf      	b.n	8006880 <USBH_CtlReq+0x66>
 80068e0:	7941      	ldrb	r1, [r0, #5]
 80068e2:	f002 f9a1 	bl	8008c28 <USBH_LL_GetURBState>
 80068e6:	2801      	cmp	r0, #1
 80068e8:	d0d3      	beq.n	8006892 <USBH_CtlReq+0x78>
 80068ea:	2805      	cmp	r0, #5
 80068ec:	d020      	beq.n	8006930 <USBH_CtlReq+0x116>
 80068ee:	2802      	cmp	r0, #2
 80068f0:	d0c8      	beq.n	8006884 <USBH_CtlReq+0x6a>
 80068f2:	2804      	cmp	r0, #4
 80068f4:	d198      	bne.n	8006828 <USBH_CtlReq+0xe>
 80068f6:	230b      	movs	r3, #11
 80068f8:	7623      	strb	r3, [r4, #24]
 80068fa:	2301      	movs	r3, #1
 80068fc:	e79a      	b.n	8006834 <USBH_CtlReq+0x1a>
 80068fe:	2200      	movs	r2, #0
 8006900:	7903      	ldrb	r3, [r0, #4]
 8006902:	4611      	mov	r1, r2
 8006904:	f000 fa23 	bl	8006d4e <USBH_CtlReceiveData>
 8006908:	f8d4 33c4 	ldr.w	r3, [r4, #964]	; 0x3c4
 800690c:	81e3      	strh	r3, [r4, #14]
 800690e:	2308      	movs	r3, #8
 8006910:	e7b9      	b.n	8006886 <USBH_CtlReq+0x6c>
 8006912:	7901      	ldrb	r1, [r0, #4]
 8006914:	f002 f988 	bl	8008c28 <USBH_LL_GetURBState>
 8006918:	2801      	cmp	r0, #1
 800691a:	d104      	bne.n	8006926 <USBH_CtlReq+0x10c>
 800691c:	2500      	movs	r5, #0
 800691e:	2301      	movs	r3, #1
 8006920:	70a3      	strb	r3, [r4, #2]
 8006922:	2300      	movs	r3, #0
 8006924:	e7ac      	b.n	8006880 <USBH_CtlReq+0x66>
 8006926:	2804      	cmp	r0, #4
 8006928:	d0b9      	beq.n	800689e <USBH_CtlReq+0x84>
 800692a:	2805      	cmp	r0, #5
 800692c:	f47f af7c 	bne.w	8006828 <USBH_CtlReq+0xe>
 8006930:	2503      	movs	r5, #3
 8006932:	e7f4      	b.n	800691e <USBH_CtlReq+0x104>
 8006934:	2501      	movs	r5, #1
 8006936:	9500      	str	r5, [sp, #0]
 8006938:	2200      	movs	r2, #0
 800693a:	7943      	ldrb	r3, [r0, #5]
 800693c:	4611      	mov	r1, r2
 800693e:	f000 f9ef 	bl	8006d20 <USBH_CtlSendData>
 8006942:	f8d4 33c4 	ldr.w	r3, [r4, #964]	; 0x3c4
 8006946:	81e3      	strh	r3, [r4, #14]
 8006948:	230a      	movs	r3, #10
 800694a:	e799      	b.n	8006880 <USBH_CtlReq+0x66>
 800694c:	7941      	ldrb	r1, [r0, #5]
 800694e:	f002 f96b 	bl	8008c28 <USBH_LL_GetURBState>
 8006952:	2801      	cmp	r0, #1
 8006954:	d0e2      	beq.n	800691c <USBH_CtlReq+0x102>
 8006956:	2802      	cmp	r0, #2
 8006958:	d1b4      	bne.n	80068c4 <USBH_CtlReq+0xaa>
 800695a:	e798      	b.n	800688e <USBH_CtlReq+0x74>
 800695c:	7e43      	ldrb	r3, [r0, #25]
 800695e:	3301      	adds	r3, #1
 8006960:	b2db      	uxtb	r3, r3
 8006962:	2b02      	cmp	r3, #2
 8006964:	7643      	strb	r3, [r0, #25]
 8006966:	d803      	bhi.n	8006970 <USBH_CtlReq+0x156>
 8006968:	2501      	movs	r5, #1
 800696a:	7605      	strb	r5, [r0, #24]
 800696c:	7085      	strb	r5, [r0, #2]
 800696e:	e777      	b.n	8006860 <USBH_CtlReq+0x46>
 8006970:	f8d0 33d4 	ldr.w	r3, [r0, #980]	; 0x3d4
 8006974:	2106      	movs	r1, #6
 8006976:	2600      	movs	r6, #0
 8006978:	4798      	blx	r3
 800697a:	7961      	ldrb	r1, [r4, #5]
 800697c:	7666      	strb	r6, [r4, #25]
 800697e:	4620      	mov	r0, r4
 8006980:	f000 fa48 	bl	8006e14 <USBH_FreePipe>
 8006984:	7921      	ldrb	r1, [r4, #4]
 8006986:	4620      	mov	r0, r4
 8006988:	f000 fa44 	bl	8006e14 <USBH_FreePipe>
 800698c:	7026      	strb	r6, [r4, #0]
 800698e:	e7b4      	b.n	80068fa <USBH_CtlReq+0xe0>

08006990 <USBH_GetDescriptor>:
 8006990:	b430      	push	{r4, r5}
 8006992:	460c      	mov	r4, r1
 8006994:	4619      	mov	r1, r3
 8006996:	7883      	ldrb	r3, [r0, #2]
 8006998:	f8bd 5008 	ldrh.w	r5, [sp, #8]
 800699c:	2b01      	cmp	r3, #1
 800699e:	d10f      	bne.n	80069c0 <USBH_GetDescriptor+0x30>
 80069a0:	f064 047f 	orn	r4, r4, #127	; 0x7f
 80069a4:	7404      	strb	r4, [r0, #16]
 80069a6:	f402 447f 	and.w	r4, r2, #65280	; 0xff00
 80069aa:	2306      	movs	r3, #6
 80069ac:	f5b4 7f40 	cmp.w	r4, #768	; 0x300
 80069b0:	7443      	strb	r3, [r0, #17]
 80069b2:	f240 4309 	movw	r3, #1033	; 0x409
 80069b6:	bf18      	it	ne
 80069b8:	2300      	movne	r3, #0
 80069ba:	8242      	strh	r2, [r0, #18]
 80069bc:	8283      	strh	r3, [r0, #20]
 80069be:	82c5      	strh	r5, [r0, #22]
 80069c0:	462a      	mov	r2, r5
 80069c2:	bc30      	pop	{r4, r5}
 80069c4:	f7ff bf29 	b.w	800681a <USBH_CtlReq>

080069c8 <USBH_Get_DevDesc>:
 80069c8:	b537      	push	{r0, r1, r2, r4, r5, lr}
 80069ca:	f500 738e 	add.w	r3, r0, #284	; 0x11c
 80069ce:	460d      	mov	r5, r1
 80069d0:	9100      	str	r1, [sp, #0]
 80069d2:	f44f 7280 	mov.w	r2, #256	; 0x100
 80069d6:	2100      	movs	r1, #0
 80069d8:	4604      	mov	r4, r0
 80069da:	f7ff ffd9 	bl	8006990 <USBH_GetDescriptor>
 80069de:	2800      	cmp	r0, #0
 80069e0:	d144      	bne.n	8006a6c <USBH_Get_DevDesc+0xa4>
 80069e2:	f894 311c 	ldrb.w	r3, [r4, #284]	; 0x11c
 80069e6:	f884 3326 	strb.w	r3, [r4, #806]	; 0x326
 80069ea:	f894 311d 	ldrb.w	r3, [r4, #285]	; 0x11d
 80069ee:	f884 3327 	strb.w	r3, [r4, #807]	; 0x327
 80069f2:	f8b4 311e 	ldrh.w	r3, [r4, #286]	; 0x11e
 80069f6:	f8a4 3328 	strh.w	r3, [r4, #808]	; 0x328
 80069fa:	f894 3120 	ldrb.w	r3, [r4, #288]	; 0x120
 80069fe:	f884 332a 	strb.w	r3, [r4, #810]	; 0x32a
 8006a02:	f894 3121 	ldrb.w	r3, [r4, #289]	; 0x121
 8006a06:	f884 332b 	strb.w	r3, [r4, #811]	; 0x32b
 8006a0a:	f894 3122 	ldrb.w	r3, [r4, #290]	; 0x122
 8006a0e:	f884 332c 	strb.w	r3, [r4, #812]	; 0x32c
 8006a12:	f894 3123 	ldrb.w	r3, [r4, #291]	; 0x123
 8006a16:	2b20      	cmp	r3, #32
 8006a18:	d82a      	bhi.n	8006a70 <USBH_Get_DevDesc+0xa8>
 8006a1a:	2b07      	cmp	r3, #7
 8006a1c:	d92a      	bls.n	8006a74 <USBH_Get_DevDesc+0xac>
 8006a1e:	4a16      	ldr	r2, [pc, #88]	; (8006a78 <USBH_Get_DevDesc+0xb0>)
 8006a20:	f1a3 0108 	sub.w	r1, r3, #8
 8006a24:	b2c9      	uxtb	r1, r1
 8006a26:	40ca      	lsrs	r2, r1
 8006a28:	07d2      	lsls	r2, r2, #31
 8006a2a:	d523      	bpl.n	8006a74 <USBH_Get_DevDesc+0xac>
 8006a2c:	2d08      	cmp	r5, #8
 8006a2e:	f884 332d 	strb.w	r3, [r4, #813]	; 0x32d
 8006a32:	d91b      	bls.n	8006a6c <USBH_Get_DevDesc+0xa4>
 8006a34:	f8b4 3124 	ldrh.w	r3, [r4, #292]	; 0x124
 8006a38:	f8a4 332e 	strh.w	r3, [r4, #814]	; 0x32e
 8006a3c:	f8b4 3126 	ldrh.w	r3, [r4, #294]	; 0x126
 8006a40:	f8a4 3330 	strh.w	r3, [r4, #816]	; 0x330
 8006a44:	f8b4 3128 	ldrh.w	r3, [r4, #296]	; 0x128
 8006a48:	f8a4 3332 	strh.w	r3, [r4, #818]	; 0x332
 8006a4c:	f894 312a 	ldrb.w	r3, [r4, #298]	; 0x12a
 8006a50:	f884 3334 	strb.w	r3, [r4, #820]	; 0x334
 8006a54:	f894 312b 	ldrb.w	r3, [r4, #299]	; 0x12b
 8006a58:	f884 3335 	strb.w	r3, [r4, #821]	; 0x335
 8006a5c:	f894 312c 	ldrb.w	r3, [r4, #300]	; 0x12c
 8006a60:	f884 3336 	strb.w	r3, [r4, #822]	; 0x336
 8006a64:	f894 312d 	ldrb.w	r3, [r4, #301]	; 0x12d
 8006a68:	f884 3337 	strb.w	r3, [r4, #823]	; 0x337
 8006a6c:	b003      	add	sp, #12
 8006a6e:	bd30      	pop	{r4, r5, pc}
 8006a70:	2b40      	cmp	r3, #64	; 0x40
 8006a72:	d0db      	beq.n	8006a2c <USBH_Get_DevDesc+0x64>
 8006a74:	2340      	movs	r3, #64	; 0x40
 8006a76:	e7d9      	b.n	8006a2c <USBH_Get_DevDesc+0x64>
 8006a78:	01000101 	.word	0x01000101

08006a7c <USBH_Get_CfgDesc>:
 8006a7c:	e92d 4ff0 	stmdb	sp!, {r4, r5, r6, r7, r8, r9, sl, fp, lr}
 8006a80:	b087      	sub	sp, #28
 8006a82:	f100 041c 	add.w	r4, r0, #28
 8006a86:	460e      	mov	r6, r1
 8006a88:	9100      	str	r1, [sp, #0]
 8006a8a:	4623      	mov	r3, r4
 8006a8c:	f44f 7200 	mov.w	r2, #512	; 0x200
 8006a90:	2100      	movs	r1, #0
 8006a92:	4605      	mov	r5, r0
 8006a94:	f7ff ff7c 	bl	8006990 <USBH_GetDescriptor>
 8006a98:	2800      	cmp	r0, #0
 8006a9a:	d16a      	bne.n	8006b72 <USBH_Get_CfgDesc+0xf6>
 8006a9c:	7f6b      	ldrb	r3, [r5, #29]
 8006a9e:	f885 3339 	strb.w	r3, [r5, #825]	; 0x339
 8006aa2:	f895 3021 	ldrb.w	r3, [r5, #33]	; 0x21
 8006aa6:	f885 333d 	strb.w	r3, [r5, #829]	; 0x33d
 8006aaa:	f895 3022 	ldrb.w	r3, [r5, #34]	; 0x22
 8006aae:	f8b5 e01e 	ldrh.w	lr, [r5, #30]
 8006ab2:	f885 333e 	strb.w	r3, [r5, #830]	; 0x33e
 8006ab6:	f895 3023 	ldrb.w	r3, [r5, #35]	; 0x23
 8006aba:	f885 333f 	strb.w	r3, [r5, #831]	; 0x33f
 8006abe:	f895 3024 	ldrb.w	r3, [r5, #36]	; 0x24
 8006ac2:	f885 3340 	strb.w	r3, [r5, #832]	; 0x340
 8006ac6:	f5be 7f80 	cmp.w	lr, #256	; 0x100
 8006aca:	f04f 0309 	mov.w	r3, #9
 8006ace:	bf28      	it	cs
 8006ad0:	f44f 7e80 	movcs.w	lr, #256	; 0x100
 8006ad4:	f895 a020 	ldrb.w	sl, [r5, #32]
 8006ad8:	f8a5 e33a 	strh.w	lr, [r5, #826]	; 0x33a
 8006adc:	429e      	cmp	r6, r3
 8006ade:	f885 a33c 	strb.w	sl, [r5, #828]	; 0x33c
 8006ae2:	f885 3338 	strb.w	r3, [r5, #824]	; 0x338
 8006ae6:	d944      	bls.n	8006b72 <USBH_Get_CfgDesc+0xf6>
 8006ae8:	462a      	mov	r2, r5
 8006aea:	4684      	mov	ip, r0
 8006aec:	fa5f f68c 	uxtb.w	r6, ip
 8006af0:	f1bc 0f02 	cmp.w	ip, #2
 8006af4:	d03d      	beq.n	8006b72 <USBH_Get_CfgDesc+0xf6>
 8006af6:	459e      	cmp	lr, r3
 8006af8:	d806      	bhi.n	8006b08 <USBH_Get_CfgDesc+0x8c>
 8006afa:	4653      	mov	r3, sl
 8006afc:	2b02      	cmp	r3, #2
 8006afe:	bf28      	it	cs
 8006b00:	2302      	movcs	r3, #2
 8006b02:	429e      	cmp	r6, r3
 8006b04:	d235      	bcs.n	8006b72 <USBH_Get_CfgDesc+0xf6>
 8006b06:	e033      	b.n	8006b70 <USBH_Get_CfgDesc+0xf4>
 8006b08:	7821      	ldrb	r1, [r4, #0]
 8006b0a:	440c      	add	r4, r1
 8006b0c:	440b      	add	r3, r1
 8006b0e:	7861      	ldrb	r1, [r4, #1]
 8006b10:	2904      	cmp	r1, #4
 8006b12:	b29b      	uxth	r3, r3
 8006b14:	d1ec      	bne.n	8006af0 <USBH_Get_CfgDesc+0x74>
 8006b16:	7821      	ldrb	r1, [r4, #0]
 8006b18:	2909      	cmp	r1, #9
 8006b1a:	bf1c      	itt	ne
 8006b1c:	2109      	movne	r1, #9
 8006b1e:	7021      	strbne	r1, [r4, #0]
 8006b20:	7821      	ldrb	r1, [r4, #0]
 8006b22:	f882 1342 	strb.w	r1, [r2, #834]	; 0x342
 8006b26:	7861      	ldrb	r1, [r4, #1]
 8006b28:	f882 1343 	strb.w	r1, [r2, #835]	; 0x343
 8006b2c:	78a1      	ldrb	r1, [r4, #2]
 8006b2e:	f882 1344 	strb.w	r1, [r2, #836]	; 0x344
 8006b32:	78e1      	ldrb	r1, [r4, #3]
 8006b34:	f882 1345 	strb.w	r1, [r2, #837]	; 0x345
 8006b38:	7921      	ldrb	r1, [r4, #4]
 8006b3a:	f882 1346 	strb.w	r1, [r2, #838]	; 0x346
 8006b3e:	9102      	str	r1, [sp, #8]
 8006b40:	7961      	ldrb	r1, [r4, #5]
 8006b42:	f882 1347 	strb.w	r1, [r2, #839]	; 0x347
 8006b46:	9103      	str	r1, [sp, #12]
 8006b48:	79a1      	ldrb	r1, [r4, #6]
 8006b4a:	f882 1348 	strb.w	r1, [r2, #840]	; 0x348
 8006b4e:	9104      	str	r1, [sp, #16]
 8006b50:	79e1      	ldrb	r1, [r4, #7]
 8006b52:	f882 1349 	strb.w	r1, [r2, #841]	; 0x349
 8006b56:	9105      	str	r1, [sp, #20]
 8006b58:	7a21      	ldrb	r1, [r4, #8]
 8006b5a:	f882 134a 	strb.w	r1, [r2, #842]	; 0x34a
 8006b5e:	211a      	movs	r1, #26
 8006b60:	2600      	movs	r6, #0
 8006b62:	fb01 fb0c 	mul.w	fp, r1, ip
 8006b66:	9902      	ldr	r1, [sp, #8]
 8006b68:	428e      	cmp	r6, r1
 8006b6a:	d26a      	bcs.n	8006c42 <USBH_Get_CfgDesc+0x1c6>
 8006b6c:	459e      	cmp	lr, r3
 8006b6e:	d803      	bhi.n	8006b78 <USBH_Get_CfgDesc+0xfc>
 8006b70:	2003      	movs	r0, #3
 8006b72:	b007      	add	sp, #28
 8006b74:	e8bd 8ff0 	ldmia.w	sp!, {r4, r5, r6, r7, r8, r9, sl, fp, pc}
 8006b78:	7821      	ldrb	r1, [r4, #0]
 8006b7a:	440c      	add	r4, r1
 8006b7c:	440b      	add	r3, r1
 8006b7e:	7861      	ldrb	r1, [r4, #1]
 8006b80:	2905      	cmp	r1, #5
 8006b82:	b29b      	uxth	r3, r3
 8006b84:	d1ef      	bne.n	8006b66 <USBH_Get_CfgDesc+0xea>
 8006b86:	9803      	ldr	r0, [sp, #12]
 8006b88:	7821      	ldrb	r1, [r4, #0]
 8006b8a:	2801      	cmp	r0, #1
 8006b8c:	d148      	bne.n	8006c20 <USBH_Get_CfgDesc+0x1a4>
 8006b8e:	9804      	ldr	r0, [sp, #16]
 8006b90:	2802      	cmp	r0, #2
 8006b92:	d145      	bne.n	8006c20 <USBH_Get_CfgDesc+0x1a4>
 8006b94:	9805      	ldr	r0, [sp, #20]
 8006b96:	b920      	cbnz	r0, 8006ba2 <USBH_Get_CfgDesc+0x126>
 8006b98:	2909      	cmp	r1, #9
 8006b9a:	d002      	beq.n	8006ba2 <USBH_Get_CfgDesc+0x126>
 8006b9c:	f04f 0109 	mov.w	r1, #9
 8006ba0:	7021      	strb	r1, [r4, #0]
 8006ba2:	f106 0801 	add.w	r8, r6, #1
 8006ba6:	eb0b 08c8 	add.w	r8, fp, r8, lsl #3
 8006baa:	44a8      	add	r8, r5
 8006bac:	7821      	ldrb	r1, [r4, #0]
 8006bae:	f888 1344 	strb.w	r1, [r8, #836]	; 0x344
 8006bb2:	7861      	ldrb	r1, [r4, #1]
 8006bb4:	f888 1345 	strb.w	r1, [r8, #837]	; 0x345
 8006bb8:	78a1      	ldrb	r1, [r4, #2]
 8006bba:	f888 1346 	strb.w	r1, [r8, #838]	; 0x346
 8006bbe:	78e7      	ldrb	r7, [r4, #3]
 8006bc0:	f888 7347 	strb.w	r7, [r8, #839]	; 0x347
 8006bc4:	88a0      	ldrh	r0, [r4, #4]
 8006bc6:	f8a8 0348 	strh.w	r0, [r8, #840]	; 0x348
 8006bca:	79a1      	ldrb	r1, [r4, #6]
 8006bcc:	f888 134a 	strb.w	r1, [r8, #842]	; 0x34a
 8006bd0:	b358      	cbz	r0, 8006c2a <USBH_Get_CfgDesc+0x1ae>
 8006bd2:	f420 60ff 	bic.w	r0, r0, #2040	; 0x7f8
 8006bd6:	f020 0007 	bic.w	r0, r0, #7
 8006bda:	f8a8 0348 	strh.w	r0, [r8, #840]	; 0x348
 8006bde:	f8b4 9004 	ldrh.w	r9, [r4, #4]
 8006be2:	f106 0801 	add.w	r8, r6, #1
 8006be6:	f419 6fc0 	tst.w	r9, #1536	; 0x600
 8006bea:	eb0b 08c8 	add.w	r8, fp, r8, lsl #3
 8006bee:	bf0c      	ite	eq
 8006bf0:	f3c9 090a 	ubfxeq	r9, r9, #0, #11
 8006bf4:	f44f 7900 	movne.w	r9, #512	; 0x200
 8006bf8:	44a8      	add	r8, r5
 8006bfa:	ea40 0009 	orr.w	r0, r0, r9
 8006bfe:	f8a8 0348 	strh.w	r0, [r8, #840]	; 0x348
 8006c02:	2000      	movs	r0, #0
 8006c04:	f895 831d 	ldrb.w	r8, [r5, #797]	; 0x31d
 8006c08:	f1b8 0f00 	cmp.w	r8, #0
 8006c0c:	d10f      	bne.n	8006c2e <USBH_Get_CfgDesc+0x1b2>
 8006c0e:	07ff      	lsls	r7, r7, #31
 8006c10:	d503      	bpl.n	8006c1a <USBH_Get_CfgDesc+0x19e>
 8006c12:	3901      	subs	r1, #1
 8006c14:	290f      	cmp	r1, #15
 8006c16:	bf88      	it	hi
 8006c18:	2003      	movhi	r0, #3
 8006c1a:	3601      	adds	r6, #1
 8006c1c:	b2f6      	uxtb	r6, r6
 8006c1e:	e7a2      	b.n	8006b66 <USBH_Get_CfgDesc+0xea>
 8006c20:	2907      	cmp	r1, #7
 8006c22:	d0be      	beq.n	8006ba2 <USBH_Get_CfgDesc+0x126>
 8006c24:	f04f 0107 	mov.w	r1, #7
 8006c28:	e7ba      	b.n	8006ba0 <USBH_Get_CfgDesc+0x124>
 8006c2a:	2003      	movs	r0, #3
 8006c2c:	e7ea      	b.n	8006c04 <USBH_Get_CfgDesc+0x188>
 8006c2e:	f007 0703 	and.w	r7, r7, #3
 8006c32:	2f01      	cmp	r7, #1
 8006c34:	d0ed      	beq.n	8006c12 <USBH_Get_CfgDesc+0x196>
 8006c36:	2f03      	cmp	r7, #3
 8006c38:	d1ef      	bne.n	8006c1a <USBH_Get_CfgDesc+0x19e>
 8006c3a:	2900      	cmp	r1, #0
 8006c3c:	bf08      	it	eq
 8006c3e:	2003      	moveq	r0, #3
 8006c40:	e7eb      	b.n	8006c1a <USBH_Get_CfgDesc+0x19e>
 8006c42:	f10c 0c01 	add.w	ip, ip, #1
 8006c46:	321a      	adds	r2, #26
 8006c48:	e750      	b.n	8006aec <USBH_Get_CfgDesc+0x70>

08006c4a <USBH_Get_StringDesc>:
 8006c4a:	b5f7      	push	{r0, r1, r2, r4, r5, r6, r7, lr}
 8006c4c:	f500 768e 	add.w	r6, r0, #284	; 0x11c
 8006c50:	4615      	mov	r5, r2
 8006c52:	461f      	mov	r7, r3
 8006c54:	9300      	str	r3, [sp, #0]
 8006c56:	f441 7240 	orr.w	r2, r1, #768	; 0x300
 8006c5a:	4633      	mov	r3, r6
 8006c5c:	2100      	movs	r1, #0
 8006c5e:	4604      	mov	r4, r0
 8006c60:	f7ff fe96 	bl	8006990 <USBH_GetDescriptor>
 8006c64:	b978      	cbnz	r0, 8006c86 <USBH_Get_StringDesc+0x3c>
 8006c66:	f894 311d 	ldrb.w	r3, [r4, #285]	; 0x11d
 8006c6a:	2b03      	cmp	r3, #3
 8006c6c:	d10b      	bne.n	8006c86 <USBH_Get_StringDesc+0x3c>
 8006c6e:	f894 111c 	ldrb.w	r1, [r4, #284]	; 0x11c
 8006c72:	3902      	subs	r1, #2
 8006c74:	42b9      	cmp	r1, r7
 8006c76:	bf28      	it	cs
 8006c78:	4639      	movcs	r1, r7
 8006c7a:	b289      	uxth	r1, r1
 8006c7c:	4604      	mov	r4, r0
 8006c7e:	42a1      	cmp	r1, r4
 8006c80:	d803      	bhi.n	8006c8a <USBH_Get_StringDesc+0x40>
 8006c82:	2300      	movs	r3, #0
 8006c84:	702b      	strb	r3, [r5, #0]
 8006c86:	b003      	add	sp, #12
 8006c88:	bdf0      	pop	{r4, r5, r6, r7, pc}
 8006c8a:	1933      	adds	r3, r6, r4
 8006c8c:	3402      	adds	r4, #2
 8006c8e:	789b      	ldrb	r3, [r3, #2]
 8006c90:	f805 3b01 	strb.w	r3, [r5], #1
 8006c94:	b2a4      	uxth	r4, r4
 8006c96:	e7f2      	b.n	8006c7e <USBH_Get_StringDesc+0x34>

08006c98 <USBH_SetAddress>:
 8006c98:	7883      	ldrb	r3, [r0, #2]
 8006c9a:	2b01      	cmp	r3, #1
 8006c9c:	d105      	bne.n	8006caa <USBH_SetAddress+0x12>
 8006c9e:	f44f 63a0 	mov.w	r3, #1280	; 0x500
 8006ca2:	8203      	strh	r3, [r0, #16]
 8006ca4:	2300      	movs	r3, #0
 8006ca6:	8241      	strh	r1, [r0, #18]
 8006ca8:	6143      	str	r3, [r0, #20]
 8006caa:	2200      	movs	r2, #0
 8006cac:	4611      	mov	r1, r2
 8006cae:	f7ff bdb4 	b.w	800681a <USBH_CtlReq>

08006cb2 <USBH_SetCfg>:
 8006cb2:	7883      	ldrb	r3, [r0, #2]
 8006cb4:	2b01      	cmp	r3, #1
 8006cb6:	d105      	bne.n	8006cc4 <USBH_SetCfg+0x12>
 8006cb8:	f44f 6310 	mov.w	r3, #2304	; 0x900
 8006cbc:	8203      	strh	r3, [r0, #16]
 8006cbe:	2300      	movs	r3, #0
 8006cc0:	8241      	strh	r1, [r0, #18]
 8006cc2:	6143      	str	r3, [r0, #20]
 8006cc4:	2200      	movs	r2, #0
 8006cc6:	4611      	mov	r1, r2
 8006cc8:	f7ff bda7 	b.w	800681a <USBH_CtlReq>

08006ccc <USBH_SetFeature>:
 8006ccc:	7883      	ldrb	r3, [r0, #2]
 8006cce:	2b01      	cmp	r3, #1
 8006cd0:	d105      	bne.n	8006cde <USBH_SetFeature+0x12>
 8006cd2:	f44f 7340 	mov.w	r3, #768	; 0x300
 8006cd6:	8203      	strh	r3, [r0, #16]
 8006cd8:	2300      	movs	r3, #0
 8006cda:	8241      	strh	r1, [r0, #18]
 8006cdc:	6143      	str	r3, [r0, #20]
 8006cde:	2200      	movs	r2, #0
 8006ce0:	4611      	mov	r1, r2
 8006ce2:	f7ff bd9a 	b.w	800681a <USBH_CtlReq>

08006ce6 <USBH_ClrFeature>:
 8006ce6:	7883      	ldrb	r3, [r0, #2]
 8006ce8:	2b01      	cmp	r3, #1
 8006cea:	d105      	bne.n	8006cf8 <USBH_ClrFeature+0x12>
 8006cec:	f44f 7381 	mov.w	r3, #258	; 0x102
 8006cf0:	6103      	str	r3, [r0, #16]
 8006cf2:	2300      	movs	r3, #0
 8006cf4:	8281      	strh	r1, [r0, #20]
 8006cf6:	82c3      	strh	r3, [r0, #22]
 8006cf8:	2200      	movs	r2, #0
 8006cfa:	4611      	mov	r1, r2
 8006cfc:	f7ff bd8d 	b.w	800681a <USBH_CtlReq>

08006d00 <USBH_CtlSendSetup>:
 8006d00:	b51f      	push	{r0, r1, r2, r3, r4, lr}
 8006d02:	2400      	movs	r4, #0
 8006d04:	460b      	mov	r3, r1
 8006d06:	4611      	mov	r1, r2
 8006d08:	2208      	movs	r2, #8
 8006d0a:	e9cd 2402 	strd	r2, r4, [sp, #8]
 8006d0e:	e9cd 4300 	strd	r4, r3, [sp]
 8006d12:	4622      	mov	r2, r4
 8006d14:	4623      	mov	r3, r4
 8006d16:	f001 fff6 	bl	8008d06 <USBH_LL_SubmitURB>
 8006d1a:	4620      	mov	r0, r4
 8006d1c:	b004      	add	sp, #16
 8006d1e:	bd10      	pop	{r4, pc}

08006d20 <USBH_CtlSendData>:
 8006d20:	b530      	push	{r4, r5, lr}
 8006d22:	b085      	sub	sp, #20
 8006d24:	f890 531d 	ldrb.w	r5, [r0, #797]	; 0x31d
 8006d28:	460c      	mov	r4, r1
 8006d2a:	2d00      	cmp	r5, #0
 8006d2c:	4619      	mov	r1, r3
 8006d2e:	f89d 3020 	ldrb.w	r3, [sp, #32]
 8006d32:	9401      	str	r4, [sp, #4]
 8006d34:	bf18      	it	ne
 8006d36:	2300      	movne	r3, #0
 8006d38:	e9cd 2302 	strd	r2, r3, [sp, #8]
 8006d3c:	2301      	movs	r3, #1
 8006d3e:	9300      	str	r3, [sp, #0]
 8006d40:	2300      	movs	r3, #0
 8006d42:	461a      	mov	r2, r3
 8006d44:	f001 ffdf 	bl	8008d06 <USBH_LL_SubmitURB>
 8006d48:	2000      	movs	r0, #0
 8006d4a:	b005      	add	sp, #20
 8006d4c:	bd30      	pop	{r4, r5, pc}

08006d4e <USBH_CtlReceiveData>:
 8006d4e:	b530      	push	{r4, r5, lr}
 8006d50:	2400      	movs	r4, #0
 8006d52:	b085      	sub	sp, #20
 8006d54:	e9cd 2402 	strd	r2, r4, [sp, #8]
 8006d58:	460d      	mov	r5, r1
 8006d5a:	2201      	movs	r2, #1
 8006d5c:	4619      	mov	r1, r3
 8006d5e:	9501      	str	r5, [sp, #4]
 8006d60:	9200      	str	r2, [sp, #0]
 8006d62:	4623      	mov	r3, r4
 8006d64:	f001 ffcf 	bl	8008d06 <USBH_LL_SubmitURB>
 8006d68:	4620      	mov	r0, r4
 8006d6a:	b005      	add	sp, #20
 8006d6c:	bd30      	pop	{r4, r5, pc}

08006d6e <USBH_BulkSendData>:
 8006d6e:	b530      	push	{r4, r5, lr}
 8006d70:	b085      	sub	sp, #20
 8006d72:	f890 531d 	ldrb.w	r5, [r0, #797]	; 0x31d
 8006d76:	460c      	mov	r4, r1
 8006d78:	2d00      	cmp	r5, #0
 8006d7a:	4619      	mov	r1, r3
 8006d7c:	f89d 3020 	ldrb.w	r3, [sp, #32]
 8006d80:	9401      	str	r4, [sp, #4]
 8006d82:	bf18      	it	ne
 8006d84:	2300      	movne	r3, #0
 8006d86:	e9cd 2302 	strd	r2, r3, [sp, #8]
 8006d8a:	2301      	movs	r3, #1
 8006d8c:	9300      	str	r3, [sp, #0]
 8006d8e:	2200      	movs	r2, #0
 8006d90:	2302      	movs	r3, #2
 8006d92:	f001 ffb8 	bl	8008d06 <USBH_LL_SubmitURB>
 8006d96:	2000      	movs	r0, #0
 8006d98:	b005      	add	sp, #20
 8006d9a:	bd30      	pop	{r4, r5, pc}

08006d9c <USBH_BulkReceiveData>:
 8006d9c:	b530      	push	{r4, r5, lr}
 8006d9e:	2400      	movs	r4, #0
 8006da0:	b085      	sub	sp, #20
 8006da2:	e9cd 2402 	strd	r2, r4, [sp, #8]
 8006da6:	460d      	mov	r5, r1
 8006da8:	2201      	movs	r2, #1
 8006daa:	4619      	mov	r1, r3
 8006dac:	9501      	str	r5, [sp, #4]
 8006dae:	9200      	str	r2, [sp, #0]
 8006db0:	2302      	movs	r3, #2
 8006db2:	f001 ffa8 	bl	8008d06 <USBH_LL_SubmitURB>
 8006db6:	4620      	mov	r0, r4
 8006db8:	b005      	add	sp, #20
 8006dba:	bd30      	pop	{r4, r5, pc}

08006dbc <USBH_OpenPipe>:
 8006dbc:	b51f      	push	{r0, r1, r2, r3, r4, lr}
 8006dbe:	f8bd 4020 	ldrh.w	r4, [sp, #32]
 8006dc2:	9402      	str	r4, [sp, #8]
 8006dc4:	f89d 401c 	ldrb.w	r4, [sp, #28]
 8006dc8:	9401      	str	r4, [sp, #4]
 8006dca:	f89d 4018 	ldrb.w	r4, [sp, #24]
 8006dce:	9400      	str	r4, [sp, #0]
 8006dd0:	f001 ff7d 	bl	8008cce <USBH_LL_OpenPipe>
 8006dd4:	2000      	movs	r0, #0
 8006dd6:	b004      	add	sp, #16
 8006dd8:	bd10      	pop	{r4, pc}

08006dda <USBH_ClosePipe>:
 8006dda:	b508      	push	{r3, lr}
 8006ddc:	f001 ff8a 	bl	8008cf4 <USBH_LL_ClosePipe>
 8006de0:	2000      	movs	r0, #0
 8006de2:	bd08      	pop	{r3, pc}

08006de4 <USBH_AllocPipe>:
 8006de4:	b530      	push	{r4, r5, lr}
 8006de6:	2300      	movs	r3, #0
 8006de8:	f500 7460 	add.w	r4, r0, #896	; 0x380
 8006dec:	f854 5f04 	ldr.w	r5, [r4, #4]!
 8006df0:	042d      	lsls	r5, r5, #16
 8006df2:	b2da      	uxtb	r2, r3
 8006df4:	d408      	bmi.n	8006e08 <USBH_AllocPipe+0x24>
 8006df6:	eb00 0083 	add.w	r0, r0, r3, lsl #2
 8006dfa:	f441 4100 	orr.w	r1, r1, #32768	; 0x8000
 8006dfe:	b292      	uxth	r2, r2
 8006e00:	f8c0 1384 	str.w	r1, [r0, #900]	; 0x384
 8006e04:	b2d0      	uxtb	r0, r2
 8006e06:	bd30      	pop	{r4, r5, pc}
 8006e08:	3301      	adds	r3, #1
 8006e0a:	2b10      	cmp	r3, #16
 8006e0c:	d1ee      	bne.n	8006dec <USBH_AllocPipe+0x8>
 8006e0e:	f64f 72ff 	movw	r2, #65535	; 0xffff
 8006e12:	e7f7      	b.n	8006e04 <USBH_AllocPipe+0x20>

08006e14 <USBH_FreePipe>:
 8006e14:	290f      	cmp	r1, #15
 8006e16:	bf9f      	itttt	ls
 8006e18:	eb00 0081 	addls.w	r0, r0, r1, lsl #2
 8006e1c:	f8d0 3384 	ldrls.w	r3, [r0, #900]	; 0x384
 8006e20:	f3c3 030e 	ubfxls	r3, r3, #0, #15
 8006e24:	f8c0 3384 	strls.w	r3, [r0, #900]	; 0x384
 8006e28:	2000      	movs	r0, #0
 8006e2a:	4770      	bx	lr

08006e2c <disk_status>:
 8006e2c:	4b03      	ldr	r3, [pc, #12]	; (8006e3c <disk_status+0x10>)
 8006e2e:	181a      	adds	r2, r3, r0
 8006e30:	eb03 0080 	add.w	r0, r3, r0, lsl #2
 8006e34:	6843      	ldr	r3, [r0, #4]
 8006e36:	7a10      	ldrb	r0, [r2, #8]
 8006e38:	685b      	ldr	r3, [r3, #4]
 8006e3a:	4718      	bx	r3
 8006e3c:	200026f0 	.word	0x200026f0

08006e40 <disk_initialize>:
 8006e40:	4b06      	ldr	r3, [pc, #24]	; (8006e5c <disk_initialize+0x1c>)
 8006e42:	5c1a      	ldrb	r2, [r3, r0]
 8006e44:	b942      	cbnz	r2, 8006e58 <disk_initialize+0x18>
 8006e46:	2201      	movs	r2, #1
 8006e48:	541a      	strb	r2, [r3, r0]
 8006e4a:	181a      	adds	r2, r3, r0
 8006e4c:	eb03 0080 	add.w	r0, r3, r0, lsl #2
 8006e50:	6843      	ldr	r3, [r0, #4]
 8006e52:	7a10      	ldrb	r0, [r2, #8]
 8006e54:	681b      	ldr	r3, [r3, #0]
 8006e56:	4718      	bx	r3
 8006e58:	2000      	movs	r0, #0
 8006e5a:	4770      	bx	lr
 8006e5c:	200026f0 	.word	0x200026f0

08006e60 <disk_read>:
 8006e60:	b430      	push	{r4, r5}
 8006e62:	4c05      	ldr	r4, [pc, #20]	; (8006e78 <disk_read+0x18>)
 8006e64:	1825      	adds	r5, r4, r0
 8006e66:	eb04 0080 	add.w	r0, r4, r0, lsl #2
 8006e6a:	6840      	ldr	r0, [r0, #4]
 8006e6c:	6884      	ldr	r4, [r0, #8]
 8006e6e:	7a28      	ldrb	r0, [r5, #8]
 8006e70:	46a4      	mov	ip, r4
 8006e72:	bc30      	pop	{r4, r5}
 8006e74:	4760      	bx	ip
 8006e76:	bf00      	nop
 8006e78:	200026f0 	.word	0x200026f0

08006e7c <disk_write>:
 8006e7c:	b430      	push	{r4, r5}
 8006e7e:	4c05      	ldr	r4, [pc, #20]	; (8006e94 <disk_write+0x18>)
 8006e80:	1825      	adds	r5, r4, r0
 8006e82:	eb04 0080 	add.w	r0, r4, r0, lsl #2
 8006e86:	6840      	ldr	r0, [r0, #4]
 8006e88:	68c4      	ldr	r4, [r0, #12]
 8006e8a:	7a28      	ldrb	r0, [r5, #8]
 8006e8c:	46a4      	mov	ip, r4
 8006e8e:	bc30      	pop	{r4, r5}
 8006e90:	4760      	bx	ip
 8006e92:	bf00      	nop
 8006e94:	200026f0 	.word	0x200026f0

08006e98 <disk_ioctl>:
 8006e98:	4b05      	ldr	r3, [pc, #20]	; (8006eb0 <disk_ioctl+0x18>)
 8006e9a:	b410      	push	{r4}
 8006e9c:	181c      	adds	r4, r3, r0
 8006e9e:	eb03 0080 	add.w	r0, r3, r0, lsl #2
 8006ea2:	6843      	ldr	r3, [r0, #4]
 8006ea4:	7a20      	ldrb	r0, [r4, #8]
 8006ea6:	691b      	ldr	r3, [r3, #16]
 8006ea8:	f85d 4b04 	ldr.w	r4, [sp], #4
 8006eac:	4718      	bx	r3
 8006eae:	bf00      	nop
 8006eb0:	200026f0 	.word	0x200026f0

08006eb4 <ld_dword>:
 8006eb4:	6800      	ldr	r0, [r0, #0]
 8006eb6:	4770      	bx	lr

08006eb8 <st_dword>:
 8006eb8:	0a0b      	lsrs	r3, r1, #8
 8006eba:	7001      	strb	r1, [r0, #0]
 8006ebc:	7043      	strb	r3, [r0, #1]
 8006ebe:	0c0b      	lsrs	r3, r1, #16
 8006ec0:	0e09      	lsrs	r1, r1, #24
 8006ec2:	7083      	strb	r3, [r0, #2]
 8006ec4:	70c1      	strb	r1, [r0, #3]
 8006ec6:	4770      	bx	lr

08006ec8 <mem_set>:
 8006ec8:	4402      	add	r2, r0
 8006eca:	f800 1b01 	strb.w	r1, [r0], #1
 8006ece:	4290      	cmp	r0, r2
 8006ed0:	d1fb      	bne.n	8006eca <mem_set+0x2>
 8006ed2:	4770      	bx	lr

08006ed4 <chk_lock>:
 8006ed4:	4b15      	ldr	r3, [pc, #84]	; (8006f2c <chk_lock+0x58>)
 8006ed6:	b5f0      	push	{r4, r5, r6, r7, lr}
 8006ed8:	2400      	movs	r4, #0
 8006eda:	4622      	mov	r2, r4
 8006edc:	461d      	mov	r5, r3
 8006ede:	681e      	ldr	r6, [r3, #0]
 8006ee0:	b16e      	cbz	r6, 8006efe <chk_lock+0x2a>
 8006ee2:	6807      	ldr	r7, [r0, #0]
 8006ee4:	42be      	cmp	r6, r7
 8006ee6:	d10b      	bne.n	8006f00 <chk_lock+0x2c>
 8006ee8:	685f      	ldr	r7, [r3, #4]
 8006eea:	6886      	ldr	r6, [r0, #8]
 8006eec:	42b7      	cmp	r7, r6
 8006eee:	d107      	bne.n	8006f00 <chk_lock+0x2c>
 8006ef0:	689f      	ldr	r7, [r3, #8]
 8006ef2:	6946      	ldr	r6, [r0, #20]
 8006ef4:	42b7      	cmp	r7, r6
 8006ef6:	d103      	bne.n	8006f00 <chk_lock+0x2c>
 8006ef8:	b169      	cbz	r1, 8006f16 <chk_lock+0x42>
 8006efa:	2010      	movs	r0, #16
 8006efc:	e00a      	b.n	8006f14 <chk_lock+0x40>
 8006efe:	2401      	movs	r4, #1
 8006f00:	3201      	adds	r2, #1
 8006f02:	2a03      	cmp	r2, #3
 8006f04:	f103 0310 	add.w	r3, r3, #16
 8006f08:	d1e9      	bne.n	8006ede <chk_lock+0xa>
 8006f0a:	b96c      	cbnz	r4, 8006f28 <chk_lock+0x54>
 8006f0c:	2902      	cmp	r1, #2
 8006f0e:	bf0c      	ite	eq
 8006f10:	2000      	moveq	r0, #0
 8006f12:	2012      	movne	r0, #18
 8006f14:	bdf0      	pop	{r4, r5, r6, r7, pc}
 8006f16:	eb05 1502 	add.w	r5, r5, r2, lsl #4
 8006f1a:	89a8      	ldrh	r0, [r5, #12]
 8006f1c:	f5a0 7380 	sub.w	r3, r0, #256	; 0x100
 8006f20:	4258      	negs	r0, r3
 8006f22:	4158      	adcs	r0, r3
 8006f24:	0100      	lsls	r0, r0, #4
 8006f26:	e7f5      	b.n	8006f14 <chk_lock+0x40>
 8006f28:	2000      	movs	r0, #0
 8006f2a:	e7f3      	b.n	8006f14 <chk_lock+0x40>
 8006f2c:	200024bc 	.word	0x200024bc

08006f30 <inc_lock>:
 8006f30:	4a1e      	ldr	r2, [pc, #120]	; (8006fac <inc_lock+0x7c>)
 8006f32:	b5f0      	push	{r4, r5, r6, r7, lr}
 8006f34:	6806      	ldr	r6, [r0, #0]
 8006f36:	2300      	movs	r3, #0
 8006f38:	4615      	mov	r5, r2
 8006f3a:	6814      	ldr	r4, [r2, #0]
 8006f3c:	42b4      	cmp	r4, r6
 8006f3e:	d107      	bne.n	8006f50 <inc_lock+0x20>
 8006f40:	6857      	ldr	r7, [r2, #4]
 8006f42:	6884      	ldr	r4, [r0, #8]
 8006f44:	42a7      	cmp	r7, r4
 8006f46:	d103      	bne.n	8006f50 <inc_lock+0x20>
 8006f48:	6897      	ldr	r7, [r2, #8]
 8006f4a:	6944      	ldr	r4, [r0, #20]
 8006f4c:	42a7      	cmp	r7, r4
 8006f4e:	d022      	beq.n	8006f96 <inc_lock+0x66>
 8006f50:	3301      	adds	r3, #1
 8006f52:	2b03      	cmp	r3, #3
 8006f54:	f102 0210 	add.w	r2, r2, #16
 8006f58:	d1ef      	bne.n	8006f3a <inc_lock+0xa>
 8006f5a:	682b      	ldr	r3, [r5, #0]
 8006f5c:	b123      	cbz	r3, 8006f68 <inc_lock+0x38>
 8006f5e:	692b      	ldr	r3, [r5, #16]
 8006f60:	b1bb      	cbz	r3, 8006f92 <inc_lock+0x62>
 8006f62:	6a2b      	ldr	r3, [r5, #32]
 8006f64:	bb03      	cbnz	r3, 8006fa8 <inc_lock+0x78>
 8006f66:	2302      	movs	r3, #2
 8006f68:	011c      	lsls	r4, r3, #4
 8006f6a:	eb05 1203 	add.w	r2, r5, r3, lsl #4
 8006f6e:	512e      	str	r6, [r5, r4]
 8006f70:	6884      	ldr	r4, [r0, #8]
 8006f72:	6940      	ldr	r0, [r0, #20]
 8006f74:	6090      	str	r0, [r2, #8]
 8006f76:	2000      	movs	r0, #0
 8006f78:	6054      	str	r4, [r2, #4]
 8006f7a:	8190      	strh	r0, [r2, #12]
 8006f7c:	b989      	cbnz	r1, 8006fa2 <inc_lock+0x72>
 8006f7e:	eb05 1203 	add.w	r2, r5, r3, lsl #4
 8006f82:	8992      	ldrh	r2, [r2, #12]
 8006f84:	3201      	adds	r2, #1
 8006f86:	b292      	uxth	r2, r2
 8006f88:	eb05 1503 	add.w	r5, r5, r3, lsl #4
 8006f8c:	1c58      	adds	r0, r3, #1
 8006f8e:	81aa      	strh	r2, [r5, #12]
 8006f90:	bdf0      	pop	{r4, r5, r6, r7, pc}
 8006f92:	2301      	movs	r3, #1
 8006f94:	e7e8      	b.n	8006f68 <inc_lock+0x38>
 8006f96:	eb05 1203 	add.w	r2, r5, r3, lsl #4
 8006f9a:	8992      	ldrh	r2, [r2, #12]
 8006f9c:	2900      	cmp	r1, #0
 8006f9e:	d0ee      	beq.n	8006f7e <inc_lock+0x4e>
 8006fa0:	b912      	cbnz	r2, 8006fa8 <inc_lock+0x78>
 8006fa2:	f44f 7280 	mov.w	r2, #256	; 0x100
 8006fa6:	e7ef      	b.n	8006f88 <inc_lock+0x58>
 8006fa8:	2000      	movs	r0, #0
 8006faa:	e7f1      	b.n	8006f90 <inc_lock+0x60>
 8006fac:	200024bc 	.word	0x200024bc

08006fb0 <dec_lock>:
 8006fb0:	3801      	subs	r0, #1
 8006fb2:	2802      	cmp	r0, #2
 8006fb4:	d815      	bhi.n	8006fe2 <dec_lock+0x32>
 8006fb6:	4a0c      	ldr	r2, [pc, #48]	; (8006fe8 <dec_lock+0x38>)
 8006fb8:	0101      	lsls	r1, r0, #4
 8006fba:	eb02 1000 	add.w	r0, r2, r0, lsl #4
 8006fbe:	8983      	ldrh	r3, [r0, #12]
 8006fc0:	f5b3 7f80 	cmp.w	r3, #256	; 0x100
 8006fc4:	d104      	bne.n	8006fd0 <dec_lock+0x20>
 8006fc6:	2300      	movs	r3, #0
 8006fc8:	8183      	strh	r3, [r0, #12]
 8006fca:	2000      	movs	r0, #0
 8006fcc:	5050      	str	r0, [r2, r1]
 8006fce:	4770      	bx	lr
 8006fd0:	2b00      	cmp	r3, #0
 8006fd2:	d0fa      	beq.n	8006fca <dec_lock+0x1a>
 8006fd4:	3b01      	subs	r3, #1
 8006fd6:	b29b      	uxth	r3, r3
 8006fd8:	8183      	strh	r3, [r0, #12]
 8006fda:	2b00      	cmp	r3, #0
 8006fdc:	d0f5      	beq.n	8006fca <dec_lock+0x1a>
 8006fde:	2000      	movs	r0, #0
 8006fe0:	4770      	bx	lr
 8006fe2:	2002      	movs	r0, #2
 8006fe4:	4770      	bx	lr
 8006fe6:	bf00      	nop
 8006fe8:	200024bc 	.word	0x200024bc

08006fec <clear_lock>:
 8006fec:	4b08      	ldr	r3, [pc, #32]	; (8007010 <clear_lock+0x24>)
 8006fee:	681a      	ldr	r2, [r3, #0]
 8006ff0:	4290      	cmp	r0, r2
 8006ff2:	bf04      	itt	eq
 8006ff4:	2200      	moveq	r2, #0
 8006ff6:	601a      	streq	r2, [r3, #0]
 8006ff8:	691a      	ldr	r2, [r3, #16]
 8006ffa:	4290      	cmp	r0, r2
 8006ffc:	bf04      	itt	eq
 8006ffe:	2200      	moveq	r2, #0
 8007000:	611a      	streq	r2, [r3, #16]
 8007002:	6a1a      	ldr	r2, [r3, #32]
 8007004:	4282      	cmp	r2, r0
 8007006:	bf04      	itt	eq
 8007008:	2200      	moveq	r2, #0
 800700a:	621a      	streq	r2, [r3, #32]
 800700c:	4770      	bx	lr
 800700e:	bf00      	nop
 8007010:	200024bc 	.word	0x200024bc

08007014 <clust2sect>:
 8007014:	69c3      	ldr	r3, [r0, #28]
 8007016:	3902      	subs	r1, #2
 8007018:	3b02      	subs	r3, #2
 800701a:	428b      	cmp	r3, r1
 800701c:	bf83      	ittte	hi
 800701e:	8943      	ldrhhi	r3, [r0, #10]
 8007020:	6b00      	ldrhi	r0, [r0, #48]	; 0x30
 8007022:	fb01 0003 	mlahi	r0, r1, r3, r0
 8007026:	2000      	movls	r0, #0
 8007028:	4770      	bx	lr

0800702a <clmt_clust>:
 800702a:	6ac3      	ldr	r3, [r0, #44]	; 0x2c
 800702c:	6802      	ldr	r2, [r0, #0]
 800702e:	3304      	adds	r3, #4
 8007030:	8990      	ldrh	r0, [r2, #12]
 8007032:	8952      	ldrh	r2, [r2, #10]
 8007034:	fbb1 f1f0 	udiv	r1, r1, r0
 8007038:	fbb1 f1f2 	udiv	r1, r1, r2
 800703c:	6818      	ldr	r0, [r3, #0]
 800703e:	b130      	cbz	r0, 800704e <clmt_clust+0x24>
 8007040:	4281      	cmp	r1, r0
 8007042:	d302      	bcc.n	800704a <clmt_clust+0x20>
 8007044:	1a09      	subs	r1, r1, r0
 8007046:	3308      	adds	r3, #8
 8007048:	e7f8      	b.n	800703c <clmt_clust+0x12>
 800704a:	6858      	ldr	r0, [r3, #4]
 800704c:	4408      	add	r0, r1
 800704e:	4770      	bx	lr

08007050 <st_clust>:
 8007050:	f3c2 2307 	ubfx	r3, r2, #8, #8
 8007054:	768a      	strb	r2, [r1, #26]
 8007056:	76cb      	strb	r3, [r1, #27]
 8007058:	7803      	ldrb	r3, [r0, #0]
 800705a:	2b03      	cmp	r3, #3
 800705c:	bf01      	itttt	eq
 800705e:	0c12      	lsreq	r2, r2, #16
 8007060:	750a      	strbeq	r2, [r1, #20]
 8007062:	0a12      	lsreq	r2, r2, #8
 8007064:	754a      	strbeq	r2, [r1, #21]
 8007066:	4770      	bx	lr

08007068 <sum_sfn>:
 8007068:	f100 010b 	add.w	r1, r0, #11
 800706c:	2200      	movs	r2, #0
 800706e:	01d3      	lsls	r3, r2, #7
 8007070:	ea43 0352 	orr.w	r3, r3, r2, lsr #1
 8007074:	f810 2b01 	ldrb.w	r2, [r0], #1
 8007078:	fa52 f383 	uxtab	r3, r2, r3
 800707c:	4288      	cmp	r0, r1
 800707e:	b2da      	uxtb	r2, r3
 8007080:	d1f5      	bne.n	800706e <sum_sfn+0x6>
 8007082:	4610      	mov	r0, r2
 8007084:	4770      	bx	lr

08007086 <get_ldnumber>:
 8007086:	6802      	ldr	r2, [r0, #0]
 8007088:	b510      	push	{r4, lr}
 800708a:	b152      	cbz	r2, 80070a2 <get_ldnumber+0x1c>
 800708c:	4611      	mov	r1, r2
 800708e:	460b      	mov	r3, r1
 8007090:	f811 4b01 	ldrb.w	r4, [r1], #1
 8007094:	2c1f      	cmp	r4, #31
 8007096:	d90c      	bls.n	80070b2 <get_ldnumber+0x2c>
 8007098:	2c3a      	cmp	r4, #58	; 0x3a
 800709a:	d1f8      	bne.n	800708e <get_ldnumber+0x8>
 800709c:	1c51      	adds	r1, r2, #1
 800709e:	428b      	cmp	r3, r1
 80070a0:	d002      	beq.n	80070a8 <get_ldnumber+0x22>
 80070a2:	f04f 30ff 	mov.w	r0, #4294967295
 80070a6:	e005      	b.n	80070b4 <get_ldnumber+0x2e>
 80070a8:	7812      	ldrb	r2, [r2, #0]
 80070aa:	2a30      	cmp	r2, #48	; 0x30
 80070ac:	d1f9      	bne.n	80070a2 <get_ldnumber+0x1c>
 80070ae:	3301      	adds	r3, #1
 80070b0:	6003      	str	r3, [r0, #0]
 80070b2:	2000      	movs	r0, #0
 80070b4:	bd10      	pop	{r4, pc}

080070b6 <validate>:
 80070b6:	b538      	push	{r3, r4, r5, lr}
 80070b8:	460d      	mov	r5, r1
 80070ba:	4604      	mov	r4, r0
 80070bc:	b918      	cbnz	r0, 80070c6 <validate+0x10>
 80070be:	2009      	movs	r0, #9
 80070c0:	2300      	movs	r3, #0
 80070c2:	602b      	str	r3, [r5, #0]
 80070c4:	bd38      	pop	{r3, r4, r5, pc}
 80070c6:	6803      	ldr	r3, [r0, #0]
 80070c8:	2b00      	cmp	r3, #0
 80070ca:	d0f8      	beq.n	80070be <validate+0x8>
 80070cc:	781a      	ldrb	r2, [r3, #0]
 80070ce:	2a00      	cmp	r2, #0
 80070d0:	d0f5      	beq.n	80070be <validate+0x8>
 80070d2:	8881      	ldrh	r1, [r0, #4]
 80070d4:	88da      	ldrh	r2, [r3, #6]
 80070d6:	4291      	cmp	r1, r2
 80070d8:	d1f1      	bne.n	80070be <validate+0x8>
 80070da:	7858      	ldrb	r0, [r3, #1]
 80070dc:	f7ff fea6 	bl	8006e2c <disk_status>
 80070e0:	f010 0001 	ands.w	r0, r0, #1
 80070e4:	d1eb      	bne.n	80070be <validate+0x8>
 80070e6:	6823      	ldr	r3, [r4, #0]
 80070e8:	e7eb      	b.n	80070c2 <validate+0xc>

080070ea <get_fileinfo>:
 80070ea:	e92d 41f0 	stmdb	sp!, {r4, r5, r6, r7, r8, lr}
 80070ee:	2500      	movs	r5, #0
 80070f0:	f8d0 8000 	ldr.w	r8, [r0]
 80070f4:	758d      	strb	r5, [r1, #22]
 80070f6:	69c3      	ldr	r3, [r0, #28]
 80070f8:	4606      	mov	r6, r0
 80070fa:	460c      	mov	r4, r1
 80070fc:	2b00      	cmp	r3, #0
 80070fe:	d05a      	beq.n	80071b6 <get_fileinfo+0xcc>
 8007100:	6b03      	ldr	r3, [r0, #48]	; 0x30
 8007102:	3301      	adds	r3, #1
 8007104:	d00a      	beq.n	800711c <get_fileinfo+0x32>
 8007106:	f101 0715 	add.w	r7, r1, #21
 800710a:	f8d8 3010 	ldr.w	r3, [r8, #16]
 800710e:	f833 0015 	ldrh.w	r0, [r3, r5, lsl #1]
 8007112:	2800      	cmp	r0, #0
 8007114:	d151      	bne.n	80071ba <get_fileinfo+0xd0>
 8007116:	4425      	add	r5, r4
 8007118:	2300      	movs	r3, #0
 800711a:	75ab      	strb	r3, [r5, #22]
 800711c:	6a31      	ldr	r1, [r6, #32]
 800711e:	7da5      	ldrb	r5, [r4, #22]
 8007120:	2300      	movs	r3, #0
 8007122:	1e4e      	subs	r6, r1, #1
 8007124:	4618      	mov	r0, r3
 8007126:	272e      	movs	r7, #46	; 0x2e
 8007128:	f816 2f01 	ldrb.w	r2, [r6, #1]!
 800712c:	2a20      	cmp	r2, #32
 800712e:	f100 0001 	add.w	r0, r0, #1
 8007132:	d026      	beq.n	8007182 <get_fileinfo+0x98>
 8007134:	2a05      	cmp	r2, #5
 8007136:	bf08      	it	eq
 8007138:	22e5      	moveq	r2, #229	; 0xe5
 800713a:	2809      	cmp	r0, #9
 800713c:	d107      	bne.n	800714e <get_fileinfo+0x64>
 800713e:	eb04 0c03 	add.w	ip, r4, r3
 8007142:	b90d      	cbnz	r5, 8007148 <get_fileinfo+0x5e>
 8007144:	f88c 7016 	strb.w	r7, [ip, #22]
 8007148:	f88c 7009 	strb.w	r7, [ip, #9]
 800714c:	3301      	adds	r3, #1
 800714e:	eb04 0c03 	add.w	ip, r4, r3
 8007152:	f88c 2009 	strb.w	r2, [ip, #9]
 8007156:	b99d      	cbnz	r5, 8007180 <get_fileinfo+0x96>
 8007158:	f1a2 0e41 	sub.w	lr, r2, #65	; 0x41
 800715c:	f1be 0f19 	cmp.w	lr, #25
 8007160:	d80c      	bhi.n	800717c <get_fileinfo+0x92>
 8007162:	2808      	cmp	r0, #8
 8007164:	f891 800c 	ldrb.w	r8, [r1, #12]
 8007168:	bf8c      	ite	hi
 800716a:	f04f 0e10 	movhi.w	lr, #16
 800716e:	f04f 0e08 	movls.w	lr, #8
 8007172:	ea18 0f0e 	tst.w	r8, lr
 8007176:	bf1c      	itt	ne
 8007178:	3220      	addne	r2, #32
 800717a:	b2d2      	uxtbne	r2, r2
 800717c:	f88c 2016 	strb.w	r2, [ip, #22]
 8007180:	3301      	adds	r3, #1
 8007182:	280b      	cmp	r0, #11
 8007184:	d1d0      	bne.n	8007128 <get_fileinfo+0x3e>
 8007186:	b92d      	cbnz	r5, 8007194 <get_fileinfo+0xaa>
 8007188:	18e2      	adds	r2, r4, r3
 800718a:	7595      	strb	r5, [r2, #22]
 800718c:	7b0a      	ldrb	r2, [r1, #12]
 800718e:	2a00      	cmp	r2, #0
 8007190:	bf08      	it	eq
 8007192:	2300      	moveq	r3, #0
 8007194:	4423      	add	r3, r4
 8007196:	2200      	movs	r2, #0
 8007198:	725a      	strb	r2, [r3, #9]
 800719a:	7acb      	ldrb	r3, [r1, #11]
 800719c:	7223      	strb	r3, [r4, #8]
 800719e:	f101 001c 	add.w	r0, r1, #28
 80071a2:	f7ff fe87 	bl	8006eb4 <ld_dword>
 80071a6:	6020      	str	r0, [r4, #0]
 80071a8:	f101 0016 	add.w	r0, r1, #22
 80071ac:	f7ff fe82 	bl	8006eb4 <ld_dword>
 80071b0:	80e0      	strh	r0, [r4, #6]
 80071b2:	0c00      	lsrs	r0, r0, #16
 80071b4:	80a0      	strh	r0, [r4, #4]
 80071b6:	e8bd 81f0 	ldmia.w	sp!, {r4, r5, r6, r7, r8, pc}
 80071ba:	2100      	movs	r1, #0
 80071bc:	f001 fc0a 	bl	80089d4 <ff_convert>
 80071c0:	b130      	cbz	r0, 80071d0 <get_fileinfo+0xe6>
 80071c2:	3501      	adds	r5, #1
 80071c4:	f5b5 7f80 	cmp.w	r5, #256	; 0x100
 80071c8:	d002      	beq.n	80071d0 <get_fileinfo+0xe6>
 80071ca:	f807 0f01 	strb.w	r0, [r7, #1]!
 80071ce:	e79c      	b.n	800710a <get_fileinfo+0x20>
 80071d0:	2500      	movs	r5, #0
 80071d2:	e7a0      	b.n	8007116 <get_fileinfo+0x2c>

080071d4 <mem_cpy.part.0>:
 80071d4:	3801      	subs	r0, #1
 80071d6:	440a      	add	r2, r1
 80071d8:	f811 3b01 	ldrb.w	r3, [r1], #1
 80071dc:	f800 3f01 	strb.w	r3, [r0, #1]!
 80071e0:	4291      	cmp	r1, r2
 80071e2:	d1f9      	bne.n	80071d8 <mem_cpy.part.0+0x4>
 80071e4:	4770      	bx	lr

080071e6 <sync_window.part.0>:
 80071e6:	e92d 41f0 	stmdb	sp!, {r4, r5, r6, r7, r8, lr}
 80071ea:	6b46      	ldr	r6, [r0, #52]	; 0x34
 80071ec:	f100 0838 	add.w	r8, r0, #56	; 0x38
 80071f0:	4604      	mov	r4, r0
 80071f2:	2301      	movs	r3, #1
 80071f4:	7840      	ldrb	r0, [r0, #1]
 80071f6:	4632      	mov	r2, r6
 80071f8:	4641      	mov	r1, r8
 80071fa:	f7ff fe3f 	bl	8006e7c <disk_write>
 80071fe:	4605      	mov	r5, r0
 8007200:	b9a8      	cbnz	r0, 800722e <sync_window.part.0+0x48>
 8007202:	6aa3      	ldr	r3, [r4, #40]	; 0x28
 8007204:	6a22      	ldr	r2, [r4, #32]
 8007206:	70e0      	strb	r0, [r4, #3]
 8007208:	1af3      	subs	r3, r6, r3
 800720a:	4293      	cmp	r3, r2
 800720c:	d202      	bcs.n	8007214 <sync_window.part.0+0x2e>
 800720e:	78a7      	ldrb	r7, [r4, #2]
 8007210:	2f01      	cmp	r7, #1
 8007212:	d802      	bhi.n	800721a <sync_window.part.0+0x34>
 8007214:	4628      	mov	r0, r5
 8007216:	e8bd 81f0 	ldmia.w	sp!, {r4, r5, r6, r7, r8, pc}
 800721a:	6a23      	ldr	r3, [r4, #32]
 800721c:	7860      	ldrb	r0, [r4, #1]
 800721e:	441e      	add	r6, r3
 8007220:	4632      	mov	r2, r6
 8007222:	2301      	movs	r3, #1
 8007224:	4641      	mov	r1, r8
 8007226:	f7ff fe29 	bl	8006e7c <disk_write>
 800722a:	3f01      	subs	r7, #1
 800722c:	e7f0      	b.n	8007210 <sync_window.part.0+0x2a>
 800722e:	2501      	movs	r5, #1
 8007230:	e7f0      	b.n	8007214 <sync_window.part.0+0x2e>

08007232 <sync_window>:
 8007232:	78c3      	ldrb	r3, [r0, #3]
 8007234:	b10b      	cbz	r3, 800723a <sync_window+0x8>
 8007236:	f7ff bfd6 	b.w	80071e6 <sync_window.part.0>
 800723a:	4618      	mov	r0, r3
 800723c:	4770      	bx	lr

0800723e <move_window>:
 800723e:	b538      	push	{r3, r4, r5, lr}
 8007240:	6b43      	ldr	r3, [r0, #52]	; 0x34
 8007242:	428b      	cmp	r3, r1
 8007244:	4605      	mov	r5, r0
 8007246:	460c      	mov	r4, r1
 8007248:	d010      	beq.n	800726c <move_window+0x2e>
 800724a:	f7ff fff2 	bl	8007232 <sync_window>
 800724e:	b960      	cbnz	r0, 800726a <move_window+0x2c>
 8007250:	4622      	mov	r2, r4
 8007252:	7868      	ldrb	r0, [r5, #1]
 8007254:	2301      	movs	r3, #1
 8007256:	f105 0138 	add.w	r1, r5, #56	; 0x38
 800725a:	f7ff fe01 	bl	8006e60 <disk_read>
 800725e:	2800      	cmp	r0, #0
 8007260:	bf1c      	itt	ne
 8007262:	f04f 34ff 	movne.w	r4, #4294967295
 8007266:	2001      	movne	r0, #1
 8007268:	636c      	str	r4, [r5, #52]	; 0x34
 800726a:	bd38      	pop	{r3, r4, r5, pc}
 800726c:	2000      	movs	r0, #0
 800726e:	e7fc      	b.n	800726a <move_window+0x2c>

08007270 <check_fs>:
 8007270:	2300      	movs	r3, #0
 8007272:	b510      	push	{r4, lr}
 8007274:	70c3      	strb	r3, [r0, #3]
 8007276:	f04f 33ff 	mov.w	r3, #4294967295
 800727a:	6343      	str	r3, [r0, #52]	; 0x34
 800727c:	4604      	mov	r4, r0
 800727e:	f7ff ffde 	bl	800723e <move_window>
 8007282:	4603      	mov	r3, r0
 8007284:	bb18      	cbnz	r0, 80072ce <check_fs+0x5e>
 8007286:	f8b4 1236 	ldrh.w	r1, [r4, #566]	; 0x236
 800728a:	f64a 2255 	movw	r2, #43605	; 0xaa55
 800728e:	4291      	cmp	r1, r2
 8007290:	d11f      	bne.n	80072d2 <check_fs+0x62>
 8007292:	f894 2038 	ldrb.w	r2, [r4, #56]	; 0x38
 8007296:	2ae9      	cmp	r2, #233	; 0xe9
 8007298:	d005      	beq.n	80072a6 <check_fs+0x36>
 800729a:	6ba2      	ldr	r2, [r4, #56]	; 0x38
 800729c:	490f      	ldr	r1, [pc, #60]	; (80072dc <check_fs+0x6c>)
 800729e:	f002 12ff 	and.w	r2, r2, #16711935	; 0xff00ff
 80072a2:	428a      	cmp	r2, r1
 80072a4:	d117      	bne.n	80072d6 <check_fs+0x66>
 80072a6:	f104 006e 	add.w	r0, r4, #110	; 0x6e
 80072aa:	f7ff fe03 	bl	8006eb4 <ld_dword>
 80072ae:	4a0c      	ldr	r2, [pc, #48]	; (80072e0 <check_fs+0x70>)
 80072b0:	f020 407f 	bic.w	r0, r0, #4278190080	; 0xff000000
 80072b4:	4290      	cmp	r0, r2
 80072b6:	d008      	beq.n	80072ca <check_fs+0x5a>
 80072b8:	f104 008a 	add.w	r0, r4, #138	; 0x8a
 80072bc:	f7ff fdfa 	bl	8006eb4 <ld_dword>
 80072c0:	4b08      	ldr	r3, [pc, #32]	; (80072e4 <check_fs+0x74>)
 80072c2:	1ac0      	subs	r0, r0, r3
 80072c4:	bf18      	it	ne
 80072c6:	2001      	movne	r0, #1
 80072c8:	0043      	lsls	r3, r0, #1
 80072ca:	4618      	mov	r0, r3
 80072cc:	bd10      	pop	{r4, pc}
 80072ce:	2304      	movs	r3, #4
 80072d0:	e7fb      	b.n	80072ca <check_fs+0x5a>
 80072d2:	2303      	movs	r3, #3
 80072d4:	e7f9      	b.n	80072ca <check_fs+0x5a>
 80072d6:	2302      	movs	r3, #2
 80072d8:	e7f7      	b.n	80072ca <check_fs+0x5a>
 80072da:	bf00      	nop
 80072dc:	009000eb 	.word	0x009000eb
 80072e0:	00544146 	.word	0x00544146
 80072e4:	33544146 	.word	0x33544146

080072e8 <find_volume>:
 80072e8:	e92d 47ff 	stmdb	sp!, {r0, r1, r2, r3, r4, r5, r6, r7, r8, r9, sl, lr}
 80072ec:	2300      	movs	r3, #0
 80072ee:	600b      	str	r3, [r1, #0]
 80072f0:	460f      	mov	r7, r1
 80072f2:	4615      	mov	r5, r2
 80072f4:	f7ff fec7 	bl	8007086 <get_ldnumber>
 80072f8:	1e06      	subs	r6, r0, #0
 80072fa:	f2c0 8135 	blt.w	8007568 <find_volume+0x280>
 80072fe:	4b9d      	ldr	r3, [pc, #628]	; (8007574 <find_volume+0x28c>)
 8007300:	f853 4026 	ldr.w	r4, [r3, r6, lsl #2]
 8007304:	2c00      	cmp	r4, #0
 8007306:	f000 8131 	beq.w	800756c <find_volume+0x284>
 800730a:	603c      	str	r4, [r7, #0]
 800730c:	7823      	ldrb	r3, [r4, #0]
 800730e:	f005 05fe 	and.w	r5, r5, #254	; 0xfe
 8007312:	b16b      	cbz	r3, 8007330 <find_volume+0x48>
 8007314:	7860      	ldrb	r0, [r4, #1]
 8007316:	f7ff fd89 	bl	8006e2c <disk_status>
 800731a:	07c1      	lsls	r1, r0, #31
 800731c:	d408      	bmi.n	8007330 <find_volume+0x48>
 800731e:	b11d      	cbz	r5, 8007328 <find_volume+0x40>
 8007320:	f010 0504 	ands.w	r5, r0, #4
 8007324:	d000      	beq.n	8007328 <find_volume+0x40>
 8007326:	250a      	movs	r5, #10
 8007328:	4628      	mov	r0, r5
 800732a:	b004      	add	sp, #16
 800732c:	e8bd 87f0 	ldmia.w	sp!, {r4, r5, r6, r7, r8, r9, sl, pc}
 8007330:	2300      	movs	r3, #0
 8007332:	b2f0      	uxtb	r0, r6
 8007334:	7023      	strb	r3, [r4, #0]
 8007336:	7060      	strb	r0, [r4, #1]
 8007338:	f7ff fd82 	bl	8006e40 <disk_initialize>
 800733c:	07c2      	lsls	r2, r0, #31
 800733e:	f100 8117 	bmi.w	8007570 <find_volume+0x288>
 8007342:	b10d      	cbz	r5, 8007348 <find_volume+0x60>
 8007344:	0743      	lsls	r3, r0, #29
 8007346:	d4ee      	bmi.n	8007326 <find_volume+0x3e>
 8007348:	7860      	ldrb	r0, [r4, #1]
 800734a:	f104 020c 	add.w	r2, r4, #12
 800734e:	2102      	movs	r1, #2
 8007350:	f7ff fda2 	bl	8006e98 <disk_ioctl>
 8007354:	4605      	mov	r5, r0
 8007356:	b108      	cbz	r0, 800735c <find_volume+0x74>
 8007358:	2501      	movs	r5, #1
 800735a:	e7e5      	b.n	8007328 <find_volume+0x40>
 800735c:	89a3      	ldrh	r3, [r4, #12]
 800735e:	f5a3 7200 	sub.w	r2, r3, #512	; 0x200
 8007362:	f5b2 7f00 	cmp.w	r2, #512	; 0x200
 8007366:	d8f7      	bhi.n	8007358 <find_volume+0x70>
 8007368:	1e5a      	subs	r2, r3, #1
 800736a:	421a      	tst	r2, r3
 800736c:	d1f4      	bne.n	8007358 <find_volume+0x70>
 800736e:	4601      	mov	r1, r0
 8007370:	4620      	mov	r0, r4
 8007372:	f7ff ff7d 	bl	8007270 <check_fs>
 8007376:	2802      	cmp	r0, #2
 8007378:	f040 80db 	bne.w	8007532 <find_volume+0x24a>
 800737c:	466e      	mov	r6, sp
 800737e:	f504 73ff 	add.w	r3, r4, #510	; 0x1fe
 8007382:	f204 213e 	addw	r1, r4, #574	; 0x23e
 8007386:	4632      	mov	r2, r6
 8007388:	f813 0c04 	ldrb.w	r0, [r3, #-4]
 800738c:	b110      	cbz	r0, 8007394 <find_volume+0xac>
 800738e:	4618      	mov	r0, r3
 8007390:	f7ff fd90 	bl	8006eb4 <ld_dword>
 8007394:	3310      	adds	r3, #16
 8007396:	428b      	cmp	r3, r1
 8007398:	f842 0b04 	str.w	r0, [r2], #4
 800739c:	d1f4      	bne.n	8007388 <find_volume+0xa0>
 800739e:	f04f 0800 	mov.w	r8, #0
 80073a2:	f856 7b04 	ldr.w	r7, [r6], #4
 80073a6:	2f00      	cmp	r7, #0
 80073a8:	f000 80b9 	beq.w	800751e <find_volume+0x236>
 80073ac:	4639      	mov	r1, r7
 80073ae:	4620      	mov	r0, r4
 80073b0:	f7ff ff5e 	bl	8007270 <check_fs>
 80073b4:	2801      	cmp	r0, #1
 80073b6:	f200 80b3 	bhi.w	8007520 <find_volume+0x238>
 80073ba:	f8b4 800c 	ldrh.w	r8, [r4, #12]
 80073be:	f8b4 3043 	ldrh.w	r3, [r4, #67]	; 0x43
 80073c2:	4543      	cmp	r3, r8
 80073c4:	f040 80ba 	bne.w	800753c <find_volume+0x254>
 80073c8:	f8b4 104e 	ldrh.w	r1, [r4, #78]	; 0x4e
 80073cc:	b921      	cbnz	r1, 80073d8 <find_volume+0xf0>
 80073ce:	f104 005c 	add.w	r0, r4, #92	; 0x5c
 80073d2:	f7ff fd6f 	bl	8006eb4 <ld_dword>
 80073d6:	4601      	mov	r1, r0
 80073d8:	f894 a048 	ldrb.w	sl, [r4, #72]	; 0x48
 80073dc:	6221      	str	r1, [r4, #32]
 80073de:	f10a 33ff 	add.w	r3, sl, #4294967295
 80073e2:	2b01      	cmp	r3, #1
 80073e4:	f884 a002 	strb.w	sl, [r4, #2]
 80073e8:	f200 80a8 	bhi.w	800753c <find_volume+0x254>
 80073ec:	f894 6045 	ldrb.w	r6, [r4, #69]	; 0x45
 80073f0:	8166      	strh	r6, [r4, #10]
 80073f2:	2e00      	cmp	r6, #0
 80073f4:	f000 80a2 	beq.w	800753c <find_volume+0x254>
 80073f8:	1e73      	subs	r3, r6, #1
 80073fa:	4233      	tst	r3, r6
 80073fc:	f040 809e 	bne.w	800753c <find_volume+0x254>
 8007400:	f8b4 9049 	ldrh.w	r9, [r4, #73]	; 0x49
 8007404:	f8a4 9008 	strh.w	r9, [r4, #8]
 8007408:	ea4f 1358 	mov.w	r3, r8, lsr #5
 800740c:	fbb9 f2f3 	udiv	r2, r9, r3
 8007410:	fb03 9312 	mls	r3, r3, r2, r9
 8007414:	b29b      	uxth	r3, r3
 8007416:	2b00      	cmp	r3, #0
 8007418:	f040 8090 	bne.w	800753c <find_volume+0x254>
 800741c:	f8b4 004b 	ldrh.w	r0, [r4, #75]	; 0x4b
 8007420:	b918      	cbnz	r0, 800742a <find_volume+0x142>
 8007422:	f104 0058 	add.w	r0, r4, #88	; 0x58
 8007426:	f7ff fd45 	bl	8006eb4 <ld_dword>
 800742a:	f8b4 3046 	ldrh.w	r3, [r4, #70]	; 0x46
 800742e:	2b00      	cmp	r3, #0
 8007430:	f000 8084 	beq.w	800753c <find_volume+0x254>
 8007434:	fb01 fe0a 	mul.w	lr, r1, sl
 8007438:	eb02 0c03 	add.w	ip, r2, r3
 800743c:	44f4      	add	ip, lr
 800743e:	4560      	cmp	r0, ip
 8007440:	d37c      	bcc.n	800753c <find_volume+0x254>
 8007442:	eba0 000c 	sub.w	r0, r0, ip
 8007446:	42b0      	cmp	r0, r6
 8007448:	fbb0 f2f6 	udiv	r2, r0, r6
 800744c:	d376      	bcc.n	800753c <find_volume+0x254>
 800744e:	f64f 70f5 	movw	r0, #65525	; 0xfff5
 8007452:	4282      	cmp	r2, r0
 8007454:	d876      	bhi.n	8007544 <find_volume+0x25c>
 8007456:	f640 76f5 	movw	r6, #4085	; 0xff5
 800745a:	42b2      	cmp	r2, r6
 800745c:	bf8c      	ite	hi
 800745e:	2602      	movhi	r6, #2
 8007460:	2601      	movls	r6, #1
 8007462:	3202      	adds	r2, #2
 8007464:	443b      	add	r3, r7
 8007466:	eb0c 0007 	add.w	r0, ip, r7
 800746a:	2e03      	cmp	r6, #3
 800746c:	61e2      	str	r2, [r4, #28]
 800746e:	6267      	str	r7, [r4, #36]	; 0x24
 8007470:	62a3      	str	r3, [r4, #40]	; 0x28
 8007472:	6320      	str	r0, [r4, #48]	; 0x30
 8007474:	d168      	bne.n	8007548 <find_volume+0x260>
 8007476:	f8b4 3062 	ldrh.w	r3, [r4, #98]	; 0x62
 800747a:	ea59 0303 	orrs.w	r3, r9, r3
 800747e:	d15d      	bne.n	800753c <find_volume+0x254>
 8007480:	f104 0064 	add.w	r0, r4, #100	; 0x64
 8007484:	f7ff fd16 	bl	8006eb4 <ld_dword>
 8007488:	0092      	lsls	r2, r2, #2
 800748a:	f108 33ff 	add.w	r3, r8, #4294967295
 800748e:	4413      	add	r3, r2
 8007490:	fbb3 f3f8 	udiv	r3, r3, r8
 8007494:	428b      	cmp	r3, r1
 8007496:	62e0      	str	r0, [r4, #44]	; 0x2c
 8007498:	d850      	bhi.n	800753c <find_volume+0x254>
 800749a:	f04f 33ff 	mov.w	r3, #4294967295
 800749e:	e9c4 3305 	strd	r3, r3, [r4, #20]
 80074a2:	2e03      	cmp	r6, #3
 80074a4:	f04f 0380 	mov.w	r3, #128	; 0x80
 80074a8:	7123      	strb	r3, [r4, #4]
 80074aa:	d12b      	bne.n	8007504 <find_volume+0x21c>
 80074ac:	f8b4 3068 	ldrh.w	r3, [r4, #104]	; 0x68
 80074b0:	2b01      	cmp	r3, #1
 80074b2:	d127      	bne.n	8007504 <find_volume+0x21c>
 80074b4:	1c79      	adds	r1, r7, #1
 80074b6:	4620      	mov	r0, r4
 80074b8:	f7ff fec1 	bl	800723e <move_window>
 80074bc:	bb10      	cbnz	r0, 8007504 <find_volume+0x21c>
 80074be:	f8b4 2236 	ldrh.w	r2, [r4, #566]	; 0x236
 80074c2:	7120      	strb	r0, [r4, #4]
 80074c4:	f64a 2355 	movw	r3, #43605	; 0xaa55
 80074c8:	429a      	cmp	r2, r3
 80074ca:	d11b      	bne.n	8007504 <find_volume+0x21c>
 80074cc:	f104 0038 	add.w	r0, r4, #56	; 0x38
 80074d0:	f7ff fcf0 	bl	8006eb4 <ld_dword>
 80074d4:	4b28      	ldr	r3, [pc, #160]	; (8007578 <find_volume+0x290>)
 80074d6:	4298      	cmp	r0, r3
 80074d8:	d114      	bne.n	8007504 <find_volume+0x21c>
 80074da:	f504 7007 	add.w	r0, r4, #540	; 0x21c
 80074de:	f7ff fce9 	bl	8006eb4 <ld_dword>
 80074e2:	f103 53ff 	add.w	r3, r3, #534773760	; 0x1fe00000
 80074e6:	f503 5300 	add.w	r3, r3, #8192	; 0x2000
 80074ea:	3320      	adds	r3, #32
 80074ec:	4298      	cmp	r0, r3
 80074ee:	d109      	bne.n	8007504 <find_volume+0x21c>
 80074f0:	f504 7008 	add.w	r0, r4, #544	; 0x220
 80074f4:	f7ff fcde 	bl	8006eb4 <ld_dword>
 80074f8:	61a0      	str	r0, [r4, #24]
 80074fa:	f504 7009 	add.w	r0, r4, #548	; 0x224
 80074fe:	f7ff fcd9 	bl	8006eb4 <ld_dword>
 8007502:	6160      	str	r0, [r4, #20]
 8007504:	4a1d      	ldr	r2, [pc, #116]	; (800757c <find_volume+0x294>)
 8007506:	7026      	strb	r6, [r4, #0]
 8007508:	8813      	ldrh	r3, [r2, #0]
 800750a:	3301      	adds	r3, #1
 800750c:	b29b      	uxth	r3, r3
 800750e:	8013      	strh	r3, [r2, #0]
 8007510:	80e3      	strh	r3, [r4, #6]
 8007512:	4b1b      	ldr	r3, [pc, #108]	; (8007580 <find_volume+0x298>)
 8007514:	6123      	str	r3, [r4, #16]
 8007516:	4620      	mov	r0, r4
 8007518:	f7ff fd68 	bl	8006fec <clear_lock>
 800751c:	e704      	b.n	8007328 <find_volume+0x40>
 800751e:	2003      	movs	r0, #3
 8007520:	f108 0801 	add.w	r8, r8, #1
 8007524:	f1b8 0f04 	cmp.w	r8, #4
 8007528:	f47f af3b 	bne.w	80073a2 <find_volume+0xba>
 800752c:	2804      	cmp	r0, #4
 800752e:	d105      	bne.n	800753c <find_volume+0x254>
 8007530:	e712      	b.n	8007358 <find_volume+0x70>
 8007532:	2804      	cmp	r0, #4
 8007534:	f43f af10 	beq.w	8007358 <find_volume+0x70>
 8007538:	2801      	cmp	r0, #1
 800753a:	d901      	bls.n	8007540 <find_volume+0x258>
 800753c:	250d      	movs	r5, #13
 800753e:	e6f3      	b.n	8007328 <find_volume+0x40>
 8007540:	462f      	mov	r7, r5
 8007542:	e73a      	b.n	80073ba <find_volume+0xd2>
 8007544:	2603      	movs	r6, #3
 8007546:	e78c      	b.n	8007462 <find_volume+0x17a>
 8007548:	f1b9 0f00 	cmp.w	r9, #0
 800754c:	d0f6      	beq.n	800753c <find_volume+0x254>
 800754e:	2e02      	cmp	r6, #2
 8007550:	eb03 000e 	add.w	r0, r3, lr
 8007554:	ea4f 0342 	mov.w	r3, r2, lsl #1
 8007558:	bf1b      	ittet	ne
 800755a:	189b      	addne	r3, r3, r2
 800755c:	f002 0201 	andne.w	r2, r2, #1
 8007560:	461a      	moveq	r2, r3
 8007562:	eb02 0253 	addne.w	r2, r2, r3, lsr #1
 8007566:	e790      	b.n	800748a <find_volume+0x1a2>
 8007568:	250b      	movs	r5, #11
 800756a:	e6dd      	b.n	8007328 <find_volume+0x40>
 800756c:	250c      	movs	r5, #12
 800756e:	e6db      	b.n	8007328 <find_volume+0x40>
 8007570:	2503      	movs	r5, #3
 8007572:	e6d9      	b.n	8007328 <find_volume+0x40>
 8007574:	200024b8 	.word	0x200024b8
 8007578:	41615252 	.word	0x41615252
 800757c:	200024ec 	.word	0x200024ec
 8007580:	200024ee 	.word	0x200024ee

08007584 <put_fat>:
 8007584:	2901      	cmp	r1, #1
 8007586:	e92d 47f0 	stmdb	sp!, {r4, r5, r6, r7, r8, r9, sl, lr}
 800758a:	4605      	mov	r5, r0
 800758c:	460c      	mov	r4, r1
 800758e:	4617      	mov	r7, r2
 8007590:	f240 808b 	bls.w	80076aa <put_fat+0x126>
 8007594:	69c3      	ldr	r3, [r0, #28]
 8007596:	428b      	cmp	r3, r1
 8007598:	f240 8087 	bls.w	80076aa <put_fat+0x126>
 800759c:	7803      	ldrb	r3, [r0, #0]
 800759e:	2b02      	cmp	r3, #2
 80075a0:	d049      	beq.n	8007636 <put_fat+0xb2>
 80075a2:	2b03      	cmp	r3, #3
 80075a4:	d060      	beq.n	8007668 <put_fat+0xe4>
 80075a6:	2b01      	cmp	r3, #1
 80075a8:	d17f      	bne.n	80076aa <put_fat+0x126>
 80075aa:	eb01 0851 	add.w	r8, r1, r1, lsr #1
 80075ae:	6a81      	ldr	r1, [r0, #40]	; 0x28
 80075b0:	8983      	ldrh	r3, [r0, #12]
 80075b2:	fbb8 f3f3 	udiv	r3, r8, r3
 80075b6:	4419      	add	r1, r3
 80075b8:	f7ff fe41 	bl	800723e <move_window>
 80075bc:	4606      	mov	r6, r0
 80075be:	bb78      	cbnz	r0, 8007620 <put_fat+0x9c>
 80075c0:	89ab      	ldrh	r3, [r5, #12]
 80075c2:	fbb8 f2f3 	udiv	r2, r8, r3
 80075c6:	f105 0a38 	add.w	sl, r5, #56	; 0x38
 80075ca:	f108 0901 	add.w	r9, r8, #1
 80075ce:	fb03 8812 	mls	r8, r3, r2, r8
 80075d2:	f014 0401 	ands.w	r4, r4, #1
 80075d6:	bf1f      	itttt	ne
 80075d8:	f81a 2008 	ldrbne.w	r2, [sl, r8]
 80075dc:	013b      	lslne	r3, r7, #4
 80075de:	f003 03f0 	andne.w	r3, r3, #240	; 0xf0
 80075e2:	f002 020f 	andne.w	r2, r2, #15
 80075e6:	bf14      	ite	ne
 80075e8:	4313      	orrne	r3, r2
 80075ea:	b2fb      	uxtbeq	r3, r7
 80075ec:	f80a 3008 	strb.w	r3, [sl, r8]
 80075f0:	6aa9      	ldr	r1, [r5, #40]	; 0x28
 80075f2:	2301      	movs	r3, #1
 80075f4:	70eb      	strb	r3, [r5, #3]
 80075f6:	4628      	mov	r0, r5
 80075f8:	89ab      	ldrh	r3, [r5, #12]
 80075fa:	fbb9 f3f3 	udiv	r3, r9, r3
 80075fe:	4419      	add	r1, r3
 8007600:	f7ff fe1d 	bl	800723e <move_window>
 8007604:	4606      	mov	r6, r0
 8007606:	b958      	cbnz	r0, 8007620 <put_fat+0x9c>
 8007608:	89ab      	ldrh	r3, [r5, #12]
 800760a:	fbb9 f2f3 	udiv	r2, r9, r3
 800760e:	fb03 9912 	mls	r9, r3, r2, r9
 8007612:	b144      	cbz	r4, 8007626 <put_fat+0xa2>
 8007614:	f3c7 1707 	ubfx	r7, r7, #4, #8
 8007618:	f80a 7009 	strb.w	r7, [sl, r9]
 800761c:	2301      	movs	r3, #1
 800761e:	70eb      	strb	r3, [r5, #3]
 8007620:	4630      	mov	r0, r6
 8007622:	e8bd 87f0 	ldmia.w	sp!, {r4, r5, r6, r7, r8, r9, sl, pc}
 8007626:	f81a 3009 	ldrb.w	r3, [sl, r9]
 800762a:	f3c7 2703 	ubfx	r7, r7, #8, #4
 800762e:	f023 030f 	bic.w	r3, r3, #15
 8007632:	431f      	orrs	r7, r3
 8007634:	e7f0      	b.n	8007618 <put_fat+0x94>
 8007636:	8983      	ldrh	r3, [r0, #12]
 8007638:	085b      	lsrs	r3, r3, #1
 800763a:	fbb1 f3f3 	udiv	r3, r1, r3
 800763e:	6a81      	ldr	r1, [r0, #40]	; 0x28
 8007640:	4419      	add	r1, r3
 8007642:	f7ff fdfc 	bl	800723e <move_window>
 8007646:	4606      	mov	r6, r0
 8007648:	2800      	cmp	r0, #0
 800764a:	d1e9      	bne.n	8007620 <put_fat+0x9c>
 800764c:	89aa      	ldrh	r2, [r5, #12]
 800764e:	0064      	lsls	r4, r4, #1
 8007650:	f105 0338 	add.w	r3, r5, #56	; 0x38
 8007654:	fbb4 f1f2 	udiv	r1, r4, r2
 8007658:	fb02 4411 	mls	r4, r2, r1, r4
 800765c:	191a      	adds	r2, r3, r4
 800765e:	551f      	strb	r7, [r3, r4]
 8007660:	f3c7 2707 	ubfx	r7, r7, #8, #8
 8007664:	7057      	strb	r7, [r2, #1]
 8007666:	e7d9      	b.n	800761c <put_fat+0x98>
 8007668:	8983      	ldrh	r3, [r0, #12]
 800766a:	089b      	lsrs	r3, r3, #2
 800766c:	fbb1 f3f3 	udiv	r3, r1, r3
 8007670:	6a81      	ldr	r1, [r0, #40]	; 0x28
 8007672:	4419      	add	r1, r3
 8007674:	f7ff fde3 	bl	800723e <move_window>
 8007678:	4606      	mov	r6, r0
 800767a:	2800      	cmp	r0, #0
 800767c:	d1d0      	bne.n	8007620 <put_fat+0x9c>
 800767e:	89aa      	ldrh	r2, [r5, #12]
 8007680:	00a4      	lsls	r4, r4, #2
 8007682:	f105 0338 	add.w	r3, r5, #56	; 0x38
 8007686:	fbb4 f1f2 	udiv	r1, r4, r2
 800768a:	fb02 4411 	mls	r4, r2, r1, r4
 800768e:	4423      	add	r3, r4
 8007690:	4618      	mov	r0, r3
 8007692:	f7ff fc0f 	bl	8006eb4 <ld_dword>
 8007696:	f027 4770 	bic.w	r7, r7, #4026531840	; 0xf0000000
 800769a:	f000 4070 	and.w	r0, r0, #4026531840	; 0xf0000000
 800769e:	ea47 0100 	orr.w	r1, r7, r0
 80076a2:	4618      	mov	r0, r3
 80076a4:	f7ff fc08 	bl	8006eb8 <st_dword>
 80076a8:	e7b8      	b.n	800761c <put_fat+0x98>
 80076aa:	2602      	movs	r6, #2
 80076ac:	e7b8      	b.n	8007620 <put_fat+0x9c>

080076ae <sync_fs>:
 80076ae:	b5f8      	push	{r3, r4, r5, r6, r7, lr}
 80076b0:	4604      	mov	r4, r0
 80076b2:	f7ff fdbe 	bl	8007232 <sync_window>
 80076b6:	4605      	mov	r5, r0
 80076b8:	2800      	cmp	r0, #0
 80076ba:	d141      	bne.n	8007740 <sync_fs+0x92>
 80076bc:	7823      	ldrb	r3, [r4, #0]
 80076be:	2b03      	cmp	r3, #3
 80076c0:	d136      	bne.n	8007730 <sync_fs+0x82>
 80076c2:	7927      	ldrb	r7, [r4, #4]
 80076c4:	2f01      	cmp	r7, #1
 80076c6:	d133      	bne.n	8007730 <sync_fs+0x82>
 80076c8:	f104 0638 	add.w	r6, r4, #56	; 0x38
 80076cc:	4601      	mov	r1, r0
 80076ce:	89a2      	ldrh	r2, [r4, #12]
 80076d0:	4630      	mov	r0, r6
 80076d2:	2355      	movs	r3, #85	; 0x55
 80076d4:	f7ff fbf8 	bl	8006ec8 <mem_set>
 80076d8:	f884 3236 	strb.w	r3, [r4, #566]	; 0x236
 80076dc:	23aa      	movs	r3, #170	; 0xaa
 80076de:	f884 3237 	strb.w	r3, [r4, #567]	; 0x237
 80076e2:	2352      	movs	r3, #82	; 0x52
 80076e4:	2241      	movs	r2, #65	; 0x41
 80076e6:	2172      	movs	r1, #114	; 0x72
 80076e8:	f884 3038 	strb.w	r3, [r4, #56]	; 0x38
 80076ec:	f884 3039 	strb.w	r3, [r4, #57]	; 0x39
 80076f0:	2361      	movs	r3, #97	; 0x61
 80076f2:	f884 303a 	strb.w	r3, [r4, #58]	; 0x3a
 80076f6:	f884 321f 	strb.w	r3, [r4, #543]	; 0x21f
 80076fa:	f884 203b 	strb.w	r2, [r4, #59]	; 0x3b
 80076fe:	f884 121c 	strb.w	r1, [r4, #540]	; 0x21c
 8007702:	f884 121d 	strb.w	r1, [r4, #541]	; 0x21d
 8007706:	f884 221e 	strb.w	r2, [r4, #542]	; 0x21e
 800770a:	69a1      	ldr	r1, [r4, #24]
 800770c:	f504 7008 	add.w	r0, r4, #544	; 0x220
 8007710:	f7ff fbd2 	bl	8006eb8 <st_dword>
 8007714:	6961      	ldr	r1, [r4, #20]
 8007716:	f504 7009 	add.w	r0, r4, #548	; 0x224
 800771a:	f7ff fbcd 	bl	8006eb8 <st_dword>
 800771e:	6a62      	ldr	r2, [r4, #36]	; 0x24
 8007720:	7860      	ldrb	r0, [r4, #1]
 8007722:	3201      	adds	r2, #1
 8007724:	6362      	str	r2, [r4, #52]	; 0x34
 8007726:	463b      	mov	r3, r7
 8007728:	4631      	mov	r1, r6
 800772a:	f7ff fba7 	bl	8006e7c <disk_write>
 800772e:	7125      	strb	r5, [r4, #4]
 8007730:	2200      	movs	r2, #0
 8007732:	7860      	ldrb	r0, [r4, #1]
 8007734:	4611      	mov	r1, r2
 8007736:	f7ff fbaf 	bl	8006e98 <disk_ioctl>
 800773a:	3800      	subs	r0, #0
 800773c:	bf18      	it	ne
 800773e:	2001      	movne	r0, #1
 8007740:	bdf8      	pop	{r3, r4, r5, r6, r7, pc}

08007742 <ld_clust.isra.0>:
 8007742:	2803      	cmp	r0, #3
 8007744:	8b4b      	ldrh	r3, [r1, #26]
 8007746:	bf04      	itt	eq
 8007748:	8a8a      	ldrheq	r2, [r1, #20]
 800774a:	ea43 4302 	orreq.w	r3, r3, r2, lsl #16
 800774e:	4618      	mov	r0, r3
 8007750:	4770      	bx	lr

08007752 <get_fat.isra.0>:
 8007752:	2901      	cmp	r1, #1
 8007754:	b5f8      	push	{r3, r4, r5, r6, r7, lr}
 8007756:	4607      	mov	r7, r0
 8007758:	460c      	mov	r4, r1
 800775a:	d963      	bls.n	8007824 <get_fat.isra.0+0xd2>
 800775c:	69c3      	ldr	r3, [r0, #28]
 800775e:	4299      	cmp	r1, r3
 8007760:	d260      	bcs.n	8007824 <get_fat.isra.0+0xd2>
 8007762:	7803      	ldrb	r3, [r0, #0]
 8007764:	2b02      	cmp	r3, #2
 8007766:	d032      	beq.n	80077ce <get_fat.isra.0+0x7c>
 8007768:	2b03      	cmp	r3, #3
 800776a:	d043      	beq.n	80077f4 <get_fat.isra.0+0xa2>
 800776c:	2b01      	cmp	r3, #1
 800776e:	d159      	bne.n	8007824 <get_fat.isra.0+0xd2>
 8007770:	eb01 0551 	add.w	r5, r1, r1, lsr #1
 8007774:	6a81      	ldr	r1, [r0, #40]	; 0x28
 8007776:	8983      	ldrh	r3, [r0, #12]
 8007778:	fbb5 f3f3 	udiv	r3, r5, r3
 800777c:	4419      	add	r1, r3
 800777e:	f7ff fd5e 	bl	800723e <move_window>
 8007782:	b110      	cbz	r0, 800778a <get_fat.isra.0+0x38>
 8007784:	f04f 30ff 	mov.w	r0, #4294967295
 8007788:	bdf8      	pop	{r3, r4, r5, r6, r7, pc}
 800778a:	89b9      	ldrh	r1, [r7, #12]
 800778c:	fbb5 f3f1 	udiv	r3, r5, r1
 8007790:	1c6e      	adds	r6, r5, #1
 8007792:	fb01 5513 	mls	r5, r1, r3, r5
 8007796:	6abb      	ldr	r3, [r7, #40]	; 0x28
 8007798:	fbb6 f1f1 	udiv	r1, r6, r1
 800779c:	443d      	add	r5, r7
 800779e:	4419      	add	r1, r3
 80077a0:	4638      	mov	r0, r7
 80077a2:	f895 5038 	ldrb.w	r5, [r5, #56]	; 0x38
 80077a6:	f7ff fd4a 	bl	800723e <move_window>
 80077aa:	2800      	cmp	r0, #0
 80077ac:	d1ea      	bne.n	8007784 <get_fat.isra.0+0x32>
 80077ae:	89bb      	ldrh	r3, [r7, #12]
 80077b0:	fbb6 f2f3 	udiv	r2, r6, r3
 80077b4:	fb03 6612 	mls	r6, r3, r2, r6
 80077b8:	19b8      	adds	r0, r7, r6
 80077ba:	f890 3038 	ldrb.w	r3, [r0, #56]	; 0x38
 80077be:	ea45 2003 	orr.w	r0, r5, r3, lsl #8
 80077c2:	07e3      	lsls	r3, r4, #31
 80077c4:	bf4c      	ite	mi
 80077c6:	0900      	lsrmi	r0, r0, #4
 80077c8:	f3c0 000b 	ubfxpl	r0, r0, #0, #12
 80077cc:	e7dc      	b.n	8007788 <get_fat.isra.0+0x36>
 80077ce:	8983      	ldrh	r3, [r0, #12]
 80077d0:	085b      	lsrs	r3, r3, #1
 80077d2:	fbb1 f3f3 	udiv	r3, r1, r3
 80077d6:	6a81      	ldr	r1, [r0, #40]	; 0x28
 80077d8:	4419      	add	r1, r3
 80077da:	f7ff fd30 	bl	800723e <move_window>
 80077de:	2800      	cmp	r0, #0
 80077e0:	d1d0      	bne.n	8007784 <get_fat.isra.0+0x32>
 80077e2:	89bb      	ldrh	r3, [r7, #12]
 80077e4:	0064      	lsls	r4, r4, #1
 80077e6:	fbb4 f2f3 	udiv	r2, r4, r3
 80077ea:	fb03 4412 	mls	r4, r3, r2, r4
 80077ee:	1938      	adds	r0, r7, r4
 80077f0:	8f00      	ldrh	r0, [r0, #56]	; 0x38
 80077f2:	e7c9      	b.n	8007788 <get_fat.isra.0+0x36>
 80077f4:	8983      	ldrh	r3, [r0, #12]
 80077f6:	089b      	lsrs	r3, r3, #2
 80077f8:	fbb1 f3f3 	udiv	r3, r1, r3
 80077fc:	6a81      	ldr	r1, [r0, #40]	; 0x28
 80077fe:	4419      	add	r1, r3
 8007800:	f7ff fd1d 	bl	800723e <move_window>
 8007804:	2800      	cmp	r0, #0
 8007806:	d1bd      	bne.n	8007784 <get_fat.isra.0+0x32>
 8007808:	89bb      	ldrh	r3, [r7, #12]
 800780a:	00a4      	lsls	r4, r4, #2
 800780c:	f107 0038 	add.w	r0, r7, #56	; 0x38
 8007810:	fbb4 f2f3 	udiv	r2, r4, r3
 8007814:	fb03 4412 	mls	r4, r3, r2, r4
 8007818:	4420      	add	r0, r4
 800781a:	f7ff fb4b 	bl	8006eb4 <ld_dword>
 800781e:	f020 4070 	bic.w	r0, r0, #4026531840	; 0xf0000000
 8007822:	e7b1      	b.n	8007788 <get_fat.isra.0+0x36>
 8007824:	2001      	movs	r0, #1
 8007826:	e7af      	b.n	8007788 <get_fat.isra.0+0x36>

08007828 <remove_chain>:
 8007828:	b573      	push	{r0, r1, r4, r5, r6, lr}
 800782a:	460c      	mov	r4, r1
 800782c:	2c01      	cmp	r4, #1
 800782e:	6805      	ldr	r5, [r0, #0]
 8007830:	4606      	mov	r6, r0
 8007832:	4611      	mov	r1, r2
 8007834:	d92c      	bls.n	8007890 <remove_chain+0x68>
 8007836:	69eb      	ldr	r3, [r5, #28]
 8007838:	42a3      	cmp	r3, r4
 800783a:	d929      	bls.n	8007890 <remove_chain+0x68>
 800783c:	b12a      	cbz	r2, 800784a <remove_chain+0x22>
 800783e:	f04f 32ff 	mov.w	r2, #4294967295
 8007842:	4628      	mov	r0, r5
 8007844:	f7ff fe9e 	bl	8007584 <put_fat>
 8007848:	b940      	cbnz	r0, 800785c <remove_chain+0x34>
 800784a:	4621      	mov	r1, r4
 800784c:	6830      	ldr	r0, [r6, #0]
 800784e:	9401      	str	r4, [sp, #4]
 8007850:	f7ff ff7f 	bl	8007752 <get_fat.isra.0>
 8007854:	9901      	ldr	r1, [sp, #4]
 8007856:	4604      	mov	r4, r0
 8007858:	b910      	cbnz	r0, 8007860 <remove_chain+0x38>
 800785a:	2000      	movs	r0, #0
 800785c:	b002      	add	sp, #8
 800785e:	bd70      	pop	{r4, r5, r6, pc}
 8007860:	2801      	cmp	r0, #1
 8007862:	d015      	beq.n	8007890 <remove_chain+0x68>
 8007864:	1c43      	adds	r3, r0, #1
 8007866:	d015      	beq.n	8007894 <remove_chain+0x6c>
 8007868:	2200      	movs	r2, #0
 800786a:	4628      	mov	r0, r5
 800786c:	f7ff fe8a 	bl	8007584 <put_fat>
 8007870:	2800      	cmp	r0, #0
 8007872:	d1f3      	bne.n	800785c <remove_chain+0x34>
 8007874:	e9d5 3206 	ldrd	r3, r2, [r5, #24]
 8007878:	1e91      	subs	r1, r2, #2
 800787a:	428b      	cmp	r3, r1
 800787c:	d205      	bcs.n	800788a <remove_chain+0x62>
 800787e:	3301      	adds	r3, #1
 8007880:	61ab      	str	r3, [r5, #24]
 8007882:	792b      	ldrb	r3, [r5, #4]
 8007884:	f043 0301 	orr.w	r3, r3, #1
 8007888:	712b      	strb	r3, [r5, #4]
 800788a:	42a2      	cmp	r2, r4
 800788c:	d8dd      	bhi.n	800784a <remove_chain+0x22>
 800788e:	e7e4      	b.n	800785a <remove_chain+0x32>
 8007890:	2002      	movs	r0, #2
 8007892:	e7e3      	b.n	800785c <remove_chain+0x34>
 8007894:	2001      	movs	r0, #1
 8007896:	e7e1      	b.n	800785c <remove_chain+0x34>

08007898 <create_chain>:
 8007898:	e92d 41f0 	stmdb	sp!, {r4, r5, r6, r7, r8, lr}
 800789c:	6805      	ldr	r5, [r0, #0]
 800789e:	4680      	mov	r8, r0
 80078a0:	460f      	mov	r7, r1
 80078a2:	b971      	cbnz	r1, 80078c2 <create_chain+0x2a>
 80078a4:	696e      	ldr	r6, [r5, #20]
 80078a6:	b1ee      	cbz	r6, 80078e4 <create_chain+0x4c>
 80078a8:	69eb      	ldr	r3, [r5, #28]
 80078aa:	42b3      	cmp	r3, r6
 80078ac:	bf98      	it	ls
 80078ae:	2601      	movls	r6, #1
 80078b0:	4634      	mov	r4, r6
 80078b2:	69eb      	ldr	r3, [r5, #28]
 80078b4:	3401      	adds	r4, #1
 80078b6:	42a3      	cmp	r3, r4
 80078b8:	d817      	bhi.n	80078ea <create_chain+0x52>
 80078ba:	2e01      	cmp	r6, #1
 80078bc:	d114      	bne.n	80078e8 <create_chain+0x50>
 80078be:	2400      	movs	r4, #0
 80078c0:	e006      	b.n	80078d0 <create_chain+0x38>
 80078c2:	4628      	mov	r0, r5
 80078c4:	f7ff ff45 	bl	8007752 <get_fat.isra.0>
 80078c8:	2801      	cmp	r0, #1
 80078ca:	4604      	mov	r4, r0
 80078cc:	d803      	bhi.n	80078d6 <create_chain+0x3e>
 80078ce:	2401      	movs	r4, #1
 80078d0:	4620      	mov	r0, r4
 80078d2:	e8bd 81f0 	ldmia.w	sp!, {r4, r5, r6, r7, r8, pc}
 80078d6:	1c43      	adds	r3, r0, #1
 80078d8:	d030      	beq.n	800793c <create_chain+0xa4>
 80078da:	69eb      	ldr	r3, [r5, #28]
 80078dc:	4283      	cmp	r3, r0
 80078de:	d8f7      	bhi.n	80078d0 <create_chain+0x38>
 80078e0:	463e      	mov	r6, r7
 80078e2:	e7e5      	b.n	80078b0 <create_chain+0x18>
 80078e4:	2601      	movs	r6, #1
 80078e6:	e7e3      	b.n	80078b0 <create_chain+0x18>
 80078e8:	2402      	movs	r4, #2
 80078ea:	f8d8 0000 	ldr.w	r0, [r8]
 80078ee:	4621      	mov	r1, r4
 80078f0:	f7ff ff2f 	bl	8007752 <get_fat.isra.0>
 80078f4:	b130      	cbz	r0, 8007904 <create_chain+0x6c>
 80078f6:	2801      	cmp	r0, #1
 80078f8:	d0e9      	beq.n	80078ce <create_chain+0x36>
 80078fa:	3001      	adds	r0, #1
 80078fc:	d01e      	beq.n	800793c <create_chain+0xa4>
 80078fe:	42b4      	cmp	r4, r6
 8007900:	d1d7      	bne.n	80078b2 <create_chain+0x1a>
 8007902:	e7dc      	b.n	80078be <create_chain+0x26>
 8007904:	f04f 32ff 	mov.w	r2, #4294967295
 8007908:	4621      	mov	r1, r4
 800790a:	4628      	mov	r0, r5
 800790c:	f7ff fe3a 	bl	8007584 <put_fat>
 8007910:	b990      	cbnz	r0, 8007938 <create_chain+0xa0>
 8007912:	b957      	cbnz	r7, 800792a <create_chain+0x92>
 8007914:	e9d5 3206 	ldrd	r3, r2, [r5, #24]
 8007918:	3a02      	subs	r2, #2
 800791a:	4293      	cmp	r3, r2
 800791c:	616c      	str	r4, [r5, #20]
 800791e:	d910      	bls.n	8007942 <create_chain+0xaa>
 8007920:	792b      	ldrb	r3, [r5, #4]
 8007922:	f043 0301 	orr.w	r3, r3, #1
 8007926:	712b      	strb	r3, [r5, #4]
 8007928:	e7d2      	b.n	80078d0 <create_chain+0x38>
 800792a:	4622      	mov	r2, r4
 800792c:	4639      	mov	r1, r7
 800792e:	4628      	mov	r0, r5
 8007930:	f7ff fe28 	bl	8007584 <put_fat>
 8007934:	2800      	cmp	r0, #0
 8007936:	d0ed      	beq.n	8007914 <create_chain+0x7c>
 8007938:	2801      	cmp	r0, #1
 800793a:	d1c8      	bne.n	80078ce <create_chain+0x36>
 800793c:	f04f 34ff 	mov.w	r4, #4294967295
 8007940:	e7c6      	b.n	80078d0 <create_chain+0x38>
 8007942:	3b01      	subs	r3, #1
 8007944:	61ab      	str	r3, [r5, #24]
 8007946:	e7eb      	b.n	8007920 <create_chain+0x88>

08007948 <dir_sdi>:
 8007948:	f5b1 1f00 	cmp.w	r1, #2097152	; 0x200000
 800794c:	b5f8      	push	{r3, r4, r5, r6, r7, lr}
 800794e:	6804      	ldr	r4, [r0, #0]
 8007950:	4606      	mov	r6, r0
 8007952:	460d      	mov	r5, r1
 8007954:	d301      	bcc.n	800795a <dir_sdi+0x12>
 8007956:	2002      	movs	r0, #2
 8007958:	bdf8      	pop	{r3, r4, r5, r6, r7, pc}
 800795a:	06ca      	lsls	r2, r1, #27
 800795c:	d1fb      	bne.n	8007956 <dir_sdi+0xe>
 800795e:	6882      	ldr	r2, [r0, #8]
 8007960:	6141      	str	r1, [r0, #20]
 8007962:	b9ca      	cbnz	r2, 8007998 <dir_sdi+0x50>
 8007964:	7823      	ldrb	r3, [r4, #0]
 8007966:	2b02      	cmp	r3, #2
 8007968:	d901      	bls.n	800796e <dir_sdi+0x26>
 800796a:	6ae3      	ldr	r3, [r4, #44]	; 0x2c
 800796c:	b9ab      	cbnz	r3, 800799a <dir_sdi+0x52>
 800796e:	8923      	ldrh	r3, [r4, #8]
 8007970:	ebb3 1f55 	cmp.w	r3, r5, lsr #5
 8007974:	d9ef      	bls.n	8007956 <dir_sdi+0xe>
 8007976:	6ae0      	ldr	r0, [r4, #44]	; 0x2c
 8007978:	e9c6 2006 	strd	r2, r0, [r6, #24]
 800797c:	2800      	cmp	r0, #0
 800797e:	d0ea      	beq.n	8007956 <dir_sdi+0xe>
 8007980:	89a2      	ldrh	r2, [r4, #12]
 8007982:	fbb5 f3f2 	udiv	r3, r5, r2
 8007986:	3438      	adds	r4, #56	; 0x38
 8007988:	fb02 5513 	mls	r5, r2, r3, r5
 800798c:	4418      	add	r0, r3
 800798e:	442c      	add	r4, r5
 8007990:	61f0      	str	r0, [r6, #28]
 8007992:	6234      	str	r4, [r6, #32]
 8007994:	2000      	movs	r0, #0
 8007996:	e7df      	b.n	8007958 <dir_sdi+0x10>
 8007998:	4613      	mov	r3, r2
 800799a:	89a2      	ldrh	r2, [r4, #12]
 800799c:	8967      	ldrh	r7, [r4, #10]
 800799e:	4357      	muls	r7, r2
 80079a0:	461a      	mov	r2, r3
 80079a2:	42bd      	cmp	r5, r7
 80079a4:	4611      	mov	r1, r2
 80079a6:	d203      	bcs.n	80079b0 <dir_sdi+0x68>
 80079a8:	4620      	mov	r0, r4
 80079aa:	f7ff fb33 	bl	8007014 <clust2sect>
 80079ae:	e7e3      	b.n	8007978 <dir_sdi+0x30>
 80079b0:	6830      	ldr	r0, [r6, #0]
 80079b2:	f7ff fece 	bl	8007752 <get_fat.isra.0>
 80079b6:	1c43      	adds	r3, r0, #1
 80079b8:	4602      	mov	r2, r0
 80079ba:	d006      	beq.n	80079ca <dir_sdi+0x82>
 80079bc:	2801      	cmp	r0, #1
 80079be:	d9ca      	bls.n	8007956 <dir_sdi+0xe>
 80079c0:	69e3      	ldr	r3, [r4, #28]
 80079c2:	4283      	cmp	r3, r0
 80079c4:	d9c7      	bls.n	8007956 <dir_sdi+0xe>
 80079c6:	1bed      	subs	r5, r5, r7
 80079c8:	e7eb      	b.n	80079a2 <dir_sdi+0x5a>
 80079ca:	2001      	movs	r0, #1
 80079cc:	e7c4      	b.n	8007958 <dir_sdi+0x10>

080079ce <dir_next>:
 80079ce:	e92d 43f8 	stmdb	sp!, {r3, r4, r5, r6, r7, r8, r9, lr}
 80079d2:	6947      	ldr	r7, [r0, #20]
 80079d4:	69c3      	ldr	r3, [r0, #28]
 80079d6:	4605      	mov	r5, r0
 80079d8:	4689      	mov	r9, r1
 80079da:	3720      	adds	r7, #32
 80079dc:	b1a3      	cbz	r3, 8007a08 <dir_next+0x3a>
 80079de:	f5b7 1f00 	cmp.w	r7, #2097152	; 0x200000
 80079e2:	d211      	bcs.n	8007a08 <dir_next+0x3a>
 80079e4:	6804      	ldr	r4, [r0, #0]
 80079e6:	89a2      	ldrh	r2, [r4, #12]
 80079e8:	fbb7 f0f2 	udiv	r0, r7, r2
 80079ec:	fb02 7210 	mls	r2, r2, r0, r7
 80079f0:	2a00      	cmp	r2, #0
 80079f2:	d14e      	bne.n	8007a92 <dir_next+0xc4>
 80079f4:	69a9      	ldr	r1, [r5, #24]
 80079f6:	3301      	adds	r3, #1
 80079f8:	61eb      	str	r3, [r5, #28]
 80079fa:	b939      	cbnz	r1, 8007a0c <dir_next+0x3e>
 80079fc:	8923      	ldrh	r3, [r4, #8]
 80079fe:	ebb3 1f57 	cmp.w	r3, r7, lsr #5
 8007a02:	d846      	bhi.n	8007a92 <dir_next+0xc4>
 8007a04:	2300      	movs	r3, #0
 8007a06:	61eb      	str	r3, [r5, #28]
 8007a08:	2004      	movs	r0, #4
 8007a0a:	e00d      	b.n	8007a28 <dir_next+0x5a>
 8007a0c:	f8b4 800a 	ldrh.w	r8, [r4, #10]
 8007a10:	f108 38ff 	add.w	r8, r8, #4294967295
 8007a14:	ea18 0800 	ands.w	r8, r8, r0
 8007a18:	d13b      	bne.n	8007a92 <dir_next+0xc4>
 8007a1a:	4620      	mov	r0, r4
 8007a1c:	f7ff fe99 	bl	8007752 <get_fat.isra.0>
 8007a20:	2801      	cmp	r0, #1
 8007a22:	4606      	mov	r6, r0
 8007a24:	d802      	bhi.n	8007a2c <dir_next+0x5e>
 8007a26:	2002      	movs	r0, #2
 8007a28:	e8bd 83f8 	ldmia.w	sp!, {r3, r4, r5, r6, r7, r8, r9, pc}
 8007a2c:	1c42      	adds	r2, r0, #1
 8007a2e:	d101      	bne.n	8007a34 <dir_next+0x66>
 8007a30:	2001      	movs	r0, #1
 8007a32:	e7f9      	b.n	8007a28 <dir_next+0x5a>
 8007a34:	69e3      	ldr	r3, [r4, #28]
 8007a36:	4283      	cmp	r3, r0
 8007a38:	d825      	bhi.n	8007a86 <dir_next+0xb8>
 8007a3a:	f1b9 0f00 	cmp.w	r9, #0
 8007a3e:	d0e1      	beq.n	8007a04 <dir_next+0x36>
 8007a40:	69a9      	ldr	r1, [r5, #24]
 8007a42:	4628      	mov	r0, r5
 8007a44:	f7ff ff28 	bl	8007898 <create_chain>
 8007a48:	4606      	mov	r6, r0
 8007a4a:	2800      	cmp	r0, #0
 8007a4c:	d039      	beq.n	8007ac2 <dir_next+0xf4>
 8007a4e:	2801      	cmp	r0, #1
 8007a50:	d0e9      	beq.n	8007a26 <dir_next+0x58>
 8007a52:	1c43      	adds	r3, r0, #1
 8007a54:	d0ec      	beq.n	8007a30 <dir_next+0x62>
 8007a56:	4620      	mov	r0, r4
 8007a58:	f7ff fbeb 	bl	8007232 <sync_window>
 8007a5c:	4601      	mov	r1, r0
 8007a5e:	2800      	cmp	r0, #0
 8007a60:	d1e6      	bne.n	8007a30 <dir_next+0x62>
 8007a62:	f104 0038 	add.w	r0, r4, #56	; 0x38
 8007a66:	89a2      	ldrh	r2, [r4, #12]
 8007a68:	f7ff fa2e 	bl	8006ec8 <mem_set>
 8007a6c:	4631      	mov	r1, r6
 8007a6e:	4620      	mov	r0, r4
 8007a70:	f7ff fad0 	bl	8007014 <clust2sect>
 8007a74:	f04f 0901 	mov.w	r9, #1
 8007a78:	8963      	ldrh	r3, [r4, #10]
 8007a7a:	6360      	str	r0, [r4, #52]	; 0x34
 8007a7c:	4598      	cmp	r8, r3
 8007a7e:	d314      	bcc.n	8007aaa <dir_next+0xdc>
 8007a80:	eba0 0008 	sub.w	r0, r0, r8
 8007a84:	6360      	str	r0, [r4, #52]	; 0x34
 8007a86:	61ae      	str	r6, [r5, #24]
 8007a88:	4631      	mov	r1, r6
 8007a8a:	4620      	mov	r0, r4
 8007a8c:	f7ff fac2 	bl	8007014 <clust2sect>
 8007a90:	61e8      	str	r0, [r5, #28]
 8007a92:	89a2      	ldrh	r2, [r4, #12]
 8007a94:	616f      	str	r7, [r5, #20]
 8007a96:	f104 0338 	add.w	r3, r4, #56	; 0x38
 8007a9a:	fbb7 f1f2 	udiv	r1, r7, r2
 8007a9e:	fb02 7711 	mls	r7, r2, r1, r7
 8007aa2:	443b      	add	r3, r7
 8007aa4:	622b      	str	r3, [r5, #32]
 8007aa6:	2000      	movs	r0, #0
 8007aa8:	e7be      	b.n	8007a28 <dir_next+0x5a>
 8007aaa:	f884 9003 	strb.w	r9, [r4, #3]
 8007aae:	4620      	mov	r0, r4
 8007ab0:	f7ff fb99 	bl	80071e6 <sync_window.part.0>
 8007ab4:	2800      	cmp	r0, #0
 8007ab6:	d1bb      	bne.n	8007a30 <dir_next+0x62>
 8007ab8:	6b60      	ldr	r0, [r4, #52]	; 0x34
 8007aba:	f108 0801 	add.w	r8, r8, #1
 8007abe:	3001      	adds	r0, #1
 8007ac0:	e7da      	b.n	8007a78 <dir_next+0xaa>
 8007ac2:	2007      	movs	r0, #7
 8007ac4:	e7b0      	b.n	8007a28 <dir_next+0x5a>
	...

08007ac8 <dir_find>:
 8007ac8:	e92d 4ff0 	stmdb	sp!, {r4, r5, r6, r7, r8, r9, sl, fp, lr}
 8007acc:	2100      	movs	r1, #0
 8007ace:	b085      	sub	sp, #20
 8007ad0:	f8d0 b000 	ldr.w	fp, [r0]
 8007ad4:	4604      	mov	r4, r0
 8007ad6:	f7ff ff37 	bl	8007948 <dir_sdi>
 8007ada:	4606      	mov	r6, r0
 8007adc:	2800      	cmp	r0, #0
 8007ade:	f040 8098 	bne.w	8007c12 <dir_find+0x14a>
 8007ae2:	f04f 3aff 	mov.w	sl, #4294967295
 8007ae6:	f04f 08ff 	mov.w	r8, #255	; 0xff
 8007aea:	f8c4 a030 	str.w	sl, [r4, #48]	; 0x30
 8007aee:	46c1      	mov	r9, r8
 8007af0:	69e1      	ldr	r1, [r4, #28]
 8007af2:	4658      	mov	r0, fp
 8007af4:	f7ff fba3 	bl	800723e <move_window>
 8007af8:	4606      	mov	r6, r0
 8007afa:	2800      	cmp	r0, #0
 8007afc:	f040 8089 	bne.w	8007c12 <dir_find+0x14a>
 8007b00:	6a25      	ldr	r5, [r4, #32]
 8007b02:	782f      	ldrb	r7, [r5, #0]
 8007b04:	2f00      	cmp	r7, #0
 8007b06:	f000 8088 	beq.w	8007c1a <dir_find+0x152>
 8007b0a:	7aea      	ldrb	r2, [r5, #11]
 8007b0c:	2fe5      	cmp	r7, #229	; 0xe5
 8007b0e:	f002 033f 	and.w	r3, r2, #63	; 0x3f
 8007b12:	71a3      	strb	r3, [r4, #6]
 8007b14:	d003      	beq.n	8007b1e <dir_find+0x56>
 8007b16:	0710      	lsls	r0, r2, #28
 8007b18:	d504      	bpl.n	8007b24 <dir_find+0x5c>
 8007b1a:	2b0f      	cmp	r3, #15
 8007b1c:	d004      	beq.n	8007b28 <dir_find+0x60>
 8007b1e:	f8c4 a030 	str.w	sl, [r4, #48]	; 0x30
 8007b22:	e050      	b.n	8007bc6 <dir_find+0xfe>
 8007b24:	2b0f      	cmp	r3, #15
 8007b26:	d156      	bne.n	8007bd6 <dir_find+0x10e>
 8007b28:	f894 302f 	ldrb.w	r3, [r4, #47]	; 0x2f
 8007b2c:	0659      	lsls	r1, r3, #25
 8007b2e:	d440      	bmi.n	8007bb2 <dir_find+0xea>
 8007b30:	067a      	lsls	r2, r7, #25
 8007b32:	d546      	bpl.n	8007bc2 <dir_find+0xfa>
 8007b34:	6963      	ldr	r3, [r4, #20]
 8007b36:	f895 800d 	ldrb.w	r8, [r5, #13]
 8007b3a:	6323      	str	r3, [r4, #48]	; 0x30
 8007b3c:	f007 07bf 	and.w	r7, r7, #191	; 0xbf
 8007b40:	7b6b      	ldrb	r3, [r5, #13]
 8007b42:	4543      	cmp	r3, r8
 8007b44:	d13f      	bne.n	8007bc6 <dir_find+0xfe>
 8007b46:	8b6b      	ldrh	r3, [r5, #26]
 8007b48:	2b00      	cmp	r3, #0
 8007b4a:	d13c      	bne.n	8007bc6 <dir_find+0xfe>
 8007b4c:	782e      	ldrb	r6, [r5, #0]
 8007b4e:	f8db 3010 	ldr.w	r3, [fp, #16]
 8007b52:	9300      	str	r3, [sp, #0]
 8007b54:	f006 063f 	and.w	r6, r6, #63	; 0x3f
 8007b58:	3e01      	subs	r6, #1
 8007b5a:	230d      	movs	r3, #13
 8007b5c:	f8df 90c4 	ldr.w	r9, [pc, #196]	; 8007c24 <dir_find+0x15c>
 8007b60:	435e      	muls	r6, r3
 8007b62:	2201      	movs	r2, #1
 8007b64:	f819 3b01 	ldrb.w	r3, [r9], #1
 8007b68:	5aeb      	ldrh	r3, [r5, r3]
 8007b6a:	b37a      	cbz	r2, 8007bcc <dir_find+0x104>
 8007b6c:	2efe      	cmp	r6, #254	; 0xfe
 8007b6e:	d82a      	bhi.n	8007bc6 <dir_find+0xfe>
 8007b70:	4618      	mov	r0, r3
 8007b72:	9303      	str	r3, [sp, #12]
 8007b74:	f000 ff4a 	bl	8008a0c <ff_wtoupper>
 8007b78:	9b00      	ldr	r3, [sp, #0]
 8007b7a:	9002      	str	r0, [sp, #8]
 8007b7c:	1c71      	adds	r1, r6, #1
 8007b7e:	f833 0016 	ldrh.w	r0, [r3, r6, lsl #1]
 8007b82:	9101      	str	r1, [sp, #4]
 8007b84:	f000 ff42 	bl	8008a0c <ff_wtoupper>
 8007b88:	9a02      	ldr	r2, [sp, #8]
 8007b8a:	4282      	cmp	r2, r0
 8007b8c:	d11b      	bne.n	8007bc6 <dir_find+0xfe>
 8007b8e:	9b03      	ldr	r3, [sp, #12]
 8007b90:	9901      	ldr	r1, [sp, #4]
 8007b92:	461a      	mov	r2, r3
 8007b94:	460e      	mov	r6, r1
 8007b96:	4b22      	ldr	r3, [pc, #136]	; (8007c20 <dir_find+0x158>)
 8007b98:	4599      	cmp	r9, r3
 8007b9a:	d1e3      	bne.n	8007b64 <dir_find+0x9c>
 8007b9c:	782b      	ldrb	r3, [r5, #0]
 8007b9e:	065b      	lsls	r3, r3, #25
 8007ba0:	d504      	bpl.n	8007bac <dir_find+0xe4>
 8007ba2:	b11a      	cbz	r2, 8007bac <dir_find+0xe4>
 8007ba4:	9b00      	ldr	r3, [sp, #0]
 8007ba6:	f833 3016 	ldrh.w	r3, [r3, r6, lsl #1]
 8007baa:	b963      	cbnz	r3, 8007bc6 <dir_find+0xfe>
 8007bac:	3f01      	subs	r7, #1
 8007bae:	fa5f f987 	uxtb.w	r9, r7
 8007bb2:	2100      	movs	r1, #0
 8007bb4:	4620      	mov	r0, r4
 8007bb6:	f7ff ff0a 	bl	80079ce <dir_next>
 8007bba:	4606      	mov	r6, r0
 8007bbc:	2800      	cmp	r0, #0
 8007bbe:	d097      	beq.n	8007af0 <dir_find+0x28>
 8007bc0:	e027      	b.n	8007c12 <dir_find+0x14a>
 8007bc2:	45b9      	cmp	r9, r7
 8007bc4:	d0bc      	beq.n	8007b40 <dir_find+0x78>
 8007bc6:	f04f 09ff 	mov.w	r9, #255	; 0xff
 8007bca:	e7f2      	b.n	8007bb2 <dir_find+0xea>
 8007bcc:	f64f 71ff 	movw	r1, #65535	; 0xffff
 8007bd0:	428b      	cmp	r3, r1
 8007bd2:	d0e0      	beq.n	8007b96 <dir_find+0xce>
 8007bd4:	e7f7      	b.n	8007bc6 <dir_find+0xfe>
 8007bd6:	f1b9 0f00 	cmp.w	r9, #0
 8007bda:	d104      	bne.n	8007be6 <dir_find+0x11e>
 8007bdc:	4628      	mov	r0, r5
 8007bde:	f7ff fa43 	bl	8007068 <sum_sfn>
 8007be2:	4540      	cmp	r0, r8
 8007be4:	d015      	beq.n	8007c12 <dir_find+0x14a>
 8007be6:	f894 602f 	ldrb.w	r6, [r4, #47]	; 0x2f
 8007bea:	f016 0601 	ands.w	r6, r6, #1
 8007bee:	d196      	bne.n	8007b1e <dir_find+0x56>
 8007bf0:	f104 0224 	add.w	r2, r4, #36	; 0x24
 8007bf4:	f105 010b 	add.w	r1, r5, #11
 8007bf8:	f815 3b01 	ldrb.w	r3, [r5], #1
 8007bfc:	f812 0b01 	ldrb.w	r0, [r2], #1
 8007c00:	428d      	cmp	r5, r1
 8007c02:	eba3 0300 	sub.w	r3, r3, r0
 8007c06:	d002      	beq.n	8007c0e <dir_find+0x146>
 8007c08:	2b00      	cmp	r3, #0
 8007c0a:	d0f5      	beq.n	8007bf8 <dir_find+0x130>
 8007c0c:	e787      	b.n	8007b1e <dir_find+0x56>
 8007c0e:	2b00      	cmp	r3, #0
 8007c10:	d185      	bne.n	8007b1e <dir_find+0x56>
 8007c12:	4630      	mov	r0, r6
 8007c14:	b005      	add	sp, #20
 8007c16:	e8bd 8ff0 	ldmia.w	sp!, {r4, r5, r6, r7, r8, r9, sl, fp, pc}
 8007c1a:	2604      	movs	r6, #4
 8007c1c:	e7f9      	b.n	8007c12 <dir_find+0x14a>
 8007c1e:	bf00      	nop
 8007c20:	0800a741 	.word	0x0800a741
 8007c24:	0800a734 	.word	0x0800a734

08007c28 <dir_register>:
 8007c28:	e92d 4ff0 	stmdb	sp!, {r4, r5, r6, r7, r8, r9, sl, fp, lr}
 8007c2c:	f890 502f 	ldrb.w	r5, [r0, #47]	; 0x2f
 8007c30:	f015 05a0 	ands.w	r5, r5, #160	; 0xa0
 8007c34:	b089      	sub	sp, #36	; 0x24
 8007c36:	4604      	mov	r4, r0
 8007c38:	f040 8090 	bne.w	8007d5c <dir_register+0x134>
 8007c3c:	6806      	ldr	r6, [r0, #0]
 8007c3e:	6932      	ldr	r2, [r6, #16]
 8007c40:	f832 3015 	ldrh.w	r3, [r2, r5, lsl #1]
 8007c44:	2b00      	cmp	r3, #0
 8007c46:	d167      	bne.n	8007d18 <dir_register+0xf0>
 8007c48:	f104 0724 	add.w	r7, r4, #36	; 0x24
 8007c4c:	220c      	movs	r2, #12
 8007c4e:	4639      	mov	r1, r7
 8007c50:	a805      	add	r0, sp, #20
 8007c52:	f7ff fabf 	bl	80071d4 <mem_cpy.part.0>
 8007c56:	f89d 301f 	ldrb.w	r3, [sp, #31]
 8007c5a:	07db      	lsls	r3, r3, #31
 8007c5c:	f140 8087 	bpl.w	8007d6e <dir_register+0x146>
 8007c60:	2340      	movs	r3, #64	; 0x40
 8007c62:	f8df 8240 	ldr.w	r8, [pc, #576]	; 8007ea4 <dir_register+0x27c>
 8007c66:	f884 302f 	strb.w	r3, [r4, #47]	; 0x2f
 8007c6a:	f04f 0a01 	mov.w	sl, #1
 8007c6e:	220b      	movs	r2, #11
 8007c70:	a905      	add	r1, sp, #20
 8007c72:	4638      	mov	r0, r7
 8007c74:	f8d6 9010 	ldr.w	r9, [r6, #16]
 8007c78:	f7ff faac 	bl	80071d4 <mem_cpy.part.0>
 8007c7c:	f1ba 0f05 	cmp.w	sl, #5
 8007c80:	d95b      	bls.n	8007d3a <dir_register+0x112>
 8007c82:	f1a9 0102 	sub.w	r1, r9, #2
 8007c86:	4653      	mov	r3, sl
 8007c88:	f831 2f02 	ldrh.w	r2, [r1, #2]!
 8007c8c:	2a00      	cmp	r2, #0
 8007c8e:	d145      	bne.n	8007d1c <dir_register+0xf4>
 8007c90:	a805      	add	r0, sp, #20
 8007c92:	2207      	movs	r2, #7
 8007c94:	f003 0c0f 	and.w	ip, r3, #15
 8007c98:	f10c 0130 	add.w	r1, ip, #48	; 0x30
 8007c9c:	2939      	cmp	r1, #57	; 0x39
 8007c9e:	bf88      	it	hi
 8007ca0:	f10c 0137 	addhi.w	r1, ip, #55	; 0x37
 8007ca4:	2b0f      	cmp	r3, #15
 8007ca6:	f800 1d01 	strb.w	r1, [r0, #-1]!
 8007caa:	f102 32ff 	add.w	r2, r2, #4294967295
 8007cae:	ea4f 1113 	mov.w	r1, r3, lsr #4
 8007cb2:	d844      	bhi.n	8007d3e <dir_register+0x116>
 8007cb4:	f102 0320 	add.w	r3, r2, #32
 8007cb8:	446b      	add	r3, sp
 8007cba:	217e      	movs	r1, #126	; 0x7e
 8007cbc:	f803 1c14 	strb.w	r1, [r3, #-20]
 8007cc0:	f104 0123 	add.w	r1, r4, #35	; 0x23
 8007cc4:	4608      	mov	r0, r1
 8007cc6:	2300      	movs	r3, #0
 8007cc8:	429a      	cmp	r2, r3
 8007cca:	d006      	beq.n	8007cda <dir_register+0xb2>
 8007ccc:	f810 cf01 	ldrb.w	ip, [r0, #1]!
 8007cd0:	f1bc 0f20 	cmp.w	ip, #32
 8007cd4:	f103 0e01 	add.w	lr, r3, #1
 8007cd8:	d133      	bne.n	8007d42 <dir_register+0x11a>
 8007cda:	2a07      	cmp	r2, #7
 8007cdc:	bf9c      	itt	ls
 8007cde:	f102 0020 	addls.w	r0, r2, #32
 8007ce2:	4468      	addls	r0, sp
 8007ce4:	f103 0301 	add.w	r3, r3, #1
 8007ce8:	bf96      	itet	ls
 8007cea:	f810 0c14 	ldrbls.w	r0, [r0, #-20]
 8007cee:	2020      	movhi	r0, #32
 8007cf0:	3201      	addls	r2, #1
 8007cf2:	2b07      	cmp	r3, #7
 8007cf4:	54c8      	strb	r0, [r1, r3]
 8007cf6:	d9f0      	bls.n	8007cda <dir_register+0xb2>
 8007cf8:	4620      	mov	r0, r4
 8007cfa:	f7ff fee5 	bl	8007ac8 <dir_find>
 8007cfe:	4681      	mov	r9, r0
 8007d00:	bb78      	cbnz	r0, 8007d62 <dir_register+0x13a>
 8007d02:	f10a 0a01 	add.w	sl, sl, #1
 8007d06:	f1ba 0f64 	cmp.w	sl, #100	; 0x64
 8007d0a:	d1b0      	bne.n	8007c6e <dir_register+0x46>
 8007d0c:	f04f 0907 	mov.w	r9, #7
 8007d10:	4648      	mov	r0, r9
 8007d12:	b009      	add	sp, #36	; 0x24
 8007d14:	e8bd 8ff0 	ldmia.w	sp!, {r4, r5, r6, r7, r8, r9, sl, fp, pc}
 8007d18:	3501      	adds	r5, #1
 8007d1a:	e791      	b.n	8007c40 <dir_register+0x18>
 8007d1c:	2010      	movs	r0, #16
 8007d1e:	f002 0c01 	and.w	ip, r2, #1
 8007d22:	eb0c 0343 	add.w	r3, ip, r3, lsl #1
 8007d26:	f413 3f80 	tst.w	r3, #65536	; 0x10000
 8007d2a:	bf18      	it	ne
 8007d2c:	ea83 0308 	eorne.w	r3, r3, r8
 8007d30:	3801      	subs	r0, #1
 8007d32:	ea4f 0252 	mov.w	r2, r2, lsr #1
 8007d36:	d1f2      	bne.n	8007d1e <dir_register+0xf6>
 8007d38:	e7a6      	b.n	8007c88 <dir_register+0x60>
 8007d3a:	4653      	mov	r3, sl
 8007d3c:	e7a8      	b.n	8007c90 <dir_register+0x68>
 8007d3e:	460b      	mov	r3, r1
 8007d40:	e7a8      	b.n	8007c94 <dir_register+0x6c>
 8007d42:	4673      	mov	r3, lr
 8007d44:	e7c0      	b.n	8007cc8 <dir_register+0xa0>
 8007d46:	4680      	mov	r8, r0
 8007d48:	2101      	movs	r1, #1
 8007d4a:	4620      	mov	r0, r4
 8007d4c:	f7ff fe3f 	bl	80079ce <dir_next>
 8007d50:	4681      	mov	r9, r0
 8007d52:	b310      	cbz	r0, 8007d9a <dir_register+0x172>
 8007d54:	f1b9 0f04 	cmp.w	r9, #4
 8007d58:	d0d8      	beq.n	8007d0c <dir_register+0xe4>
 8007d5a:	e7d9      	b.n	8007d10 <dir_register+0xe8>
 8007d5c:	f04f 0906 	mov.w	r9, #6
 8007d60:	e7d6      	b.n	8007d10 <dir_register+0xe8>
 8007d62:	2804      	cmp	r0, #4
 8007d64:	d1d4      	bne.n	8007d10 <dir_register+0xe8>
 8007d66:	f89d 301f 	ldrb.w	r3, [sp, #31]
 8007d6a:	f884 302f 	strb.w	r3, [r4, #47]	; 0x2f
 8007d6e:	f89d 301f 	ldrb.w	r3, [sp, #31]
 8007d72:	f8d4 a000 	ldr.w	sl, [r4]
 8007d76:	079b      	lsls	r3, r3, #30
 8007d78:	bf48      	it	mi
 8007d7a:	350c      	addmi	r5, #12
 8007d7c:	f04f 0100 	mov.w	r1, #0
 8007d80:	4620      	mov	r0, r4
 8007d82:	bf49      	itett	mi
 8007d84:	230d      	movmi	r3, #13
 8007d86:	2501      	movpl	r5, #1
 8007d88:	fbb5 f5f3 	udivmi	r5, r5, r3
 8007d8c:	3501      	addmi	r5, #1
 8007d8e:	f7ff fddb 	bl	8007948 <dir_sdi>
 8007d92:	4681      	mov	r9, r0
 8007d94:	2800      	cmp	r0, #0
 8007d96:	d1dd      	bne.n	8007d54 <dir_register+0x12c>
 8007d98:	4680      	mov	r8, r0
 8007d9a:	69e1      	ldr	r1, [r4, #28]
 8007d9c:	4650      	mov	r0, sl
 8007d9e:	f7ff fa4e 	bl	800723e <move_window>
 8007da2:	4681      	mov	r9, r0
 8007da4:	2800      	cmp	r0, #0
 8007da6:	d1d5      	bne.n	8007d54 <dir_register+0x12c>
 8007da8:	6a23      	ldr	r3, [r4, #32]
 8007daa:	781b      	ldrb	r3, [r3, #0]
 8007dac:	2be5      	cmp	r3, #229	; 0xe5
 8007dae:	d001      	beq.n	8007db4 <dir_register+0x18c>
 8007db0:	2b00      	cmp	r3, #0
 8007db2:	d1c8      	bne.n	8007d46 <dir_register+0x11e>
 8007db4:	f108 0801 	add.w	r8, r8, #1
 8007db8:	4545      	cmp	r5, r8
 8007dba:	d1c5      	bne.n	8007d48 <dir_register+0x120>
 8007dbc:	3d01      	subs	r5, #1
 8007dbe:	d055      	beq.n	8007e6c <dir_register+0x244>
 8007dc0:	6961      	ldr	r1, [r4, #20]
 8007dc2:	4620      	mov	r0, r4
 8007dc4:	eba1 1145 	sub.w	r1, r1, r5, lsl #5
 8007dc8:	f7ff fdbe 	bl	8007948 <dir_sdi>
 8007dcc:	4681      	mov	r9, r0
 8007dce:	2800      	cmp	r0, #0
 8007dd0:	d19e      	bne.n	8007d10 <dir_register+0xe8>
 8007dd2:	4638      	mov	r0, r7
 8007dd4:	f7ff f948 	bl	8007068 <sum_sfn>
 8007dd8:	f64f 78ff 	movw	r8, #65535	; 0xffff
 8007ddc:	9001      	str	r0, [sp, #4]
 8007dde:	69e1      	ldr	r1, [r4, #28]
 8007de0:	4630      	mov	r0, r6
 8007de2:	f7ff fa2c 	bl	800723e <move_window>
 8007de6:	4681      	mov	r9, r0
 8007de8:	2800      	cmp	r0, #0
 8007dea:	d191      	bne.n	8007d10 <dir_register+0xe8>
 8007dec:	6a23      	ldr	r3, [r4, #32]
 8007dee:	9a01      	ldr	r2, [sp, #4]
 8007df0:	f8d6 e010 	ldr.w	lr, [r6, #16]
 8007df4:	735a      	strb	r2, [r3, #13]
 8007df6:	b2e9      	uxtb	r1, r5
 8007df8:	f04f 020f 	mov.w	r2, #15
 8007dfc:	f04f 0c0d 	mov.w	ip, #13
 8007e00:	72da      	strb	r2, [r3, #11]
 8007e02:	f8df a0a4 	ldr.w	sl, [pc, #164]	; 8007ea8 <dir_register+0x280>
 8007e06:	7318      	strb	r0, [r3, #12]
 8007e08:	1e4a      	subs	r2, r1, #1
 8007e0a:	fb0c f202 	mul.w	r2, ip, r2
 8007e0e:	7698      	strb	r0, [r3, #26]
 8007e10:	76d8      	strb	r0, [r3, #27]
 8007e12:	4684      	mov	ip, r0
 8007e14:	f81a 9b01 	ldrb.w	r9, [sl], #1
 8007e18:	4540      	cmp	r0, r8
 8007e1a:	bf18      	it	ne
 8007e1c:	f83e 0012 	ldrhne.w	r0, [lr, r2, lsl #1]
 8007e20:	f803 0009 	strb.w	r0, [r3, r9]
 8007e24:	eb03 0b09 	add.w	fp, r3, r9
 8007e28:	f10c 0c01 	add.w	ip, ip, #1
 8007e2c:	bf18      	it	ne
 8007e2e:	3201      	addne	r2, #1
 8007e30:	ea4f 2910 	mov.w	r9, r0, lsr #8
 8007e34:	2800      	cmp	r0, #0
 8007e36:	bf08      	it	eq
 8007e38:	4640      	moveq	r0, r8
 8007e3a:	f1bc 0f0d 	cmp.w	ip, #13
 8007e3e:	f88b 9001 	strb.w	r9, [fp, #1]
 8007e42:	d1e7      	bne.n	8007e14 <dir_register+0x1ec>
 8007e44:	4540      	cmp	r0, r8
 8007e46:	d002      	beq.n	8007e4e <dir_register+0x226>
 8007e48:	f83e 2012 	ldrh.w	r2, [lr, r2, lsl #1]
 8007e4c:	b90a      	cbnz	r2, 8007e52 <dir_register+0x22a>
 8007e4e:	f041 0140 	orr.w	r1, r1, #64	; 0x40
 8007e52:	7019      	strb	r1, [r3, #0]
 8007e54:	2301      	movs	r3, #1
 8007e56:	70f3      	strb	r3, [r6, #3]
 8007e58:	2100      	movs	r1, #0
 8007e5a:	4620      	mov	r0, r4
 8007e5c:	f7ff fdb7 	bl	80079ce <dir_next>
 8007e60:	4681      	mov	r9, r0
 8007e62:	2800      	cmp	r0, #0
 8007e64:	f47f af54 	bne.w	8007d10 <dir_register+0xe8>
 8007e68:	3d01      	subs	r5, #1
 8007e6a:	d1b8      	bne.n	8007dde <dir_register+0x1b6>
 8007e6c:	69e1      	ldr	r1, [r4, #28]
 8007e6e:	4630      	mov	r0, r6
 8007e70:	f7ff f9e5 	bl	800723e <move_window>
 8007e74:	4681      	mov	r9, r0
 8007e76:	2800      	cmp	r0, #0
 8007e78:	f47f af4a 	bne.w	8007d10 <dir_register+0xe8>
 8007e7c:	4601      	mov	r1, r0
 8007e7e:	2220      	movs	r2, #32
 8007e80:	6a20      	ldr	r0, [r4, #32]
 8007e82:	f7ff f821 	bl	8006ec8 <mem_set>
 8007e86:	220b      	movs	r2, #11
 8007e88:	6a20      	ldr	r0, [r4, #32]
 8007e8a:	4639      	mov	r1, r7
 8007e8c:	f7ff f9a2 	bl	80071d4 <mem_cpy.part.0>
 8007e90:	f894 302f 	ldrb.w	r3, [r4, #47]	; 0x2f
 8007e94:	6a22      	ldr	r2, [r4, #32]
 8007e96:	f003 0318 	and.w	r3, r3, #24
 8007e9a:	7313      	strb	r3, [r2, #12]
 8007e9c:	2301      	movs	r3, #1
 8007e9e:	70f3      	strb	r3, [r6, #3]
 8007ea0:	e736      	b.n	8007d10 <dir_register+0xe8>
 8007ea2:	bf00      	nop
 8007ea4:	00011021 	.word	0x00011021
 8007ea8:	0800a734 	.word	0x0800a734

08007eac <dir_read.constprop.0>:
 8007eac:	e92d 43f8 	stmdb	sp!, {r3, r4, r5, r6, r7, r8, r9, lr}
 8007eb0:	27ff      	movs	r7, #255	; 0xff
 8007eb2:	f8d0 8000 	ldr.w	r8, [r0]
 8007eb6:	4606      	mov	r6, r0
 8007eb8:	463c      	mov	r4, r7
 8007eba:	2504      	movs	r5, #4
 8007ebc:	f64f 79ff 	movw	r9, #65535	; 0xffff
 8007ec0:	69f1      	ldr	r1, [r6, #28]
 8007ec2:	b911      	cbnz	r1, 8007eca <dir_read.constprop.0+0x1e>
 8007ec4:	2d00      	cmp	r5, #0
 8007ec6:	d05f      	beq.n	8007f88 <dir_read.constprop.0+0xdc>
 8007ec8:	e04f      	b.n	8007f6a <dir_read.constprop.0+0xbe>
 8007eca:	4640      	mov	r0, r8
 8007ecc:	f7ff f9b7 	bl	800723e <move_window>
 8007ed0:	4605      	mov	r5, r0
 8007ed2:	2800      	cmp	r0, #0
 8007ed4:	d149      	bne.n	8007f6a <dir_read.constprop.0+0xbe>
 8007ed6:	6a30      	ldr	r0, [r6, #32]
 8007ed8:	7803      	ldrb	r3, [r0, #0]
 8007eda:	2b00      	cmp	r3, #0
 8007edc:	d05c      	beq.n	8007f98 <dir_read.constprop.0+0xec>
 8007ede:	7ac2      	ldrb	r2, [r0, #11]
 8007ee0:	2be5      	cmp	r3, #229	; 0xe5
 8007ee2:	f002 023f 	and.w	r2, r2, #63	; 0x3f
 8007ee6:	71b2      	strb	r2, [r6, #6]
 8007ee8:	d044      	beq.n	8007f74 <dir_read.constprop.0+0xc8>
 8007eea:	2b2e      	cmp	r3, #46	; 0x2e
 8007eec:	d042      	beq.n	8007f74 <dir_read.constprop.0+0xc8>
 8007eee:	f022 0120 	bic.w	r1, r2, #32
 8007ef2:	2908      	cmp	r1, #8
 8007ef4:	d03e      	beq.n	8007f74 <dir_read.constprop.0+0xc8>
 8007ef6:	2a0f      	cmp	r2, #15
 8007ef8:	d141      	bne.n	8007f7e <dir_read.constprop.0+0xd2>
 8007efa:	0659      	lsls	r1, r3, #25
 8007efc:	d538      	bpl.n	8007f70 <dir_read.constprop.0+0xc4>
 8007efe:	f003 04bf 	and.w	r4, r3, #191	; 0xbf
 8007f02:	6973      	ldr	r3, [r6, #20]
 8007f04:	7b47      	ldrb	r7, [r0, #13]
 8007f06:	6333      	str	r3, [r6, #48]	; 0x30
 8007f08:	7b43      	ldrb	r3, [r0, #13]
 8007f0a:	42bb      	cmp	r3, r7
 8007f0c:	d132      	bne.n	8007f74 <dir_read.constprop.0+0xc8>
 8007f0e:	8b42      	ldrh	r2, [r0, #26]
 8007f10:	bb82      	cbnz	r2, 8007f74 <dir_read.constprop.0+0xc8>
 8007f12:	7803      	ldrb	r3, [r0, #0]
 8007f14:	f8d8 5010 	ldr.w	r5, [r8, #16]
 8007f18:	f8df c080 	ldr.w	ip, [pc, #128]	; 8007f9c <dir_read.constprop.0+0xf0>
 8007f1c:	f023 0340 	bic.w	r3, r3, #64	; 0x40
 8007f20:	3b01      	subs	r3, #1
 8007f22:	210d      	movs	r1, #13
 8007f24:	434b      	muls	r3, r1
 8007f26:	f04f 0e01 	mov.w	lr, #1
 8007f2a:	f81c 1b01 	ldrb.w	r1, [ip], #1
 8007f2e:	5a41      	ldrh	r1, [r0, r1]
 8007f30:	f1be 0f00 	cmp.w	lr, #0
 8007f34:	d020      	beq.n	8007f78 <dir_read.constprop.0+0xcc>
 8007f36:	2bfe      	cmp	r3, #254	; 0xfe
 8007f38:	d81c      	bhi.n	8007f74 <dir_read.constprop.0+0xc8>
 8007f3a:	f825 1013 	strh.w	r1, [r5, r3, lsl #1]
 8007f3e:	468e      	mov	lr, r1
 8007f40:	3301      	adds	r3, #1
 8007f42:	3201      	adds	r2, #1
 8007f44:	2a0d      	cmp	r2, #13
 8007f46:	d1f0      	bne.n	8007f2a <dir_read.constprop.0+0x7e>
 8007f48:	7802      	ldrb	r2, [r0, #0]
 8007f4a:	0652      	lsls	r2, r2, #25
 8007f4c:	d504      	bpl.n	8007f58 <dir_read.constprop.0+0xac>
 8007f4e:	2bfe      	cmp	r3, #254	; 0xfe
 8007f50:	d810      	bhi.n	8007f74 <dir_read.constprop.0+0xc8>
 8007f52:	2200      	movs	r2, #0
 8007f54:	f825 2013 	strh.w	r2, [r5, r3, lsl #1]
 8007f58:	3c01      	subs	r4, #1
 8007f5a:	b2e4      	uxtb	r4, r4
 8007f5c:	2100      	movs	r1, #0
 8007f5e:	4630      	mov	r0, r6
 8007f60:	f7ff fd35 	bl	80079ce <dir_next>
 8007f64:	4605      	mov	r5, r0
 8007f66:	2800      	cmp	r0, #0
 8007f68:	d0aa      	beq.n	8007ec0 <dir_read.constprop.0+0x14>
 8007f6a:	2300      	movs	r3, #0
 8007f6c:	61f3      	str	r3, [r6, #28]
 8007f6e:	e00c      	b.n	8007f8a <dir_read.constprop.0+0xde>
 8007f70:	42a3      	cmp	r3, r4
 8007f72:	d0c9      	beq.n	8007f08 <dir_read.constprop.0+0x5c>
 8007f74:	24ff      	movs	r4, #255	; 0xff
 8007f76:	e7f1      	b.n	8007f5c <dir_read.constprop.0+0xb0>
 8007f78:	4549      	cmp	r1, r9
 8007f7a:	d0e2      	beq.n	8007f42 <dir_read.constprop.0+0x96>
 8007f7c:	e7fa      	b.n	8007f74 <dir_read.constprop.0+0xc8>
 8007f7e:	b93c      	cbnz	r4, 8007f90 <dir_read.constprop.0+0xe4>
 8007f80:	f7ff f872 	bl	8007068 <sum_sfn>
 8007f84:	42b8      	cmp	r0, r7
 8007f86:	d103      	bne.n	8007f90 <dir_read.constprop.0+0xe4>
 8007f88:	2500      	movs	r5, #0
 8007f8a:	4628      	mov	r0, r5
 8007f8c:	e8bd 83f8 	ldmia.w	sp!, {r3, r4, r5, r6, r7, r8, r9, pc}
 8007f90:	f04f 33ff 	mov.w	r3, #4294967295
 8007f94:	6333      	str	r3, [r6, #48]	; 0x30
 8007f96:	e7f8      	b.n	8007f8a <dir_read.constprop.0+0xde>
 8007f98:	2504      	movs	r5, #4
 8007f9a:	e7e6      	b.n	8007f6a <dir_read.constprop.0+0xbe>
 8007f9c:	0800a734 	.word	0x0800a734

08007fa0 <follow_path>:
 8007fa0:	e92d 4ff7 	stmdb	sp!, {r0, r1, r2, r4, r5, r6, r7, r8, r9, sl, fp, lr}
 8007fa4:	f8d0 b000 	ldr.w	fp, [r0]
 8007fa8:	4606      	mov	r6, r0
 8007faa:	4689      	mov	r9, r1
 8007fac:	f811 3b01 	ldrb.w	r3, [r1], #1
 8007fb0:	2b2f      	cmp	r3, #47	; 0x2f
 8007fb2:	d0fa      	beq.n	8007faa <follow_path+0xa>
 8007fb4:	2b5c      	cmp	r3, #92	; 0x5c
 8007fb6:	d0f8      	beq.n	8007faa <follow_path+0xa>
 8007fb8:	2100      	movs	r1, #0
 8007fba:	60b1      	str	r1, [r6, #8]
 8007fbc:	f899 3000 	ldrb.w	r3, [r9]
 8007fc0:	2b1f      	cmp	r3, #31
 8007fc2:	f200 80b6 	bhi.w	8008132 <follow_path+0x192>
 8007fc6:	2380      	movs	r3, #128	; 0x80
 8007fc8:	4630      	mov	r0, r6
 8007fca:	f886 302f 	strb.w	r3, [r6, #47]	; 0x2f
 8007fce:	b003      	add	sp, #12
 8007fd0:	e8bd 4ff0 	ldmia.w	sp!, {r4, r5, r6, r7, r8, r9, sl, fp, lr}
 8007fd4:	f7ff bcb8 	b.w	8007948 <dir_sdi>
 8007fd8:	3501      	adds	r5, #1
 8007fda:	e0be      	b.n	800815a <follow_path+0x1ba>
 8007fdc:	f5b5 7f80 	cmp.w	r5, #256	; 0x100
 8007fe0:	e9cd 3200 	strd	r3, r2, [sp]
 8007fe4:	d00e      	beq.n	8008004 <follow_path+0x64>
 8007fe6:	2101      	movs	r1, #1
 8007fe8:	4620      	mov	r0, r4
 8007fea:	f000 fcf3 	bl	80089d4 <ff_convert>
 8007fee:	b148      	cbz	r0, 8008004 <follow_path+0x64>
 8007ff0:	287f      	cmp	r0, #127	; 0x7f
 8007ff2:	e9dd 3200 	ldrd	r3, r2, [sp]
 8007ff6:	d807      	bhi.n	8008008 <follow_path+0x68>
 8007ff8:	4c82      	ldr	r4, [pc, #520]	; (8008204 <follow_path+0x264>)
 8007ffa:	f814 1b01 	ldrb.w	r1, [r4], #1
 8007ffe:	b119      	cbz	r1, 8008008 <follow_path+0x68>
 8008000:	4288      	cmp	r0, r1
 8008002:	d1fa      	bne.n	8007ffa <follow_path+0x5a>
 8008004:	2006      	movs	r0, #6
 8008006:	e04d      	b.n	80080a4 <follow_path+0x104>
 8008008:	f823 0f02 	strh.w	r0, [r3, #2]!
 800800c:	462f      	mov	r7, r5
 800800e:	e099      	b.n	8008144 <follow_path+0x1a4>
 8008010:	f838 3017 	ldrh.w	r3, [r8, r7, lsl #1]
 8008014:	2b20      	cmp	r3, #32
 8008016:	d002      	beq.n	800801e <follow_path+0x7e>
 8008018:	2b2e      	cmp	r3, #46	; 0x2e
 800801a:	f040 80aa 	bne.w	8008172 <follow_path+0x1d2>
 800801e:	3f01      	subs	r7, #1
 8008020:	e0a4      	b.n	800816c <follow_path+0x1cc>
 8008022:	3101      	adds	r1, #1
 8008024:	e0b2      	b.n	800818c <follow_path+0x1ec>
 8008026:	4543      	cmp	r3, r8
 8008028:	d205      	bcs.n	8008036 <follow_path+0x96>
 800802a:	42ba      	cmp	r2, r7
 800802c:	d149      	bne.n	80080c2 <follow_path+0x122>
 800802e:	f1b8 0f0b 	cmp.w	r8, #11
 8008032:	d13f      	bne.n	80080b4 <follow_path+0x114>
 8008034:	e002      	b.n	800803c <follow_path+0x9c>
 8008036:	f1b8 0f0b 	cmp.w	r8, #11
 800803a:	d136      	bne.n	80080aa <follow_path+0x10a>
 800803c:	f044 0403 	orr.w	r4, r4, #3
 8008040:	f04f 080b 	mov.w	r8, #11
 8008044:	f896 3024 	ldrb.w	r3, [r6, #36]	; 0x24
 8008048:	2be5      	cmp	r3, #229	; 0xe5
 800804a:	bf04      	itt	eq
 800804c:	2305      	moveq	r3, #5
 800804e:	f886 3024 	strbeq.w	r3, [r6, #36]	; 0x24
 8008052:	f1b8 0f08 	cmp.w	r8, #8
 8008056:	bf04      	itt	eq
 8008058:	00ad      	lsleq	r5, r5, #2
 800805a:	b2ed      	uxtbeq	r5, r5
 800805c:	f005 030c 	and.w	r3, r5, #12
 8008060:	2b0c      	cmp	r3, #12
 8008062:	d003      	beq.n	800806c <follow_path+0xcc>
 8008064:	f005 0203 	and.w	r2, r5, #3
 8008068:	2a03      	cmp	r2, #3
 800806a:	d101      	bne.n	8008070 <follow_path+0xd0>
 800806c:	f044 0402 	orr.w	r4, r4, #2
 8008070:	07a1      	lsls	r1, r4, #30
 8008072:	d409      	bmi.n	8008088 <follow_path+0xe8>
 8008074:	f005 0503 	and.w	r5, r5, #3
 8008078:	2d01      	cmp	r5, #1
 800807a:	bf08      	it	eq
 800807c:	f044 0410 	orreq.w	r4, r4, #16
 8008080:	2b04      	cmp	r3, #4
 8008082:	bf08      	it	eq
 8008084:	f044 0408 	orreq.w	r4, r4, #8
 8008088:	f886 402f 	strb.w	r4, [r6, #47]	; 0x2f
 800808c:	4630      	mov	r0, r6
 800808e:	f7ff fd1b 	bl	8007ac8 <dir_find>
 8008092:	f896 302f 	ldrb.w	r3, [r6, #47]	; 0x2f
 8008096:	b3c0      	cbz	r0, 800810a <follow_path+0x16a>
 8008098:	2804      	cmp	r0, #4
 800809a:	d103      	bne.n	80080a4 <follow_path+0x104>
 800809c:	f013 0f04 	tst.w	r3, #4
 80080a0:	bf08      	it	eq
 80080a2:	2005      	moveq	r0, #5
 80080a4:	b003      	add	sp, #12
 80080a6:	e8bd 8ff0 	ldmia.w	sp!, {r4, r5, r6, r7, r8, r9, sl, fp, pc}
 80080aa:	42ba      	cmp	r2, r7
 80080ac:	d002      	beq.n	80080b4 <follow_path+0x114>
 80080ae:	f044 0403 	orr.w	r4, r4, #3
 80080b2:	d8c7      	bhi.n	8008044 <follow_path+0xa4>
 80080b4:	00ad      	lsls	r5, r5, #2
 80080b6:	b2ed      	uxtb	r5, r5
 80080b8:	463a      	mov	r2, r7
 80080ba:	f04f 080b 	mov.w	r8, #11
 80080be:	2308      	movs	r3, #8
 80080c0:	e08e      	b.n	80081e0 <follow_path+0x240>
 80080c2:	287f      	cmp	r0, #127	; 0x7f
 80080c4:	d90e      	bls.n	80080e4 <follow_path+0x144>
 80080c6:	2100      	movs	r1, #0
 80080c8:	e9cd 2300 	strd	r2, r3, [sp]
 80080cc:	f000 fc82 	bl	80089d4 <ff_convert>
 80080d0:	f044 0402 	orr.w	r4, r4, #2
 80080d4:	e9dd 2300 	ldrd	r2, r3, [sp]
 80080d8:	b160      	cbz	r0, 80080f4 <follow_path+0x154>
 80080da:	494b      	ldr	r1, [pc, #300]	; (8008208 <follow_path+0x268>)
 80080dc:	4408      	add	r0, r1
 80080de:	f810 0c80 	ldrb.w	r0, [r0, #-128]
 80080e2:	b138      	cbz	r0, 80080f4 <follow_path+0x154>
 80080e4:	f8df c124 	ldr.w	ip, [pc, #292]	; 800820c <follow_path+0x26c>
 80080e8:	f81c 1b01 	ldrb.w	r1, [ip], #1
 80080ec:	2900      	cmp	r1, #0
 80080ee:	d07b      	beq.n	80081e8 <follow_path+0x248>
 80080f0:	4281      	cmp	r1, r0
 80080f2:	d1f9      	bne.n	80080e8 <follow_path+0x148>
 80080f4:	f044 0403 	orr.w	r4, r4, #3
 80080f8:	205f      	movs	r0, #95	; 0x5f
 80080fa:	18f1      	adds	r1, r6, r3
 80080fc:	3301      	adds	r3, #1
 80080fe:	f881 0024 	strb.w	r0, [r1, #36]	; 0x24
 8008102:	e06d      	b.n	80081e0 <follow_path+0x240>
 8008104:	f045 0502 	orr.w	r5, r5, #2
 8008108:	e7f7      	b.n	80080fa <follow_path+0x15a>
 800810a:	075a      	lsls	r2, r3, #29
 800810c:	d4ca      	bmi.n	80080a4 <follow_path+0x104>
 800810e:	79b3      	ldrb	r3, [r6, #6]
 8008110:	06db      	lsls	r3, r3, #27
 8008112:	d567      	bpl.n	80081e4 <follow_path+0x244>
 8008114:	f8bb 200c 	ldrh.w	r2, [fp, #12]
 8008118:	6973      	ldr	r3, [r6, #20]
 800811a:	fbb3 f0f2 	udiv	r0, r3, r2
 800811e:	f10b 0138 	add.w	r1, fp, #56	; 0x38
 8008122:	fb02 3310 	mls	r3, r2, r0, r3
 8008126:	4419      	add	r1, r3
 8008128:	f89b 0000 	ldrb.w	r0, [fp]
 800812c:	f7ff fb09 	bl	8007742 <ld_clust.isra.0>
 8008130:	60b0      	str	r0, [r6, #8]
 8008132:	6833      	ldr	r3, [r6, #0]
 8008134:	f8d3 a010 	ldr.w	sl, [r3, #16]
 8008138:	f1aa 0802 	sub.w	r8, sl, #2
 800813c:	f109 32ff 	add.w	r2, r9, #4294967295
 8008140:	4643      	mov	r3, r8
 8008142:	2700      	movs	r7, #0
 8008144:	f812 4f01 	ldrb.w	r4, [r2, #1]!
 8008148:	2c1f      	cmp	r4, #31
 800814a:	f107 0501 	add.w	r5, r7, #1
 800814e:	d90c      	bls.n	800816a <follow_path+0x1ca>
 8008150:	2c2f      	cmp	r4, #47	; 0x2f
 8008152:	d002      	beq.n	800815a <follow_path+0x1ba>
 8008154:	2c5c      	cmp	r4, #92	; 0x5c
 8008156:	f47f af41 	bne.w	8007fdc <follow_path+0x3c>
 800815a:	f819 3005 	ldrb.w	r3, [r9, r5]
 800815e:	2b2f      	cmp	r3, #47	; 0x2f
 8008160:	f43f af3a 	beq.w	8007fd8 <follow_path+0x38>
 8008164:	2b5c      	cmp	r3, #92	; 0x5c
 8008166:	f43f af37 	beq.w	8007fd8 <follow_path+0x38>
 800816a:	44a9      	add	r9, r5
 800816c:	2f00      	cmp	r7, #0
 800816e:	f47f af4f 	bne.w	8008010 <follow_path+0x70>
 8008172:	2300      	movs	r3, #0
 8008174:	f82a 3017 	strh.w	r3, [sl, r7, lsl #1]
 8008178:	2f00      	cmp	r7, #0
 800817a:	f43f af43 	beq.w	8008004 <follow_path+0x64>
 800817e:	2120      	movs	r1, #32
 8008180:	220b      	movs	r2, #11
 8008182:	f106 0024 	add.w	r0, r6, #36	; 0x24
 8008186:	f7fe fe9f 	bl	8006ec8 <mem_set>
 800818a:	4619      	mov	r1, r3
 800818c:	f83a 3011 	ldrh.w	r3, [sl, r1, lsl #1]
 8008190:	2b20      	cmp	r3, #32
 8008192:	f43f af46 	beq.w	8008022 <follow_path+0x82>
 8008196:	2b2e      	cmp	r3, #46	; 0x2e
 8008198:	f43f af43 	beq.w	8008022 <follow_path+0x82>
 800819c:	2c1f      	cmp	r4, #31
 800819e:	bf8c      	ite	hi
 80081a0:	2400      	movhi	r4, #0
 80081a2:	2401      	movls	r4, #1
 80081a4:	00a4      	lsls	r4, r4, #2
 80081a6:	b109      	cbz	r1, 80081ac <follow_path+0x20c>
 80081a8:	f044 0403 	orr.w	r4, r4, #3
 80081ac:	f838 3017 	ldrh.w	r3, [r8, r7, lsl #1]
 80081b0:	2b2e      	cmp	r3, #46	; 0x2e
 80081b2:	d001      	beq.n	80081b8 <follow_path+0x218>
 80081b4:	3f01      	subs	r7, #1
 80081b6:	d1f9      	bne.n	80081ac <follow_path+0x20c>
 80081b8:	2300      	movs	r3, #0
 80081ba:	f04f 0808 	mov.w	r8, #8
 80081be:	461d      	mov	r5, r3
 80081c0:	f83a 0011 	ldrh.w	r0, [sl, r1, lsl #1]
 80081c4:	1c4a      	adds	r2, r1, #1
 80081c6:	2800      	cmp	r0, #0
 80081c8:	f43f af3c 	beq.w	8008044 <follow_path+0xa4>
 80081cc:	2820      	cmp	r0, #32
 80081ce:	d005      	beq.n	80081dc <follow_path+0x23c>
 80081d0:	282e      	cmp	r0, #46	; 0x2e
 80081d2:	f47f af28 	bne.w	8008026 <follow_path+0x86>
 80081d6:	42ba      	cmp	r2, r7
 80081d8:	f43f af29 	beq.w	800802e <follow_path+0x8e>
 80081dc:	f044 0403 	orr.w	r4, r4, #3
 80081e0:	4611      	mov	r1, r2
 80081e2:	e7ed      	b.n	80081c0 <follow_path+0x220>
 80081e4:	2005      	movs	r0, #5
 80081e6:	e75d      	b.n	80080a4 <follow_path+0x104>
 80081e8:	f1a0 0141 	sub.w	r1, r0, #65	; 0x41
 80081ec:	2919      	cmp	r1, #25
 80081ee:	d989      	bls.n	8008104 <follow_path+0x164>
 80081f0:	f1a0 0161 	sub.w	r1, r0, #97	; 0x61
 80081f4:	2919      	cmp	r1, #25
 80081f6:	bf9e      	ittt	ls
 80081f8:	3820      	subls	r0, #32
 80081fa:	f045 0501 	orrls.w	r5, r5, #1
 80081fe:	b280      	uxthls	r0, r0
 8008200:	e77b      	b.n	80080fa <follow_path+0x15a>
 8008202:	bf00      	nop
 8008204:	0800a6a4 	.word	0x0800a6a4
 8008208:	0800a6b4 	.word	0x0800a6b4
 800820c:	0800a6ad 	.word	0x0800a6ad

08008210 <f_mount>:
 8008210:	b530      	push	{r4, r5, lr}
 8008212:	b085      	sub	sp, #20
 8008214:	e9cd 1000 	strd	r1, r0, [sp]
 8008218:	a803      	add	r0, sp, #12
 800821a:	9103      	str	r1, [sp, #12]
 800821c:	4614      	mov	r4, r2
 800821e:	f7fe ff32 	bl	8007086 <get_ldnumber>
 8008222:	1e01      	subs	r1, r0, #0
 8008224:	db17      	blt.n	8008256 <f_mount+0x46>
 8008226:	4d0e      	ldr	r5, [pc, #56]	; (8008260 <f_mount+0x50>)
 8008228:	f855 0021 	ldr.w	r0, [r5, r1, lsl #2]
 800822c:	b118      	cbz	r0, 8008236 <f_mount+0x26>
 800822e:	f7fe fedd 	bl	8006fec <clear_lock>
 8008232:	2300      	movs	r3, #0
 8008234:	7003      	strb	r3, [r0, #0]
 8008236:	9801      	ldr	r0, [sp, #4]
 8008238:	b108      	cbz	r0, 800823e <f_mount+0x2e>
 800823a:	2300      	movs	r3, #0
 800823c:	7003      	strb	r3, [r0, #0]
 800823e:	f845 0021 	str.w	r0, [r5, r1, lsl #2]
 8008242:	b130      	cbz	r0, 8008252 <f_mount+0x42>
 8008244:	2c01      	cmp	r4, #1
 8008246:	d108      	bne.n	800825a <f_mount+0x4a>
 8008248:	2200      	movs	r2, #0
 800824a:	a901      	add	r1, sp, #4
 800824c:	4668      	mov	r0, sp
 800824e:	f7ff f84b 	bl	80072e8 <find_volume>
 8008252:	b005      	add	sp, #20
 8008254:	bd30      	pop	{r4, r5, pc}
 8008256:	200b      	movs	r0, #11
 8008258:	e7fb      	b.n	8008252 <f_mount+0x42>
 800825a:	2000      	movs	r0, #0
 800825c:	e7f9      	b.n	8008252 <f_mount+0x42>
 800825e:	bf00      	nop
 8008260:	200024b8 	.word	0x200024b8

08008264 <f_open>:
 8008264:	e92d 43f0 	stmdb	sp!, {r4, r5, r6, r7, r8, r9, lr}
 8008268:	b091      	sub	sp, #68	; 0x44
 800826a:	4690      	mov	r8, r2
 800826c:	9101      	str	r1, [sp, #4]
 800826e:	4604      	mov	r4, r0
 8008270:	2800      	cmp	r0, #0
 8008272:	f000 80f4 	beq.w	800845e <f_open+0x1fa>
 8008276:	f002 063f 	and.w	r6, r2, #63	; 0x3f
 800827a:	4632      	mov	r2, r6
 800827c:	a902      	add	r1, sp, #8
 800827e:	a801      	add	r0, sp, #4
 8008280:	f7ff f832 	bl	80072e8 <find_volume>
 8008284:	4607      	mov	r7, r0
 8008286:	2800      	cmp	r0, #0
 8008288:	d15b      	bne.n	8008342 <f_open+0xde>
 800828a:	9d02      	ldr	r5, [sp, #8]
 800828c:	9901      	ldr	r1, [sp, #4]
 800828e:	9503      	str	r5, [sp, #12]
 8008290:	a803      	add	r0, sp, #12
 8008292:	f7ff fe85 	bl	8007fa0 <follow_path>
 8008296:	b958      	cbnz	r0, 80082b0 <f_open+0x4c>
 8008298:	f99d 303b 	ldrsb.w	r3, [sp, #59]	; 0x3b
 800829c:	2b00      	cmp	r3, #0
 800829e:	db57      	blt.n	8008350 <f_open+0xec>
 80082a0:	f016 0f3e 	tst.w	r6, #62	; 0x3e
 80082a4:	bf14      	ite	ne
 80082a6:	2101      	movne	r1, #1
 80082a8:	2100      	moveq	r1, #0
 80082aa:	a803      	add	r0, sp, #12
 80082ac:	f7fe fe12 	bl	8006ed4 <chk_lock>
 80082b0:	f018 0f1c 	tst.w	r8, #28
 80082b4:	d06f      	beq.n	8008396 <f_open+0x132>
 80082b6:	2800      	cmp	r0, #0
 80082b8:	d04c      	beq.n	8008354 <f_open+0xf0>
 80082ba:	2804      	cmp	r0, #4
 80082bc:	d141      	bne.n	8008342 <f_open+0xde>
 80082be:	4b69      	ldr	r3, [pc, #420]	; (8008464 <f_open+0x200>)
 80082c0:	681a      	ldr	r2, [r3, #0]
 80082c2:	b12a      	cbz	r2, 80082d0 <f_open+0x6c>
 80082c4:	691a      	ldr	r2, [r3, #16]
 80082c6:	b11a      	cbz	r2, 80082d0 <f_open+0x6c>
 80082c8:	6a1b      	ldr	r3, [r3, #32]
 80082ca:	2b00      	cmp	r3, #0
 80082cc:	f040 80c1 	bne.w	8008452 <f_open+0x1ee>
 80082d0:	a803      	add	r0, sp, #12
 80082d2:	f7ff fca9 	bl	8007c28 <dir_register>
 80082d6:	bba0      	cbnz	r0, 8008342 <f_open+0xde>
 80082d8:	f046 0608 	orr.w	r6, r6, #8
 80082dc:	f7fd fa5c 	bl	8005798 <get_fattime>
 80082e0:	4601      	mov	r1, r0
 80082e2:	9000      	str	r0, [sp, #0]
 80082e4:	980b      	ldr	r0, [sp, #44]	; 0x2c
 80082e6:	300e      	adds	r0, #14
 80082e8:	f7fe fde6 	bl	8006eb8 <st_dword>
 80082ec:	980b      	ldr	r0, [sp, #44]	; 0x2c
 80082ee:	9900      	ldr	r1, [sp, #0]
 80082f0:	3016      	adds	r0, #22
 80082f2:	f7fe fde1 	bl	8006eb8 <st_dword>
 80082f6:	9b0b      	ldr	r3, [sp, #44]	; 0x2c
 80082f8:	2220      	movs	r2, #32
 80082fa:	72da      	strb	r2, [r3, #11]
 80082fc:	990b      	ldr	r1, [sp, #44]	; 0x2c
 80082fe:	7828      	ldrb	r0, [r5, #0]
 8008300:	f7ff fa1f 	bl	8007742 <ld_clust.isra.0>
 8008304:	2200      	movs	r2, #0
 8008306:	4680      	mov	r8, r0
 8008308:	4628      	mov	r0, r5
 800830a:	f7fe fea1 	bl	8007050 <st_clust>
 800830e:	9b0b      	ldr	r3, [sp, #44]	; 0x2c
 8008310:	2200      	movs	r2, #0
 8008312:	771a      	strb	r2, [r3, #28]
 8008314:	775a      	strb	r2, [r3, #29]
 8008316:	779a      	strb	r2, [r3, #30]
 8008318:	77da      	strb	r2, [r3, #31]
 800831a:	2301      	movs	r3, #1
 800831c:	70eb      	strb	r3, [r5, #3]
 800831e:	f1b8 0f00 	cmp.w	r8, #0
 8008322:	d022      	beq.n	800836a <f_open+0x106>
 8008324:	4641      	mov	r1, r8
 8008326:	a803      	add	r0, sp, #12
 8008328:	f8d5 9034 	ldr.w	r9, [r5, #52]	; 0x34
 800832c:	f7ff fa7c 	bl	8007828 <remove_chain>
 8008330:	b938      	cbnz	r0, 8008342 <f_open+0xde>
 8008332:	4649      	mov	r1, r9
 8008334:	4628      	mov	r0, r5
 8008336:	f7fe ff82 	bl	800723e <move_window>
 800833a:	f108 33ff 	add.w	r3, r8, #4294967295
 800833e:	616b      	str	r3, [r5, #20]
 8008340:	b198      	cbz	r0, 800836a <f_open+0x106>
 8008342:	2300      	movs	r3, #0
 8008344:	6023      	str	r3, [r4, #0]
 8008346:	4607      	mov	r7, r0
 8008348:	4638      	mov	r0, r7
 800834a:	b011      	add	sp, #68	; 0x44
 800834c:	e8bd 83f0 	ldmia.w	sp!, {r4, r5, r6, r7, r8, r9, pc}
 8008350:	2006      	movs	r0, #6
 8008352:	e7ad      	b.n	80082b0 <f_open+0x4c>
 8008354:	f89d 3012 	ldrb.w	r3, [sp, #18]
 8008358:	f013 0f11 	tst.w	r3, #17
 800835c:	d126      	bne.n	80083ac <f_open+0x148>
 800835e:	f018 0f04 	tst.w	r8, #4
 8008362:	d178      	bne.n	8008456 <f_open+0x1f2>
 8008364:	f018 0f08 	tst.w	r8, #8
 8008368:	d1b8      	bne.n	80082dc <f_open+0x78>
 800836a:	0730      	lsls	r0, r6, #28
 800836c:	bf48      	it	mi
 800836e:	f046 0640 	orrmi.w	r6, r6, #64	; 0x40
 8008372:	6b6b      	ldr	r3, [r5, #52]	; 0x34
 8008374:	f8dd 802c 	ldr.w	r8, [sp, #44]	; 0x2c
 8008378:	6263      	str	r3, [r4, #36]	; 0x24
 800837a:	f016 0ffe 	tst.w	r6, #254	; 0xfe
 800837e:	f8c4 8028 	str.w	r8, [r4, #40]	; 0x28
 8008382:	bf14      	ite	ne
 8008384:	2101      	movne	r1, #1
 8008386:	2100      	moveq	r1, #0
 8008388:	a803      	add	r0, sp, #12
 800838a:	f7fe fdd1 	bl	8006f30 <inc_lock>
 800838e:	6120      	str	r0, [r4, #16]
 8008390:	b970      	cbnz	r0, 80083b0 <f_open+0x14c>
 8008392:	2002      	movs	r0, #2
 8008394:	e7d5      	b.n	8008342 <f_open+0xde>
 8008396:	2800      	cmp	r0, #0
 8008398:	d1d3      	bne.n	8008342 <f_open+0xde>
 800839a:	f89d 3012 	ldrb.w	r3, [sp, #18]
 800839e:	06da      	lsls	r2, r3, #27
 80083a0:	d45b      	bmi.n	800845a <f_open+0x1f6>
 80083a2:	f018 0f02 	tst.w	r8, #2
 80083a6:	d0e0      	beq.n	800836a <f_open+0x106>
 80083a8:	07db      	lsls	r3, r3, #31
 80083aa:	d5de      	bpl.n	800836a <f_open+0x106>
 80083ac:	2007      	movs	r0, #7
 80083ae:	e7c8      	b.n	8008342 <f_open+0xde>
 80083b0:	7828      	ldrb	r0, [r5, #0]
 80083b2:	4641      	mov	r1, r8
 80083b4:	f7ff f9c5 	bl	8007742 <ld_clust.isra.0>
 80083b8:	60a0      	str	r0, [r4, #8]
 80083ba:	f108 001c 	add.w	r0, r8, #28
 80083be:	f7fe fd79 	bl	8006eb4 <ld_dword>
 80083c2:	2100      	movs	r1, #0
 80083c4:	88eb      	ldrh	r3, [r5, #6]
 80083c6:	60e0      	str	r0, [r4, #12]
 80083c8:	f104 0830 	add.w	r8, r4, #48	; 0x30
 80083cc:	f44f 6280 	mov.w	r2, #1024	; 0x400
 80083d0:	62e1      	str	r1, [r4, #44]	; 0x2c
 80083d2:	6025      	str	r5, [r4, #0]
 80083d4:	80a3      	strh	r3, [r4, #4]
 80083d6:	7526      	strb	r6, [r4, #20]
 80083d8:	7561      	strb	r1, [r4, #21]
 80083da:	6221      	str	r1, [r4, #32]
 80083dc:	61a1      	str	r1, [r4, #24]
 80083de:	4640      	mov	r0, r8
 80083e0:	f7fe fd72 	bl	8006ec8 <mem_set>
 80083e4:	06b2      	lsls	r2, r6, #26
 80083e6:	d5af      	bpl.n	8008348 <f_open+0xe4>
 80083e8:	68e6      	ldr	r6, [r4, #12]
 80083ea:	2e00      	cmp	r6, #0
 80083ec:	d0ac      	beq.n	8008348 <f_open+0xe4>
 80083ee:	f8b5 900a 	ldrh.w	r9, [r5, #10]
 80083f2:	89ab      	ldrh	r3, [r5, #12]
 80083f4:	68a1      	ldr	r1, [r4, #8]
 80083f6:	61a6      	str	r6, [r4, #24]
 80083f8:	fb03 f909 	mul.w	r9, r3, r9
 80083fc:	45b1      	cmp	r9, r6
 80083fe:	d31a      	bcc.n	8008436 <f_open+0x1d2>
 8008400:	2000      	movs	r0, #0
 8008402:	61e1      	str	r1, [r4, #28]
 8008404:	2800      	cmp	r0, #0
 8008406:	d19c      	bne.n	8008342 <f_open+0xde>
 8008408:	89ab      	ldrh	r3, [r5, #12]
 800840a:	fbb6 f2f3 	udiv	r2, r6, r3
 800840e:	fb03 6612 	mls	r6, r3, r2, r6
 8008412:	2e00      	cmp	r6, #0
 8008414:	d098      	beq.n	8008348 <f_open+0xe4>
 8008416:	4628      	mov	r0, r5
 8008418:	f7fe fdfc 	bl	8007014 <clust2sect>
 800841c:	2800      	cmp	r0, #0
 800841e:	d0b8      	beq.n	8008392 <f_open+0x12e>
 8008420:	4402      	add	r2, r0
 8008422:	6222      	str	r2, [r4, #32]
 8008424:	7868      	ldrb	r0, [r5, #1]
 8008426:	2301      	movs	r3, #1
 8008428:	4641      	mov	r1, r8
 800842a:	f7fe fd19 	bl	8006e60 <disk_read>
 800842e:	2800      	cmp	r0, #0
 8008430:	d08a      	beq.n	8008348 <f_open+0xe4>
 8008432:	2001      	movs	r0, #1
 8008434:	e785      	b.n	8008342 <f_open+0xde>
 8008436:	6820      	ldr	r0, [r4, #0]
 8008438:	f7ff f98b 	bl	8007752 <get_fat.isra.0>
 800843c:	2801      	cmp	r0, #1
 800843e:	4601      	mov	r1, r0
 8008440:	eba6 0609 	sub.w	r6, r6, r9
 8008444:	d903      	bls.n	800844e <f_open+0x1ea>
 8008446:	1c43      	adds	r3, r0, #1
 8008448:	d1d8      	bne.n	80083fc <f_open+0x198>
 800844a:	2001      	movs	r0, #1
 800844c:	e7d9      	b.n	8008402 <f_open+0x19e>
 800844e:	2002      	movs	r0, #2
 8008450:	e7d7      	b.n	8008402 <f_open+0x19e>
 8008452:	2012      	movs	r0, #18
 8008454:	e775      	b.n	8008342 <f_open+0xde>
 8008456:	2008      	movs	r0, #8
 8008458:	e773      	b.n	8008342 <f_open+0xde>
 800845a:	2004      	movs	r0, #4
 800845c:	e771      	b.n	8008342 <f_open+0xde>
 800845e:	2709      	movs	r7, #9
 8008460:	e772      	b.n	8008348 <f_open+0xe4>
 8008462:	bf00      	nop
 8008464:	200024bc 	.word	0x200024bc

08008468 <f_read>:
 8008468:	e92d 4ff0 	stmdb	sp!, {r4, r5, r6, r7, r8, r9, sl, fp, lr}
 800846c:	b087      	sub	sp, #28
 800846e:	4616      	mov	r6, r2
 8008470:	9301      	str	r3, [sp, #4]
 8008472:	9a01      	ldr	r2, [sp, #4]
 8008474:	2300      	movs	r3, #0
 8008476:	468a      	mov	sl, r1
 8008478:	6013      	str	r3, [r2, #0]
 800847a:	a905      	add	r1, sp, #20
 800847c:	4604      	mov	r4, r0
 800847e:	f7fe fe1a 	bl	80070b6 <validate>
 8008482:	4605      	mov	r5, r0
 8008484:	bb30      	cbnz	r0, 80084d4 <f_read+0x6c>
 8008486:	7d65      	ldrb	r5, [r4, #21]
 8008488:	bb25      	cbnz	r5, 80084d4 <f_read+0x6c>
 800848a:	7d23      	ldrb	r3, [r4, #20]
 800848c:	f013 0301 	ands.w	r3, r3, #1
 8008490:	9302      	str	r3, [sp, #8]
 8008492:	f000 809e 	beq.w	80085d2 <f_read+0x16a>
 8008496:	68e7      	ldr	r7, [r4, #12]
 8008498:	69a3      	ldr	r3, [r4, #24]
 800849a:	1aff      	subs	r7, r7, r3
 800849c:	42b7      	cmp	r7, r6
 800849e:	bf28      	it	cs
 80084a0:	4637      	movcs	r7, r6
 80084a2:	f104 0b30 	add.w	fp, r4, #48	; 0x30
 80084a6:	b1af      	cbz	r7, 80084d4 <f_read+0x6c>
 80084a8:	9e05      	ldr	r6, [sp, #20]
 80084aa:	69a1      	ldr	r1, [r4, #24]
 80084ac:	89b3      	ldrh	r3, [r6, #12]
 80084ae:	fbb1 f2f3 	udiv	r2, r1, r3
 80084b2:	fb03 1312 	mls	r3, r3, r2, r1
 80084b6:	2b00      	cmp	r3, #0
 80084b8:	d179      	bne.n	80085ae <f_read+0x146>
 80084ba:	f8b6 900a 	ldrh.w	r9, [r6, #10]
 80084be:	f109 39ff 	add.w	r9, r9, #4294967295
 80084c2:	ea19 0902 	ands.w	r9, r9, r2
 80084c6:	d11b      	bne.n	8008500 <f_read+0x98>
 80084c8:	b941      	cbnz	r1, 80084dc <f_read+0x74>
 80084ca:	68a0      	ldr	r0, [r4, #8]
 80084cc:	2801      	cmp	r0, #1
 80084ce:	d810      	bhi.n	80084f2 <f_read+0x8a>
 80084d0:	2502      	movs	r5, #2
 80084d2:	7565      	strb	r5, [r4, #21]
 80084d4:	4628      	mov	r0, r5
 80084d6:	b007      	add	sp, #28
 80084d8:	e8bd 8ff0 	ldmia.w	sp!, {r4, r5, r6, r7, r8, r9, sl, fp, pc}
 80084dc:	6ae3      	ldr	r3, [r4, #44]	; 0x2c
 80084de:	b11b      	cbz	r3, 80084e8 <f_read+0x80>
 80084e0:	4620      	mov	r0, r4
 80084e2:	f7fe fda2 	bl	800702a <clmt_clust>
 80084e6:	e7f1      	b.n	80084cc <f_read+0x64>
 80084e8:	69e1      	ldr	r1, [r4, #28]
 80084ea:	6820      	ldr	r0, [r4, #0]
 80084ec:	f7ff f931 	bl	8007752 <get_fat.isra.0>
 80084f0:	e7ec      	b.n	80084cc <f_read+0x64>
 80084f2:	1c43      	adds	r3, r0, #1
 80084f4:	d103      	bne.n	80084fe <f_read+0x96>
 80084f6:	2301      	movs	r3, #1
 80084f8:	9d02      	ldr	r5, [sp, #8]
 80084fa:	7563      	strb	r3, [r4, #21]
 80084fc:	e7ea      	b.n	80084d4 <f_read+0x6c>
 80084fe:	61e0      	str	r0, [r4, #28]
 8008500:	69e1      	ldr	r1, [r4, #28]
 8008502:	4630      	mov	r0, r6
 8008504:	f7fe fd86 	bl	8007014 <clust2sect>
 8008508:	2800      	cmp	r0, #0
 800850a:	d0e1      	beq.n	80084d0 <f_read+0x68>
 800850c:	89b3      	ldrh	r3, [r6, #12]
 800850e:	42bb      	cmp	r3, r7
 8008510:	eb09 0800 	add.w	r8, r9, r0
 8008514:	d82f      	bhi.n	8008576 <f_read+0x10e>
 8008516:	fbb7 f3f3 	udiv	r3, r7, r3
 800851a:	8972      	ldrh	r2, [r6, #10]
 800851c:	7870      	ldrb	r0, [r6, #1]
 800851e:	eb09 0103 	add.w	r1, r9, r3
 8008522:	4291      	cmp	r1, r2
 8008524:	bf88      	it	hi
 8008526:	eba2 0309 	subhi.w	r3, r2, r9
 800852a:	4651      	mov	r1, sl
 800852c:	4642      	mov	r2, r8
 800852e:	9303      	str	r3, [sp, #12]
 8008530:	f7fe fc96 	bl	8006e60 <disk_read>
 8008534:	2800      	cmp	r0, #0
 8008536:	d1de      	bne.n	80084f6 <f_read+0x8e>
 8008538:	f994 2014 	ldrsb.w	r2, [r4, #20]
 800853c:	9b03      	ldr	r3, [sp, #12]
 800853e:	2a00      	cmp	r2, #0
 8008540:	da0c      	bge.n	800855c <f_read+0xf4>
 8008542:	6a20      	ldr	r0, [r4, #32]
 8008544:	eba0 0008 	sub.w	r0, r0, r8
 8008548:	4298      	cmp	r0, r3
 800854a:	d207      	bcs.n	800855c <f_read+0xf4>
 800854c:	89b2      	ldrh	r2, [r6, #12]
 800854e:	b12a      	cbz	r2, 800855c <f_read+0xf4>
 8008550:	4659      	mov	r1, fp
 8008552:	fb02 a000 	mla	r0, r2, r0, sl
 8008556:	f7fe fe3d 	bl	80071d4 <mem_cpy.part.0>
 800855a:	9b03      	ldr	r3, [sp, #12]
 800855c:	89b6      	ldrh	r6, [r6, #12]
 800855e:	435e      	muls	r6, r3
 8008560:	69a3      	ldr	r3, [r4, #24]
 8008562:	9a01      	ldr	r2, [sp, #4]
 8008564:	4433      	add	r3, r6
 8008566:	61a3      	str	r3, [r4, #24]
 8008568:	9b01      	ldr	r3, [sp, #4]
 800856a:	681b      	ldr	r3, [r3, #0]
 800856c:	4433      	add	r3, r6
 800856e:	44b2      	add	sl, r6
 8008570:	6013      	str	r3, [r2, #0]
 8008572:	1bbf      	subs	r7, r7, r6
 8008574:	e797      	b.n	80084a6 <f_read+0x3e>
 8008576:	6a22      	ldr	r2, [r4, #32]
 8008578:	4542      	cmp	r2, r8
 800857a:	d016      	beq.n	80085aa <f_read+0x142>
 800857c:	f994 3014 	ldrsb.w	r3, [r4, #20]
 8008580:	7870      	ldrb	r0, [r6, #1]
 8008582:	2b00      	cmp	r3, #0
 8008584:	da09      	bge.n	800859a <f_read+0x132>
 8008586:	2301      	movs	r3, #1
 8008588:	4659      	mov	r1, fp
 800858a:	f7fe fc77 	bl	8006e7c <disk_write>
 800858e:	2800      	cmp	r0, #0
 8008590:	d1b1      	bne.n	80084f6 <f_read+0x8e>
 8008592:	7d23      	ldrb	r3, [r4, #20]
 8008594:	f003 037f 	and.w	r3, r3, #127	; 0x7f
 8008598:	7523      	strb	r3, [r4, #20]
 800859a:	7870      	ldrb	r0, [r6, #1]
 800859c:	2301      	movs	r3, #1
 800859e:	4642      	mov	r2, r8
 80085a0:	4659      	mov	r1, fp
 80085a2:	f7fe fc5d 	bl	8006e60 <disk_read>
 80085a6:	2800      	cmp	r0, #0
 80085a8:	d1a5      	bne.n	80084f6 <f_read+0x8e>
 80085aa:	f8c4 8020 	str.w	r8, [r4, #32]
 80085ae:	89b6      	ldrh	r6, [r6, #12]
 80085b0:	69a1      	ldr	r1, [r4, #24]
 80085b2:	fbb1 f3f6 	udiv	r3, r1, r6
 80085b6:	fb06 1113 	mls	r1, r6, r3, r1
 80085ba:	1a76      	subs	r6, r6, r1
 80085bc:	42be      	cmp	r6, r7
 80085be:	bf28      	it	cs
 80085c0:	463e      	movcs	r6, r7
 80085c2:	2e00      	cmp	r6, #0
 80085c4:	d0cc      	beq.n	8008560 <f_read+0xf8>
 80085c6:	4632      	mov	r2, r6
 80085c8:	4459      	add	r1, fp
 80085ca:	4650      	mov	r0, sl
 80085cc:	f7fe fe02 	bl	80071d4 <mem_cpy.part.0>
 80085d0:	e7c6      	b.n	8008560 <f_read+0xf8>
 80085d2:	2507      	movs	r5, #7
 80085d4:	e77e      	b.n	80084d4 <f_read+0x6c>

080085d6 <f_sync>:
 80085d6:	e92d 41f3 	stmdb	sp!, {r0, r1, r4, r5, r6, r7, r8, lr}
 80085da:	a901      	add	r1, sp, #4
 80085dc:	4605      	mov	r5, r0
 80085de:	f7fe fd6a 	bl	80070b6 <validate>
 80085e2:	4604      	mov	r4, r0
 80085e4:	2800      	cmp	r0, #0
 80085e6:	d13b      	bne.n	8008660 <f_sync+0x8a>
 80085e8:	7d2b      	ldrb	r3, [r5, #20]
 80085ea:	f013 0440 	ands.w	r4, r3, #64	; 0x40
 80085ee:	d037      	beq.n	8008660 <f_sync+0x8a>
 80085f0:	061b      	lsls	r3, r3, #24
 80085f2:	9f01      	ldr	r7, [sp, #4]
 80085f4:	d50b      	bpl.n	800860e <f_sync+0x38>
 80085f6:	6a2a      	ldr	r2, [r5, #32]
 80085f8:	7878      	ldrb	r0, [r7, #1]
 80085fa:	2301      	movs	r3, #1
 80085fc:	f105 0130 	add.w	r1, r5, #48	; 0x30
 8008600:	f7fe fc3c 	bl	8006e7c <disk_write>
 8008604:	bb80      	cbnz	r0, 8008668 <f_sync+0x92>
 8008606:	7d2b      	ldrb	r3, [r5, #20]
 8008608:	f003 037f 	and.w	r3, r3, #127	; 0x7f
 800860c:	752b      	strb	r3, [r5, #20]
 800860e:	f7fd f8c3 	bl	8005798 <get_fattime>
 8008612:	6a69      	ldr	r1, [r5, #36]	; 0x24
 8008614:	4680      	mov	r8, r0
 8008616:	4638      	mov	r0, r7
 8008618:	f7fe fe11 	bl	800723e <move_window>
 800861c:	4604      	mov	r4, r0
 800861e:	b9f8      	cbnz	r0, 8008660 <f_sync+0x8a>
 8008620:	6aae      	ldr	r6, [r5, #40]	; 0x28
 8008622:	7af3      	ldrb	r3, [r6, #11]
 8008624:	f043 0320 	orr.w	r3, r3, #32
 8008628:	72f3      	strb	r3, [r6, #11]
 800862a:	68aa      	ldr	r2, [r5, #8]
 800862c:	6828      	ldr	r0, [r5, #0]
 800862e:	4631      	mov	r1, r6
 8008630:	f7fe fd0e 	bl	8007050 <st_clust>
 8008634:	68e9      	ldr	r1, [r5, #12]
 8008636:	f106 001c 	add.w	r0, r6, #28
 800863a:	f7fe fc3d 	bl	8006eb8 <st_dword>
 800863e:	4641      	mov	r1, r8
 8008640:	f106 0016 	add.w	r0, r6, #22
 8008644:	f7fe fc38 	bl	8006eb8 <st_dword>
 8008648:	2301      	movs	r3, #1
 800864a:	74b4      	strb	r4, [r6, #18]
 800864c:	74f4      	strb	r4, [r6, #19]
 800864e:	4638      	mov	r0, r7
 8008650:	70fb      	strb	r3, [r7, #3]
 8008652:	f7ff f82c 	bl	80076ae <sync_fs>
 8008656:	7d2b      	ldrb	r3, [r5, #20]
 8008658:	f023 0340 	bic.w	r3, r3, #64	; 0x40
 800865c:	4604      	mov	r4, r0
 800865e:	752b      	strb	r3, [r5, #20]
 8008660:	4620      	mov	r0, r4
 8008662:	b002      	add	sp, #8
 8008664:	e8bd 81f0 	ldmia.w	sp!, {r4, r5, r6, r7, r8, pc}
 8008668:	2401      	movs	r4, #1
 800866a:	e7f9      	b.n	8008660 <f_sync+0x8a>

0800866c <f_close>:
 800866c:	b513      	push	{r0, r1, r4, lr}
 800866e:	4604      	mov	r4, r0
 8008670:	f7ff ffb1 	bl	80085d6 <f_sync>
 8008674:	b948      	cbnz	r0, 800868a <f_close+0x1e>
 8008676:	a901      	add	r1, sp, #4
 8008678:	4620      	mov	r0, r4
 800867a:	f7fe fd1c 	bl	80070b6 <validate>
 800867e:	b920      	cbnz	r0, 800868a <f_close+0x1e>
 8008680:	6920      	ldr	r0, [r4, #16]
 8008682:	f7fe fc95 	bl	8006fb0 <dec_lock>
 8008686:	b900      	cbnz	r0, 800868a <f_close+0x1e>
 8008688:	6020      	str	r0, [r4, #0]
 800868a:	b002      	add	sp, #8
 800868c:	bd10      	pop	{r4, pc}

0800868e <f_lseek>:
 800868e:	e92d 4ff0 	stmdb	sp!, {r4, r5, r6, r7, r8, r9, sl, fp, lr}
 8008692:	b085      	sub	sp, #20
 8008694:	460d      	mov	r5, r1
 8008696:	a903      	add	r1, sp, #12
 8008698:	4604      	mov	r4, r0
 800869a:	f7fe fd0c 	bl	80070b6 <validate>
 800869e:	4606      	mov	r6, r0
 80086a0:	b9e8      	cbnz	r0, 80086de <f_lseek+0x50>
 80086a2:	7d66      	ldrb	r6, [r4, #21]
 80086a4:	b9de      	cbnz	r6, 80086de <f_lseek+0x50>
 80086a6:	6ae3      	ldr	r3, [r4, #44]	; 0x2c
 80086a8:	2b00      	cmp	r3, #0
 80086aa:	d07c      	beq.n	80087a6 <f_lseek+0x118>
 80086ac:	1c6a      	adds	r2, r5, #1
 80086ae:	d139      	bne.n	8008724 <f_lseek+0x96>
 80086b0:	461d      	mov	r5, r3
 80086b2:	f8d4 8008 	ldr.w	r8, [r4, #8]
 80086b6:	f855 bb04 	ldr.w	fp, [r5], #4
 80086ba:	2702      	movs	r7, #2
 80086bc:	f1b8 0f00 	cmp.w	r8, #0
 80086c0:	d028      	beq.n	8008714 <f_lseek+0x86>
 80086c2:	4640      	mov	r0, r8
 80086c4:	f04f 0a00 	mov.w	sl, #0
 80086c8:	4601      	mov	r1, r0
 80086ca:	4681      	mov	r9, r0
 80086cc:	6820      	ldr	r0, [r4, #0]
 80086ce:	f7ff f840 	bl	8007752 <get_fat.isra.0>
 80086d2:	2801      	cmp	r0, #1
 80086d4:	f10a 0a01 	add.w	sl, sl, #1
 80086d8:	d807      	bhi.n	80086ea <f_lseek+0x5c>
 80086da:	2602      	movs	r6, #2
 80086dc:	7566      	strb	r6, [r4, #21]
 80086de:	4630      	mov	r0, r6
 80086e0:	b005      	add	sp, #20
 80086e2:	e8bd 8ff0 	ldmia.w	sp!, {r4, r5, r6, r7, r8, r9, sl, fp, pc}
 80086e6:	4680      	mov	r8, r0
 80086e8:	e7eb      	b.n	80086c2 <f_lseek+0x34>
 80086ea:	1c43      	adds	r3, r0, #1
 80086ec:	d101      	bne.n	80086f2 <f_lseek+0x64>
 80086ee:	2601      	movs	r6, #1
 80086f0:	e7f4      	b.n	80086dc <f_lseek+0x4e>
 80086f2:	f109 0901 	add.w	r9, r9, #1
 80086f6:	4581      	cmp	r9, r0
 80086f8:	d0e6      	beq.n	80086c8 <f_lseek+0x3a>
 80086fa:	3702      	adds	r7, #2
 80086fc:	45bb      	cmp	fp, r7
 80086fe:	bf21      	itttt	cs
 8008700:	462b      	movcs	r3, r5
 8008702:	f843 ab08 	strcs.w	sl, [r3], #8
 8008706:	f8c5 8004 	strcs.w	r8, [r5, #4]
 800870a:	461d      	movcs	r5, r3
 800870c:	9b03      	ldr	r3, [sp, #12]
 800870e:	69db      	ldr	r3, [r3, #28]
 8008710:	4283      	cmp	r3, r0
 8008712:	d8e8      	bhi.n	80086e6 <f_lseek+0x58>
 8008714:	6ae3      	ldr	r3, [r4, #44]	; 0x2c
 8008716:	455f      	cmp	r7, fp
 8008718:	601f      	str	r7, [r3, #0]
 800871a:	f200 80be 	bhi.w	800889a <f_lseek+0x20c>
 800871e:	2300      	movs	r3, #0
 8008720:	602b      	str	r3, [r5, #0]
 8008722:	e7dc      	b.n	80086de <f_lseek+0x50>
 8008724:	68e3      	ldr	r3, [r4, #12]
 8008726:	429d      	cmp	r5, r3
 8008728:	bf28      	it	cs
 800872a:	461d      	movcs	r5, r3
 800872c:	46a8      	mov	r8, r5
 800872e:	61a5      	str	r5, [r4, #24]
 8008730:	2d00      	cmp	r5, #0
 8008732:	d0d4      	beq.n	80086de <f_lseek+0x50>
 8008734:	3d01      	subs	r5, #1
 8008736:	4629      	mov	r1, r5
 8008738:	4620      	mov	r0, r4
 800873a:	f7fe fc76 	bl	800702a <clmt_clust>
 800873e:	9f03      	ldr	r7, [sp, #12]
 8008740:	61e0      	str	r0, [r4, #28]
 8008742:	4601      	mov	r1, r0
 8008744:	4638      	mov	r0, r7
 8008746:	f7fe fc65 	bl	8007014 <clust2sect>
 800874a:	2800      	cmp	r0, #0
 800874c:	d0c5      	beq.n	80086da <f_lseek+0x4c>
 800874e:	89b9      	ldrh	r1, [r7, #12]
 8008750:	fbb8 f3f1 	udiv	r3, r8, r1
 8008754:	fb01 8313 	mls	r3, r1, r3, r8
 8008758:	897a      	ldrh	r2, [r7, #10]
 800875a:	2b00      	cmp	r3, #0
 800875c:	d0bf      	beq.n	80086de <f_lseek+0x50>
 800875e:	fbb5 f5f1 	udiv	r5, r5, r1
 8008762:	1e53      	subs	r3, r2, #1
 8008764:	401d      	ands	r5, r3
 8008766:	4405      	add	r5, r0
 8008768:	6a22      	ldr	r2, [r4, #32]
 800876a:	42aa      	cmp	r2, r5
 800876c:	d0b7      	beq.n	80086de <f_lseek+0x50>
 800876e:	f994 3014 	ldrsb.w	r3, [r4, #20]
 8008772:	7878      	ldrb	r0, [r7, #1]
 8008774:	2b00      	cmp	r3, #0
 8008776:	f104 0130 	add.w	r1, r4, #48	; 0x30
 800877a:	da0a      	bge.n	8008792 <f_lseek+0x104>
 800877c:	2301      	movs	r3, #1
 800877e:	9101      	str	r1, [sp, #4]
 8008780:	f7fe fb7c 	bl	8006e7c <disk_write>
 8008784:	2800      	cmp	r0, #0
 8008786:	d1b2      	bne.n	80086ee <f_lseek+0x60>
 8008788:	7d23      	ldrb	r3, [r4, #20]
 800878a:	9901      	ldr	r1, [sp, #4]
 800878c:	f003 037f 	and.w	r3, r3, #127	; 0x7f
 8008790:	7523      	strb	r3, [r4, #20]
 8008792:	7878      	ldrb	r0, [r7, #1]
 8008794:	2301      	movs	r3, #1
 8008796:	462a      	mov	r2, r5
 8008798:	f7fe fb62 	bl	8006e60 <disk_read>
 800879c:	4606      	mov	r6, r0
 800879e:	2800      	cmp	r0, #0
 80087a0:	d1a5      	bne.n	80086ee <f_lseek+0x60>
 80087a2:	6225      	str	r5, [r4, #32]
 80087a4:	e79b      	b.n	80086de <f_lseek+0x50>
 80087a6:	68e3      	ldr	r3, [r4, #12]
 80087a8:	42ab      	cmp	r3, r5
 80087aa:	d204      	bcs.n	80087b6 <f_lseek+0x128>
 80087ac:	7d22      	ldrb	r2, [r4, #20]
 80087ae:	f012 0f02 	tst.w	r2, #2
 80087b2:	bf08      	it	eq
 80087b4:	461d      	moveq	r5, r3
 80087b6:	9f03      	ldr	r7, [sp, #12]
 80087b8:	69a3      	ldr	r3, [r4, #24]
 80087ba:	2200      	movs	r2, #0
 80087bc:	61a2      	str	r2, [r4, #24]
 80087be:	89ba      	ldrh	r2, [r7, #12]
 80087c0:	b995      	cbnz	r5, 80087e8 <f_lseek+0x15a>
 80087c2:	2500      	movs	r5, #0
 80087c4:	68e2      	ldr	r2, [r4, #12]
 80087c6:	69a3      	ldr	r3, [r4, #24]
 80087c8:	4293      	cmp	r3, r2
 80087ca:	bf81      	itttt	hi
 80087cc:	7d22      	ldrbhi	r2, [r4, #20]
 80087ce:	60e3      	strhi	r3, [r4, #12]
 80087d0:	f042 0240 	orrhi.w	r2, r2, #64	; 0x40
 80087d4:	7522      	strbhi	r2, [r4, #20]
 80087d6:	89ba      	ldrh	r2, [r7, #12]
 80087d8:	fbb3 f1f2 	udiv	r1, r3, r2
 80087dc:	fb02 3311 	mls	r3, r2, r1, r3
 80087e0:	2b00      	cmp	r3, #0
 80087e2:	f43f af7c 	beq.w	80086de <f_lseek+0x50>
 80087e6:	e7bf      	b.n	8008768 <f_lseek+0xda>
 80087e8:	f8b7 800a 	ldrh.w	r8, [r7, #10]
 80087ec:	fb02 f808 	mul.w	r8, r2, r8
 80087f0:	b323      	cbz	r3, 800883c <f_lseek+0x1ae>
 80087f2:	3b01      	subs	r3, #1
 80087f4:	1e6a      	subs	r2, r5, #1
 80087f6:	fbb3 f1f8 	udiv	r1, r3, r8
 80087fa:	fbb2 f2f8 	udiv	r2, r2, r8
 80087fe:	428a      	cmp	r2, r1
 8008800:	d31c      	bcc.n	800883c <f_lseek+0x1ae>
 8008802:	f1c8 0200 	rsb	r2, r8, #0
 8008806:	4013      	ands	r3, r2
 8008808:	69e1      	ldr	r1, [r4, #28]
 800880a:	61a3      	str	r3, [r4, #24]
 800880c:	1aed      	subs	r5, r5, r3
 800880e:	2900      	cmp	r1, #0
 8008810:	d0d7      	beq.n	80087c2 <f_lseek+0x134>
 8008812:	4545      	cmp	r5, r8
 8008814:	69a3      	ldr	r3, [r4, #24]
 8008816:	d820      	bhi.n	800885a <f_lseek+0x1cc>
 8008818:	69a3      	ldr	r3, [r4, #24]
 800881a:	442b      	add	r3, r5
 800881c:	61a3      	str	r3, [r4, #24]
 800881e:	89bb      	ldrh	r3, [r7, #12]
 8008820:	fbb5 f2f3 	udiv	r2, r5, r3
 8008824:	fb03 5512 	mls	r5, r3, r2, r5
 8008828:	2d00      	cmp	r5, #0
 800882a:	d0ca      	beq.n	80087c2 <f_lseek+0x134>
 800882c:	4638      	mov	r0, r7
 800882e:	f7fe fbf1 	bl	8007014 <clust2sect>
 8008832:	2800      	cmp	r0, #0
 8008834:	f43f af51 	beq.w	80086da <f_lseek+0x4c>
 8008838:	1815      	adds	r5, r2, r0
 800883a:	e7c3      	b.n	80087c4 <f_lseek+0x136>
 800883c:	68a1      	ldr	r1, [r4, #8]
 800883e:	b951      	cbnz	r1, 8008856 <f_lseek+0x1c8>
 8008840:	4620      	mov	r0, r4
 8008842:	f7ff f829 	bl	8007898 <create_chain>
 8008846:	2801      	cmp	r0, #1
 8008848:	4601      	mov	r1, r0
 800884a:	f43f af46 	beq.w	80086da <f_lseek+0x4c>
 800884e:	1c48      	adds	r0, r1, #1
 8008850:	f43f af4d 	beq.w	80086ee <f_lseek+0x60>
 8008854:	60a1      	str	r1, [r4, #8]
 8008856:	61e1      	str	r1, [r4, #28]
 8008858:	e7d9      	b.n	800880e <f_lseek+0x180>
 800885a:	4443      	add	r3, r8
 800885c:	61a3      	str	r3, [r4, #24]
 800885e:	7d23      	ldrb	r3, [r4, #20]
 8008860:	079a      	lsls	r2, r3, #30
 8008862:	eba5 0908 	sub.w	r9, r5, r8
 8008866:	d506      	bpl.n	8008876 <f_lseek+0x1e8>
 8008868:	4620      	mov	r0, r4
 800886a:	f7ff f815 	bl	8007898 <create_chain>
 800886e:	4605      	mov	r5, r0
 8008870:	b928      	cbnz	r0, 800887e <f_lseek+0x1f0>
 8008872:	4601      	mov	r1, r0
 8008874:	e7d0      	b.n	8008818 <f_lseek+0x18a>
 8008876:	6820      	ldr	r0, [r4, #0]
 8008878:	f7fe ff6b 	bl	8007752 <get_fat.isra.0>
 800887c:	4605      	mov	r5, r0
 800887e:	1c6b      	adds	r3, r5, #1
 8008880:	f43f af35 	beq.w	80086ee <f_lseek+0x60>
 8008884:	2d01      	cmp	r5, #1
 8008886:	f67f af28 	bls.w	80086da <f_lseek+0x4c>
 800888a:	69fb      	ldr	r3, [r7, #28]
 800888c:	42ab      	cmp	r3, r5
 800888e:	f67f af24 	bls.w	80086da <f_lseek+0x4c>
 8008892:	61e5      	str	r5, [r4, #28]
 8008894:	4629      	mov	r1, r5
 8008896:	464d      	mov	r5, r9
 8008898:	e7bb      	b.n	8008812 <f_lseek+0x184>
 800889a:	2611      	movs	r6, #17
 800889c:	e71f      	b.n	80086de <f_lseek+0x50>

0800889e <f_opendir>:
 800889e:	b530      	push	{r4, r5, lr}
 80088a0:	b085      	sub	sp, #20
 80088a2:	4604      	mov	r4, r0
 80088a4:	9101      	str	r1, [sp, #4]
 80088a6:	2800      	cmp	r0, #0
 80088a8:	d037      	beq.n	800891a <f_opendir+0x7c>
 80088aa:	a903      	add	r1, sp, #12
 80088ac:	2200      	movs	r2, #0
 80088ae:	a801      	add	r0, sp, #4
 80088b0:	f7fe fd1a 	bl	80072e8 <find_volume>
 80088b4:	4601      	mov	r1, r0
 80088b6:	b978      	cbnz	r0, 80088d8 <f_opendir+0x3a>
 80088b8:	9d03      	ldr	r5, [sp, #12]
 80088ba:	9901      	ldr	r1, [sp, #4]
 80088bc:	6025      	str	r5, [r4, #0]
 80088be:	4620      	mov	r0, r4
 80088c0:	f7ff fb6e 	bl	8007fa0 <follow_path>
 80088c4:	4601      	mov	r1, r0
 80088c6:	bb18      	cbnz	r0, 8008910 <f_opendir+0x72>
 80088c8:	f994 302f 	ldrsb.w	r3, [r4, #47]	; 0x2f
 80088cc:	2b00      	cmp	r3, #0
 80088ce:	db0b      	blt.n	80088e8 <f_opendir+0x4a>
 80088d0:	79a3      	ldrb	r3, [r4, #6]
 80088d2:	06db      	lsls	r3, r3, #27
 80088d4:	d403      	bmi.n	80088de <f_opendir+0x40>
 80088d6:	2105      	movs	r1, #5
 80088d8:	2300      	movs	r3, #0
 80088da:	6023      	str	r3, [r4, #0]
 80088dc:	e013      	b.n	8008906 <f_opendir+0x68>
 80088de:	7828      	ldrb	r0, [r5, #0]
 80088e0:	6a21      	ldr	r1, [r4, #32]
 80088e2:	f7fe ff2e 	bl	8007742 <ld_clust.isra.0>
 80088e6:	60a0      	str	r0, [r4, #8]
 80088e8:	88eb      	ldrh	r3, [r5, #6]
 80088ea:	80a3      	strh	r3, [r4, #4]
 80088ec:	2100      	movs	r1, #0
 80088ee:	4620      	mov	r0, r4
 80088f0:	f7ff f82a 	bl	8007948 <dir_sdi>
 80088f4:	4601      	mov	r1, r0
 80088f6:	b958      	cbnz	r0, 8008910 <f_opendir+0x72>
 80088f8:	68a3      	ldr	r3, [r4, #8]
 80088fa:	b13b      	cbz	r3, 800890c <f_opendir+0x6e>
 80088fc:	4620      	mov	r0, r4
 80088fe:	f7fe fb17 	bl	8006f30 <inc_lock>
 8008902:	6120      	str	r0, [r4, #16]
 8008904:	b138      	cbz	r0, 8008916 <f_opendir+0x78>
 8008906:	4608      	mov	r0, r1
 8008908:	b005      	add	sp, #20
 800890a:	bd30      	pop	{r4, r5, pc}
 800890c:	6120      	str	r0, [r4, #16]
 800890e:	e7fa      	b.n	8008906 <f_opendir+0x68>
 8008910:	2904      	cmp	r1, #4
 8008912:	d0e0      	beq.n	80088d6 <f_opendir+0x38>
 8008914:	e7e0      	b.n	80088d8 <f_opendir+0x3a>
 8008916:	2112      	movs	r1, #18
 8008918:	e7de      	b.n	80088d8 <f_opendir+0x3a>
 800891a:	2109      	movs	r1, #9
 800891c:	e7f3      	b.n	8008906 <f_opendir+0x68>

0800891e <f_closedir>:
 800891e:	b537      	push	{r0, r1, r2, r4, r5, lr}
 8008920:	a901      	add	r1, sp, #4
 8008922:	4605      	mov	r5, r0
 8008924:	f7fe fbc7 	bl	80070b6 <validate>
 8008928:	4604      	mov	r4, r0
 800892a:	b918      	cbnz	r0, 8008934 <f_closedir+0x16>
 800892c:	6928      	ldr	r0, [r5, #16]
 800892e:	b920      	cbnz	r0, 800893a <f_closedir+0x1c>
 8008930:	2300      	movs	r3, #0
 8008932:	602b      	str	r3, [r5, #0]
 8008934:	4620      	mov	r0, r4
 8008936:	b003      	add	sp, #12
 8008938:	bd30      	pop	{r4, r5, pc}
 800893a:	f7fe fb39 	bl	8006fb0 <dec_lock>
 800893e:	2800      	cmp	r0, #0
 8008940:	d0f6      	beq.n	8008930 <f_closedir+0x12>
 8008942:	4604      	mov	r4, r0
 8008944:	e7f6      	b.n	8008934 <f_closedir+0x16>

08008946 <f_readdir>:
 8008946:	b573      	push	{r0, r1, r4, r5, r6, lr}
 8008948:	460d      	mov	r5, r1
 800894a:	a901      	add	r1, sp, #4
 800894c:	4604      	mov	r4, r0
 800894e:	f7fe fbb2 	bl	80070b6 <validate>
 8008952:	b9c0      	cbnz	r0, 8008986 <f_readdir+0x40>
 8008954:	b935      	cbnz	r5, 8008964 <f_readdir+0x1e>
 8008956:	4629      	mov	r1, r5
 8008958:	4620      	mov	r0, r4
 800895a:	b002      	add	sp, #8
 800895c:	e8bd 4070 	ldmia.w	sp!, {r4, r5, r6, lr}
 8008960:	f7fe bff2 	b.w	8007948 <dir_sdi>
 8008964:	4620      	mov	r0, r4
 8008966:	f7ff faa1 	bl	8007eac <dir_read.constprop.0>
 800896a:	f010 06fb 	ands.w	r6, r0, #251	; 0xfb
 800896e:	d10a      	bne.n	8008986 <f_readdir+0x40>
 8008970:	4629      	mov	r1, r5
 8008972:	4620      	mov	r0, r4
 8008974:	f7fe fbb9 	bl	80070ea <get_fileinfo>
 8008978:	4631      	mov	r1, r6
 800897a:	4620      	mov	r0, r4
 800897c:	f7ff f827 	bl	80079ce <dir_next>
 8008980:	2804      	cmp	r0, #4
 8008982:	bf08      	it	eq
 8008984:	2000      	moveq	r0, #0
 8008986:	b002      	add	sp, #8
 8008988:	bd70      	pop	{r4, r5, r6, pc}
	...

0800898c <FATFS_LinkDriverEx>:
 800898c:	b530      	push	{r4, r5, lr}
 800898e:	4b0e      	ldr	r3, [pc, #56]	; (80089c8 <FATFS_LinkDriverEx+0x3c>)
 8008990:	7a5d      	ldrb	r5, [r3, #9]
 8008992:	f005 04ff 	and.w	r4, r5, #255	; 0xff
 8008996:	b9ad      	cbnz	r5, 80089c4 <FATFS_LinkDriverEx+0x38>
 8008998:	7a5d      	ldrb	r5, [r3, #9]
 800899a:	555c      	strb	r4, [r3, r5]
 800899c:	7a5d      	ldrb	r5, [r3, #9]
 800899e:	eb03 0585 	add.w	r5, r3, r5, lsl #2
 80089a2:	6068      	str	r0, [r5, #4]
 80089a4:	7a58      	ldrb	r0, [r3, #9]
 80089a6:	4418      	add	r0, r3
 80089a8:	7202      	strb	r2, [r0, #8]
 80089aa:	7a5a      	ldrb	r2, [r3, #9]
 80089ac:	1c50      	adds	r0, r2, #1
 80089ae:	b2c0      	uxtb	r0, r0
 80089b0:	7258      	strb	r0, [r3, #9]
 80089b2:	233a      	movs	r3, #58	; 0x3a
 80089b4:	3230      	adds	r2, #48	; 0x30
 80089b6:	704b      	strb	r3, [r1, #1]
 80089b8:	232f      	movs	r3, #47	; 0x2f
 80089ba:	700a      	strb	r2, [r1, #0]
 80089bc:	708b      	strb	r3, [r1, #2]
 80089be:	70cc      	strb	r4, [r1, #3]
 80089c0:	4620      	mov	r0, r4
 80089c2:	bd30      	pop	{r4, r5, pc}
 80089c4:	2401      	movs	r4, #1
 80089c6:	e7fb      	b.n	80089c0 <FATFS_LinkDriverEx+0x34>
 80089c8:	200026f0 	.word	0x200026f0

080089cc <FATFS_LinkDriver>:
 80089cc:	2200      	movs	r2, #0
 80089ce:	f7ff bfdd 	b.w	800898c <FATFS_LinkDriverEx>
	...

080089d4 <ff_convert>:
 80089d4:	287f      	cmp	r0, #127	; 0x7f
 80089d6:	b510      	push	{r4, lr}
 80089d8:	d906      	bls.n	80089e8 <ff_convert+0x14>
 80089da:	b131      	cbz	r1, 80089ea <ff_convert+0x16>
 80089dc:	28ff      	cmp	r0, #255	; 0xff
 80089de:	d811      	bhi.n	8008a04 <ff_convert+0x30>
 80089e0:	4b09      	ldr	r3, [pc, #36]	; (8008a08 <ff_convert+0x34>)
 80089e2:	3880      	subs	r0, #128	; 0x80
 80089e4:	f833 0010 	ldrh.w	r0, [r3, r0, lsl #1]
 80089e8:	bd10      	pop	{r4, pc}
 80089ea:	4a07      	ldr	r2, [pc, #28]	; (8008a08 <ff_convert+0x34>)
 80089ec:	f832 4b02 	ldrh.w	r4, [r2], #2
 80089f0:	4284      	cmp	r4, r0
 80089f2:	b28b      	uxth	r3, r1
 80089f4:	d003      	beq.n	80089fe <ff_convert+0x2a>
 80089f6:	3101      	adds	r1, #1
 80089f8:	2980      	cmp	r1, #128	; 0x80
 80089fa:	d1f7      	bne.n	80089ec <ff_convert+0x18>
 80089fc:	460b      	mov	r3, r1
 80089fe:	3380      	adds	r3, #128	; 0x80
 8008a00:	b2d8      	uxtb	r0, r3
 8008a02:	e7f1      	b.n	80089e8 <ff_convert+0x14>
 8008a04:	2000      	movs	r0, #0
 8008a06:	e7ef      	b.n	80089e8 <ff_convert+0x14>
 8008a08:	0800a742 	.word	0x0800a742

08008a0c <ff_wtoupper>:
 8008a0c:	b570      	push	{r4, r5, r6, lr}
 8008a0e:	4b1e      	ldr	r3, [pc, #120]	; (8008a88 <ff_wtoupper+0x7c>)
 8008a10:	4a1e      	ldr	r2, [pc, #120]	; (8008a8c <ff_wtoupper+0x80>)
 8008a12:	f5b0 5f80 	cmp.w	r0, #4096	; 0x1000
 8008a16:	bf28      	it	cs
 8008a18:	4613      	movcs	r3, r2
 8008a1a:	1d19      	adds	r1, r3, #4
 8008a1c:	f831 3c04 	ldrh.w	r3, [r1, #-4]
 8008a20:	460a      	mov	r2, r1
 8008a22:	b1ab      	cbz	r3, 8008a50 <ff_wtoupper+0x44>
 8008a24:	4298      	cmp	r0, r3
 8008a26:	d313      	bcc.n	8008a50 <ff_wtoupper+0x44>
 8008a28:	f831 4c02 	ldrh.w	r4, [r1, #-2]
 8008a2c:	0a25      	lsrs	r5, r4, #8
 8008a2e:	b2e6      	uxtb	r6, r4
 8008a30:	fa53 f484 	uxtab	r4, r3, r4
 8008a34:	42a0      	cmp	r0, r4
 8008a36:	da21      	bge.n	8008a7c <ff_wtoupper+0x70>
 8008a38:	2d08      	cmp	r5, #8
 8008a3a:	d809      	bhi.n	8008a50 <ff_wtoupper+0x44>
 8008a3c:	e8df f005 	tbb	[pc, r5]
 8008a40:	110f0905 	.word	0x110f0905
 8008a44:	19171513 	.word	0x19171513
 8008a48:	1b          	.byte	0x1b
 8008a49:	00          	.byte	0x00
 8008a4a:	1ac0      	subs	r0, r0, r3
 8008a4c:	f831 0010 	ldrh.w	r0, [r1, r0, lsl #1]
 8008a50:	bd70      	pop	{r4, r5, r6, pc}
 8008a52:	1ac3      	subs	r3, r0, r3
 8008a54:	f003 0301 	and.w	r3, r3, #1
 8008a58:	1ac0      	subs	r0, r0, r3
 8008a5a:	b280      	uxth	r0, r0
 8008a5c:	e7f8      	b.n	8008a50 <ff_wtoupper+0x44>
 8008a5e:	3810      	subs	r0, #16
 8008a60:	e7fb      	b.n	8008a5a <ff_wtoupper+0x4e>
 8008a62:	3820      	subs	r0, #32
 8008a64:	e7f9      	b.n	8008a5a <ff_wtoupper+0x4e>
 8008a66:	3830      	subs	r0, #48	; 0x30
 8008a68:	e7f7      	b.n	8008a5a <ff_wtoupper+0x4e>
 8008a6a:	381a      	subs	r0, #26
 8008a6c:	e7f5      	b.n	8008a5a <ff_wtoupper+0x4e>
 8008a6e:	3008      	adds	r0, #8
 8008a70:	e7f3      	b.n	8008a5a <ff_wtoupper+0x4e>
 8008a72:	3850      	subs	r0, #80	; 0x50
 8008a74:	e7f1      	b.n	8008a5a <ff_wtoupper+0x4e>
 8008a76:	f5a0 50e3 	sub.w	r0, r0, #7264	; 0x1c60
 8008a7a:	e7ee      	b.n	8008a5a <ff_wtoupper+0x4e>
 8008a7c:	3104      	adds	r1, #4
 8008a7e:	2d00      	cmp	r5, #0
 8008a80:	d1cc      	bne.n	8008a1c <ff_wtoupper+0x10>
 8008a82:	eb02 0346 	add.w	r3, r2, r6, lsl #1
 8008a86:	e7c8      	b.n	8008a1a <ff_wtoupper+0xe>
 8008a88:	0800a842 	.word	0x0800a842
 8008a8c:	0800aa34 	.word	0x0800aa34

08008a90 <USBH_UserProcess>:
 8008a90:	2904      	cmp	r1, #4
 8008a92:	d00a      	beq.n	8008aaa <USBH_UserProcess+0x1a>
 8008a94:	2905      	cmp	r1, #5
 8008a96:	d004      	beq.n	8008aa2 <USBH_UserProcess+0x12>
 8008a98:	2902      	cmp	r1, #2
 8008a9a:	d105      	bne.n	8008aa8 <USBH_UserProcess+0x18>
 8008a9c:	4b04      	ldr	r3, [pc, #16]	; (8008ab0 <USBH_UserProcess+0x20>)
 8008a9e:	7019      	strb	r1, [r3, #0]
 8008aa0:	4770      	bx	lr
 8008aa2:	4b03      	ldr	r3, [pc, #12]	; (8008ab0 <USBH_UserProcess+0x20>)
 8008aa4:	2203      	movs	r2, #3
 8008aa6:	701a      	strb	r2, [r3, #0]
 8008aa8:	4770      	bx	lr
 8008aaa:	4b01      	ldr	r3, [pc, #4]	; (8008ab0 <USBH_UserProcess+0x20>)
 8008aac:	2201      	movs	r2, #1
 8008aae:	e7fa      	b.n	8008aa6 <USBH_UserProcess+0x16>
 8008ab0:	200026fc 	.word	0x200026fc

08008ab4 <MX_USB_HOST_Init>:
 8008ab4:	b508      	push	{r3, lr}
 8008ab6:	490c      	ldr	r1, [pc, #48]	; (8008ae8 <MX_USB_HOST_Init+0x34>)
 8008ab8:	480c      	ldr	r0, [pc, #48]	; (8008aec <MX_USB_HOST_Init+0x38>)
 8008aba:	2201      	movs	r2, #1
 8008abc:	f7fd fc2e 	bl	800631c <USBH_Init>
 8008ac0:	b108      	cbz	r0, 8008ac6 <MX_USB_HOST_Init+0x12>
 8008ac2:	f7f8 fd95 	bl	80015f0 <Error_Handler>
 8008ac6:	490a      	ldr	r1, [pc, #40]	; (8008af0 <MX_USB_HOST_Init+0x3c>)
 8008ac8:	4808      	ldr	r0, [pc, #32]	; (8008aec <MX_USB_HOST_Init+0x38>)
 8008aca:	f7fd fc44 	bl	8006356 <USBH_RegisterClass>
 8008ace:	b108      	cbz	r0, 8008ad4 <MX_USB_HOST_Init+0x20>
 8008ad0:	f7f8 fd8e 	bl	80015f0 <Error_Handler>
 8008ad4:	4805      	ldr	r0, [pc, #20]	; (8008aec <MX_USB_HOST_Init+0x38>)
 8008ad6:	f7fd fc70 	bl	80063ba <USBH_Start>
 8008ada:	b118      	cbz	r0, 8008ae4 <MX_USB_HOST_Init+0x30>
 8008adc:	e8bd 4008 	ldmia.w	sp!, {r3, lr}
 8008ae0:	f7f8 bd86 	b.w	80015f0 <Error_Handler>
 8008ae4:	bd08      	pop	{r3, pc}
 8008ae6:	bf00      	nop
 8008ae8:	08008a91 	.word	0x08008a91
 8008aec:	20002700 	.word	0x20002700
 8008af0:	2000008c 	.word	0x2000008c

08008af4 <MX_USB_HOST_Process>:
 8008af4:	4801      	ldr	r0, [pc, #4]	; (8008afc <MX_USB_HOST_Process+0x8>)
 8008af6:	f7fd bc6a 	b.w	80063ce <USBH_Process>
 8008afa:	bf00      	nop
 8008afc:	20002700 	.word	0x20002700

08008b00 <HAL_HCD_MspInit>:
 8008b00:	b530      	push	{r4, r5, lr}
 8008b02:	4604      	mov	r4, r0
 8008b04:	b089      	sub	sp, #36	; 0x24
 8008b06:	2214      	movs	r2, #20
 8008b08:	2100      	movs	r1, #0
 8008b0a:	a803      	add	r0, sp, #12
 8008b0c:	f000 f9d6 	bl	8008ebc <memset>
 8008b10:	6823      	ldr	r3, [r4, #0]
 8008b12:	f1b3 4fa0 	cmp.w	r3, #1342177280	; 0x50000000
 8008b16:	d136      	bne.n	8008b86 <HAL_HCD_MspInit+0x86>
 8008b18:	4c1c      	ldr	r4, [pc, #112]	; (8008b8c <HAL_HCD_MspInit+0x8c>)
 8008b1a:	481d      	ldr	r0, [pc, #116]	; (8008b90 <HAL_HCD_MspInit+0x90>)
 8008b1c:	2500      	movs	r5, #0
 8008b1e:	9501      	str	r5, [sp, #4]
 8008b20:	6b23      	ldr	r3, [r4, #48]	; 0x30
 8008b22:	f043 0301 	orr.w	r3, r3, #1
 8008b26:	6323      	str	r3, [r4, #48]	; 0x30
 8008b28:	6b23      	ldr	r3, [r4, #48]	; 0x30
 8008b2a:	f003 0301 	and.w	r3, r3, #1
 8008b2e:	9301      	str	r3, [sp, #4]
 8008b30:	9b01      	ldr	r3, [sp, #4]
 8008b32:	a903      	add	r1, sp, #12
 8008b34:	f44f 7300 	mov.w	r3, #512	; 0x200
 8008b38:	9303      	str	r3, [sp, #12]
 8008b3a:	f7f9 fc51 	bl	80023e0 <HAL_GPIO_Init>
 8008b3e:	f44f 52c0 	mov.w	r2, #6144	; 0x1800
 8008b42:	2302      	movs	r3, #2
 8008b44:	e9cd 2303 	strd	r2, r3, [sp, #12]
 8008b48:	2103      	movs	r1, #3
 8008b4a:	230a      	movs	r3, #10
 8008b4c:	e9cd 1306 	strd	r1, r3, [sp, #24]
 8008b50:	480f      	ldr	r0, [pc, #60]	; (8008b90 <HAL_HCD_MspInit+0x90>)
 8008b52:	9505      	str	r5, [sp, #20]
 8008b54:	a903      	add	r1, sp, #12
 8008b56:	f7f9 fc43 	bl	80023e0 <HAL_GPIO_Init>
 8008b5a:	6b63      	ldr	r3, [r4, #52]	; 0x34
 8008b5c:	f043 0380 	orr.w	r3, r3, #128	; 0x80
 8008b60:	6363      	str	r3, [r4, #52]	; 0x34
 8008b62:	9502      	str	r5, [sp, #8]
 8008b64:	6c63      	ldr	r3, [r4, #68]	; 0x44
 8008b66:	f443 4380 	orr.w	r3, r3, #16384	; 0x4000
 8008b6a:	6463      	str	r3, [r4, #68]	; 0x44
 8008b6c:	6c63      	ldr	r3, [r4, #68]	; 0x44
 8008b6e:	f403 4380 	and.w	r3, r3, #16384	; 0x4000
 8008b72:	9302      	str	r3, [sp, #8]
 8008b74:	2043      	movs	r0, #67	; 0x43
 8008b76:	462a      	mov	r2, r5
 8008b78:	4629      	mov	r1, r5
 8008b7a:	9b02      	ldr	r3, [sp, #8]
 8008b7c:	f7f9 f9d4 	bl	8001f28 <HAL_NVIC_SetPriority>
 8008b80:	2043      	movs	r0, #67	; 0x43
 8008b82:	f7f9 fa03 	bl	8001f8c <HAL_NVIC_EnableIRQ>
 8008b86:	b009      	add	sp, #36	; 0x24
 8008b88:	bd30      	pop	{r4, r5, pc}
 8008b8a:	bf00      	nop
 8008b8c:	40023800 	.word	0x40023800
 8008b90:	40020000 	.word	0x40020000

08008b94 <HAL_HCD_SOF_Callback>:
 8008b94:	f8d0 0300 	ldr.w	r0, [r0, #768]	; 0x300
 8008b98:	f7fd be09 	b.w	80067ae <USBH_LL_IncTimer>

08008b9c <HAL_HCD_Connect_Callback>:
 8008b9c:	f8d0 0300 	ldr.w	r0, [r0, #768]	; 0x300
 8008ba0:	f7fd be1b 	b.w	80067da <USBH_LL_Connect>

08008ba4 <HAL_HCD_Disconnect_Callback>:
 8008ba4:	f8d0 0300 	ldr.w	r0, [r0, #768]	; 0x300
 8008ba8:	f7fd be21 	b.w	80067ee <USBH_LL_Disconnect>

08008bac <HAL_HCD_HC_NotifyURBChange_Callback>:
 8008bac:	4770      	bx	lr

08008bae <HAL_HCD_PortEnabled_Callback>:
 8008bae:	f8d0 0300 	ldr.w	r0, [r0, #768]	; 0x300
 8008bb2:	f7fd be0a 	b.w	80067ca <USBH_LL_PortEnabled>

08008bb6 <HAL_HCD_PortDisabled_Callback>:
 8008bb6:	f8d0 0300 	ldr.w	r0, [r0, #768]	; 0x300
 8008bba:	f7fd be0a 	b.w	80067d2 <USBH_LL_PortDisabled>
	...

08008bc0 <USBH_LL_Init>:
 8008bc0:	b510      	push	{r4, lr}
 8008bc2:	f890 33cc 	ldrb.w	r3, [r0, #972]	; 0x3cc
 8008bc6:	2b01      	cmp	r3, #1
 8008bc8:	4604      	mov	r4, r0
 8008bca:	d11b      	bne.n	8008c04 <USBH_LL_Init+0x44>
 8008bcc:	480e      	ldr	r0, [pc, #56]	; (8008c08 <USBH_LL_Init+0x48>)
 8008bce:	f8c4 03d0 	str.w	r0, [r4, #976]	; 0x3d0
 8008bd2:	f04f 42a0 	mov.w	r2, #1342177280	; 0x50000000
 8008bd6:	6002      	str	r2, [r0, #0]
 8008bd8:	2208      	movs	r2, #8
 8008bda:	e9c0 2302 	strd	r2, r3, [r0, #8]
 8008bde:	2300      	movs	r3, #0
 8008be0:	2202      	movs	r2, #2
 8008be2:	e9c0 2306 	strd	r2, r3, [r0, #24]
 8008be6:	f8c0 4300 	str.w	r4, [r0, #768]	; 0x300
 8008bea:	6103      	str	r3, [r0, #16]
 8008bec:	f7f9 fd96 	bl	800271c <HAL_HCD_Init>
 8008bf0:	b108      	cbz	r0, 8008bf6 <USBH_LL_Init+0x36>
 8008bf2:	f7f8 fcfd 	bl	80015f0 <Error_Handler>
 8008bf6:	4804      	ldr	r0, [pc, #16]	; (8008c08 <USBH_LL_Init+0x48>)
 8008bf8:	f7fa f99b 	bl	8002f32 <HAL_HCD_GetCurrentFrame>
 8008bfc:	4601      	mov	r1, r0
 8008bfe:	4620      	mov	r0, r4
 8008c00:	f7fd fdd2 	bl	80067a8 <USBH_LL_SetTimer>
 8008c04:	2000      	movs	r0, #0
 8008c06:	bd10      	pop	{r4, pc}
 8008c08:	20002ad8 	.word	0x20002ad8

08008c0c <USBH_LL_GetSpeed>:
 8008c0c:	b508      	push	{r3, lr}
 8008c0e:	f8d0 03d0 	ldr.w	r0, [r0, #976]	; 0x3d0
 8008c12:	f7fa f991 	bl	8002f38 <HAL_HCD_GetCurrentSpeed>
 8008c16:	2803      	cmp	r0, #3
 8008c18:	bf28      	it	cs
 8008c1a:	2001      	movcs	r0, #1
 8008c1c:	b2c0      	uxtb	r0, r0
 8008c1e:	bd08      	pop	{r3, pc}

08008c20 <USBH_LL_GetLastXferSize>:
 8008c20:	f8d0 03d0 	ldr.w	r0, [r0, #976]	; 0x3d0
 8008c24:	f7fa b980 	b.w	8002f28 <HAL_HCD_HC_GetXferCount>

08008c28 <USBH_LL_GetURBState>:
 8008c28:	f8d0 03d0 	ldr.w	r0, [r0, #976]	; 0x3d0
 8008c2c:	f7fa b976 	b.w	8002f1c <HAL_HCD_HC_GetURBState>

08008c30 <USBH_LL_DriverVBUS>:
 8008c30:	b508      	push	{r3, lr}
 8008c32:	f890 33cc 	ldrb.w	r3, [r0, #972]	; 0x3cc
 8008c36:	2b01      	cmp	r3, #1
 8008c38:	d102      	bne.n	8008c40 <USBH_LL_DriverVBUS+0x10>
 8008c3a:	4608      	mov	r0, r1
 8008c3c:	f000 f878 	bl	8008d30 <MX_DriverVbusFS>
 8008c40:	20c8      	movs	r0, #200	; 0xc8
 8008c42:	f7f9 f94b 	bl	8001edc <HAL_Delay>
 8008c46:	2000      	movs	r0, #0
 8008c48:	bd08      	pop	{r3, pc}

08008c4a <USBH_LL_SetToggle>:
 8008c4a:	f8d0 33d0 	ldr.w	r3, [r0, #976]	; 0x3d0
 8008c4e:	202c      	movs	r0, #44	; 0x2c
 8008c50:	fb00 3101 	mla	r1, r0, r1, r3
 8008c54:	f891 303b 	ldrb.w	r3, [r1, #59]	; 0x3b
 8008c58:	b11b      	cbz	r3, 8008c62 <USBH_LL_SetToggle+0x18>
 8008c5a:	f881 2054 	strb.w	r2, [r1, #84]	; 0x54
 8008c5e:	2000      	movs	r0, #0
 8008c60:	4770      	bx	lr
 8008c62:	f881 2055 	strb.w	r2, [r1, #85]	; 0x55
 8008c66:	e7fa      	b.n	8008c5e <USBH_LL_SetToggle+0x14>

08008c68 <USBH_LL_GetToggle>:
 8008c68:	f8d0 33d0 	ldr.w	r3, [r0, #976]	; 0x3d0
 8008c6c:	222c      	movs	r2, #44	; 0x2c
 8008c6e:	fb02 3101 	mla	r1, r2, r1, r3
 8008c72:	f891 303b 	ldrb.w	r3, [r1, #59]	; 0x3b
 8008c76:	b113      	cbz	r3, 8008c7e <USBH_LL_GetToggle+0x16>
 8008c78:	f891 0054 	ldrb.w	r0, [r1, #84]	; 0x54
 8008c7c:	4770      	bx	lr
 8008c7e:	f891 0055 	ldrb.w	r0, [r1, #85]	; 0x55
 8008c82:	4770      	bx	lr

08008c84 <USBH_Delay>:
 8008c84:	f7f9 b92a 	b.w	8001edc <HAL_Delay>

08008c88 <USBH_Get_USB_Status>:
 8008c88:	2803      	cmp	r0, #3
 8008c8a:	bf9a      	itte	ls
 8008c8c:	4b01      	ldrls	r3, [pc, #4]	; (8008c94 <USBH_Get_USB_Status+0xc>)
 8008c8e:	5c18      	ldrbls	r0, [r3, r0]
 8008c90:	2002      	movhi	r0, #2
 8008c92:	4770      	bx	lr
 8008c94:	0800aaf0 	.word	0x0800aaf0

08008c98 <USBH_LL_Start>:
 8008c98:	b508      	push	{r3, lr}
 8008c9a:	f8d0 03d0 	ldr.w	r0, [r0, #976]	; 0x3d0
 8008c9e:	f7fa f913 	bl	8002ec8 <HAL_HCD_Start>
 8008ca2:	e8bd 4008 	ldmia.w	sp!, {r3, lr}
 8008ca6:	f7ff bfef 	b.w	8008c88 <USBH_Get_USB_Status>

08008caa <USBH_LL_Stop>:
 8008caa:	b508      	push	{r3, lr}
 8008cac:	f8d0 03d0 	ldr.w	r0, [r0, #976]	; 0x3d0
 8008cb0:	f7fa f91f 	bl	8002ef2 <HAL_HCD_Stop>
 8008cb4:	e8bd 4008 	ldmia.w	sp!, {r3, lr}
 8008cb8:	f7ff bfe6 	b.w	8008c88 <USBH_Get_USB_Status>

08008cbc <USBH_LL_ResetPort>:
 8008cbc:	b508      	push	{r3, lr}
 8008cbe:	f8d0 03d0 	ldr.w	r0, [r0, #976]	; 0x3d0
 8008cc2:	f7fa f928 	bl	8002f16 <HAL_HCD_ResetPort>
 8008cc6:	e8bd 4008 	ldmia.w	sp!, {r3, lr}
 8008cca:	f7ff bfdd 	b.w	8008c88 <USBH_Get_USB_Status>

08008cce <USBH_LL_OpenPipe>:
 8008cce:	b57f      	push	{r0, r1, r2, r3, r4, r5, r6, lr}
 8008cd0:	f89d 5024 	ldrb.w	r5, [sp, #36]	; 0x24
 8008cd4:	f8bd 6028 	ldrh.w	r6, [sp, #40]	; 0x28
 8008cd8:	f89d 4020 	ldrb.w	r4, [sp, #32]
 8008cdc:	9400      	str	r4, [sp, #0]
 8008cde:	e9cd 5601 	strd	r5, r6, [sp, #4]
 8008ce2:	f8d0 03d0 	ldr.w	r0, [r0, #976]	; 0x3d0
 8008ce6:	f7f9 fcd1 	bl	800268c <HAL_HCD_HC_Init>
 8008cea:	b004      	add	sp, #16
 8008cec:	e8bd 4070 	ldmia.w	sp!, {r4, r5, r6, lr}
 8008cf0:	f7ff bfca 	b.w	8008c88 <USBH_Get_USB_Status>

08008cf4 <USBH_LL_ClosePipe>:
 8008cf4:	b508      	push	{r3, lr}
 8008cf6:	f8d0 03d0 	ldr.w	r0, [r0, #976]	; 0x3d0
 8008cfa:	f7f9 fcfd 	bl	80026f8 <HAL_HCD_HC_Halt>
 8008cfe:	e8bd 4008 	ldmia.w	sp!, {r3, lr}
 8008d02:	f7ff bfc1 	b.w	8008c88 <USBH_Get_USB_Status>

08008d06 <USBH_LL_SubmitURB>:
 8008d06:	b57f      	push	{r0, r1, r2, r3, r4, r5, r6, lr}
 8008d08:	f8bd 5028 	ldrh.w	r5, [sp, #40]	; 0x28
 8008d0c:	f89d 602c 	ldrb.w	r6, [sp, #44]	; 0x2c
 8008d10:	f89d 4020 	ldrb.w	r4, [sp, #32]
 8008d14:	e9cd 5602 	strd	r5, r6, [sp, #8]
 8008d18:	9d09      	ldr	r5, [sp, #36]	; 0x24
 8008d1a:	e9cd 4500 	strd	r4, r5, [sp]
 8008d1e:	f8d0 03d0 	ldr.w	r0, [r0, #976]	; 0x3d0
 8008d22:	f7f9 fd47 	bl	80027b4 <HAL_HCD_HC_SubmitRequest>
 8008d26:	b004      	add	sp, #16
 8008d28:	e8bd 4070 	ldmia.w	sp!, {r4, r5, r6, lr}
 8008d2c:	f7ff bfac 	b.w	8008c88 <USBH_Get_USB_Status>

08008d30 <MX_DriverVbusFS>:
 8008d30:	fab0 f280 	clz	r2, r0
 8008d34:	0952      	lsrs	r2, r2, #5
 8008d36:	4802      	ldr	r0, [pc, #8]	; (8008d40 <MX_DriverVbusFS+0x10>)
 8008d38:	2101      	movs	r1, #1
 8008d3a:	f7f9 bc95 	b.w	8002668 <HAL_GPIO_WritePin>
 8008d3e:	bf00      	nop
 8008d40:	40020800 	.word	0x40020800

08008d44 <malloc>:
 8008d44:	4b02      	ldr	r3, [pc, #8]	; (8008d50 <malloc+0xc>)
 8008d46:	4601      	mov	r1, r0
 8008d48:	6818      	ldr	r0, [r3, #0]
 8008d4a:	f000 b82b 	b.w	8008da4 <_malloc_r>
 8008d4e:	bf00      	nop
 8008d50:	200000f8 	.word	0x200000f8

08008d54 <free>:
 8008d54:	4b02      	ldr	r3, [pc, #8]	; (8008d60 <free+0xc>)
 8008d56:	4601      	mov	r1, r0
 8008d58:	6818      	ldr	r0, [r3, #0]
 8008d5a:	f000 b91d 	b.w	8008f98 <_free_r>
 8008d5e:	bf00      	nop
 8008d60:	200000f8 	.word	0x200000f8

08008d64 <sbrk_aligned>:
 8008d64:	b570      	push	{r4, r5, r6, lr}
 8008d66:	4e0e      	ldr	r6, [pc, #56]	; (8008da0 <sbrk_aligned+0x3c>)
 8008d68:	460c      	mov	r4, r1
 8008d6a:	6831      	ldr	r1, [r6, #0]
 8008d6c:	4605      	mov	r5, r0
 8008d6e:	b911      	cbnz	r1, 8008d76 <sbrk_aligned+0x12>
 8008d70:	f000 f8d6 	bl	8008f20 <_sbrk_r>
 8008d74:	6030      	str	r0, [r6, #0]
 8008d76:	4621      	mov	r1, r4
 8008d78:	4628      	mov	r0, r5
 8008d7a:	f000 f8d1 	bl	8008f20 <_sbrk_r>
 8008d7e:	1c43      	adds	r3, r0, #1
 8008d80:	d00a      	beq.n	8008d98 <sbrk_aligned+0x34>
 8008d82:	1cc4      	adds	r4, r0, #3
 8008d84:	f024 0403 	bic.w	r4, r4, #3
 8008d88:	42a0      	cmp	r0, r4
 8008d8a:	d007      	beq.n	8008d9c <sbrk_aligned+0x38>
 8008d8c:	1a21      	subs	r1, r4, r0
 8008d8e:	4628      	mov	r0, r5
 8008d90:	f000 f8c6 	bl	8008f20 <_sbrk_r>
 8008d94:	3001      	adds	r0, #1
 8008d96:	d101      	bne.n	8008d9c <sbrk_aligned+0x38>
 8008d98:	f04f 34ff 	mov.w	r4, #4294967295
 8008d9c:	4620      	mov	r0, r4
 8008d9e:	bd70      	pop	{r4, r5, r6, pc}
 8008da0:	20002de0 	.word	0x20002de0

08008da4 <_malloc_r>:
 8008da4:	e92d 43f8 	stmdb	sp!, {r3, r4, r5, r6, r7, r8, r9, lr}
 8008da8:	1ccd      	adds	r5, r1, #3
 8008daa:	f025 0503 	bic.w	r5, r5, #3
 8008dae:	3508      	adds	r5, #8
 8008db0:	2d0c      	cmp	r5, #12
 8008db2:	bf38      	it	cc
 8008db4:	250c      	movcc	r5, #12
 8008db6:	2d00      	cmp	r5, #0
 8008db8:	4607      	mov	r7, r0
 8008dba:	db01      	blt.n	8008dc0 <_malloc_r+0x1c>
 8008dbc:	42a9      	cmp	r1, r5
 8008dbe:	d905      	bls.n	8008dcc <_malloc_r+0x28>
 8008dc0:	230c      	movs	r3, #12
 8008dc2:	603b      	str	r3, [r7, #0]
 8008dc4:	2600      	movs	r6, #0
 8008dc6:	4630      	mov	r0, r6
 8008dc8:	e8bd 83f8 	ldmia.w	sp!, {r3, r4, r5, r6, r7, r8, r9, pc}
 8008dcc:	f8df 80d0 	ldr.w	r8, [pc, #208]	; 8008ea0 <_malloc_r+0xfc>
 8008dd0:	f000 f868 	bl	8008ea4 <__malloc_lock>
 8008dd4:	f8d8 3000 	ldr.w	r3, [r8]
 8008dd8:	461c      	mov	r4, r3
 8008dda:	bb5c      	cbnz	r4, 8008e34 <_malloc_r+0x90>
 8008ddc:	4629      	mov	r1, r5
 8008dde:	4638      	mov	r0, r7
 8008de0:	f7ff ffc0 	bl	8008d64 <sbrk_aligned>
 8008de4:	1c43      	adds	r3, r0, #1
 8008de6:	4604      	mov	r4, r0
 8008de8:	d155      	bne.n	8008e96 <_malloc_r+0xf2>
 8008dea:	f8d8 4000 	ldr.w	r4, [r8]
 8008dee:	4626      	mov	r6, r4
 8008df0:	2e00      	cmp	r6, #0
 8008df2:	d145      	bne.n	8008e80 <_malloc_r+0xdc>
 8008df4:	2c00      	cmp	r4, #0
 8008df6:	d048      	beq.n	8008e8a <_malloc_r+0xe6>
 8008df8:	6823      	ldr	r3, [r4, #0]
 8008dfa:	4631      	mov	r1, r6
 8008dfc:	4638      	mov	r0, r7
 8008dfe:	eb04 0903 	add.w	r9, r4, r3
 8008e02:	f000 f88d 	bl	8008f20 <_sbrk_r>
 8008e06:	4581      	cmp	r9, r0
 8008e08:	d13f      	bne.n	8008e8a <_malloc_r+0xe6>
 8008e0a:	6821      	ldr	r1, [r4, #0]
 8008e0c:	1a6d      	subs	r5, r5, r1
 8008e0e:	4629      	mov	r1, r5
 8008e10:	4638      	mov	r0, r7
 8008e12:	f7ff ffa7 	bl	8008d64 <sbrk_aligned>
 8008e16:	3001      	adds	r0, #1
 8008e18:	d037      	beq.n	8008e8a <_malloc_r+0xe6>
 8008e1a:	6823      	ldr	r3, [r4, #0]
 8008e1c:	442b      	add	r3, r5
 8008e1e:	6023      	str	r3, [r4, #0]
 8008e20:	f8d8 3000 	ldr.w	r3, [r8]
 8008e24:	2b00      	cmp	r3, #0
 8008e26:	d038      	beq.n	8008e9a <_malloc_r+0xf6>
 8008e28:	685a      	ldr	r2, [r3, #4]
 8008e2a:	42a2      	cmp	r2, r4
 8008e2c:	d12b      	bne.n	8008e86 <_malloc_r+0xe2>
 8008e2e:	2200      	movs	r2, #0
 8008e30:	605a      	str	r2, [r3, #4]
 8008e32:	e00f      	b.n	8008e54 <_malloc_r+0xb0>
 8008e34:	6822      	ldr	r2, [r4, #0]
 8008e36:	1b52      	subs	r2, r2, r5
 8008e38:	d41f      	bmi.n	8008e7a <_malloc_r+0xd6>
 8008e3a:	2a0b      	cmp	r2, #11
 8008e3c:	d917      	bls.n	8008e6e <_malloc_r+0xca>
 8008e3e:	1961      	adds	r1, r4, r5
 8008e40:	42a3      	cmp	r3, r4
 8008e42:	6025      	str	r5, [r4, #0]
 8008e44:	bf18      	it	ne
 8008e46:	6059      	strne	r1, [r3, #4]
 8008e48:	6863      	ldr	r3, [r4, #4]
 8008e4a:	bf08      	it	eq
 8008e4c:	f8c8 1000 	streq.w	r1, [r8]
 8008e50:	5162      	str	r2, [r4, r5]
 8008e52:	604b      	str	r3, [r1, #4]
 8008e54:	4638      	mov	r0, r7
 8008e56:	f104 060b 	add.w	r6, r4, #11
 8008e5a:	f000 f829 	bl	8008eb0 <__malloc_unlock>
 8008e5e:	f026 0607 	bic.w	r6, r6, #7
 8008e62:	1d23      	adds	r3, r4, #4
 8008e64:	1af2      	subs	r2, r6, r3
 8008e66:	d0ae      	beq.n	8008dc6 <_malloc_r+0x22>
 8008e68:	1b9b      	subs	r3, r3, r6
 8008e6a:	50a3      	str	r3, [r4, r2]
 8008e6c:	e7ab      	b.n	8008dc6 <_malloc_r+0x22>
 8008e6e:	42a3      	cmp	r3, r4
 8008e70:	6862      	ldr	r2, [r4, #4]
 8008e72:	d1dd      	bne.n	8008e30 <_malloc_r+0x8c>
 8008e74:	f8c8 2000 	str.w	r2, [r8]
 8008e78:	e7ec      	b.n	8008e54 <_malloc_r+0xb0>
 8008e7a:	4623      	mov	r3, r4
 8008e7c:	6864      	ldr	r4, [r4, #4]
 8008e7e:	e7ac      	b.n	8008dda <_malloc_r+0x36>
 8008e80:	4634      	mov	r4, r6
 8008e82:	6876      	ldr	r6, [r6, #4]
 8008e84:	e7b4      	b.n	8008df0 <_malloc_r+0x4c>
 8008e86:	4613      	mov	r3, r2
 8008e88:	e7cc      	b.n	8008e24 <_malloc_r+0x80>
 8008e8a:	230c      	movs	r3, #12
 8008e8c:	603b      	str	r3, [r7, #0]
 8008e8e:	4638      	mov	r0, r7
 8008e90:	f000 f80e 	bl	8008eb0 <__malloc_unlock>
 8008e94:	e797      	b.n	8008dc6 <_malloc_r+0x22>
 8008e96:	6025      	str	r5, [r4, #0]
 8008e98:	e7dc      	b.n	8008e54 <_malloc_r+0xb0>
 8008e9a:	605b      	str	r3, [r3, #4]
 8008e9c:	deff      	udf	#255	; 0xff
 8008e9e:	bf00      	nop
 8008ea0:	20002ddc 	.word	0x20002ddc

08008ea4 <__malloc_lock>:
 8008ea4:	4801      	ldr	r0, [pc, #4]	; (8008eac <__malloc_lock+0x8>)
 8008ea6:	f000 b875 	b.w	8008f94 <__retarget_lock_acquire_recursive>
 8008eaa:	bf00      	nop
 8008eac:	20002f20 	.word	0x20002f20

08008eb0 <__malloc_unlock>:
 8008eb0:	4801      	ldr	r0, [pc, #4]	; (8008eb8 <__malloc_unlock+0x8>)
 8008eb2:	f000 b870 	b.w	8008f96 <__retarget_lock_release_recursive>
 8008eb6:	bf00      	nop
 8008eb8:	20002f20 	.word	0x20002f20

08008ebc <memset>:
 8008ebc:	4402      	add	r2, r0
 8008ebe:	4603      	mov	r3, r0
 8008ec0:	4293      	cmp	r3, r2
 8008ec2:	d100      	bne.n	8008ec6 <memset+0xa>
 8008ec4:	4770      	bx	lr
 8008ec6:	f803 1b01 	strb.w	r1, [r3], #1
 8008eca:	e7f9      	b.n	8008ec0 <memset+0x4>

08008ecc <strncpy>:
 8008ecc:	b510      	push	{r4, lr}
 8008ece:	3901      	subs	r1, #1
 8008ed0:	4603      	mov	r3, r0
 8008ed2:	b132      	cbz	r2, 8008ee2 <strncpy+0x16>
 8008ed4:	f811 4f01 	ldrb.w	r4, [r1, #1]!
 8008ed8:	f803 4b01 	strb.w	r4, [r3], #1
 8008edc:	3a01      	subs	r2, #1
 8008ede:	2c00      	cmp	r4, #0
 8008ee0:	d1f7      	bne.n	8008ed2 <strncpy+0x6>
 8008ee2:	441a      	add	r2, r3
 8008ee4:	2100      	movs	r1, #0
 8008ee6:	4293      	cmp	r3, r2
 8008ee8:	d100      	bne.n	8008eec <strncpy+0x20>
 8008eea:	bd10      	pop	{r4, pc}
 8008eec:	f803 1b01 	strb.w	r1, [r3], #1
 8008ef0:	e7f9      	b.n	8008ee6 <strncpy+0x1a>

08008ef2 <strstr>:
 8008ef2:	780a      	ldrb	r2, [r1, #0]
 8008ef4:	b570      	push	{r4, r5, r6, lr}
 8008ef6:	b96a      	cbnz	r2, 8008f14 <strstr+0x22>
 8008ef8:	bd70      	pop	{r4, r5, r6, pc}
 8008efa:	429a      	cmp	r2, r3
 8008efc:	d109      	bne.n	8008f12 <strstr+0x20>
 8008efe:	460c      	mov	r4, r1
 8008f00:	4605      	mov	r5, r0
 8008f02:	f814 3f01 	ldrb.w	r3, [r4, #1]!
 8008f06:	2b00      	cmp	r3, #0
 8008f08:	d0f6      	beq.n	8008ef8 <strstr+0x6>
 8008f0a:	f815 6f01 	ldrb.w	r6, [r5, #1]!
 8008f0e:	429e      	cmp	r6, r3
 8008f10:	d0f7      	beq.n	8008f02 <strstr+0x10>
 8008f12:	3001      	adds	r0, #1
 8008f14:	7803      	ldrb	r3, [r0, #0]
 8008f16:	2b00      	cmp	r3, #0
 8008f18:	d1ef      	bne.n	8008efa <strstr+0x8>
 8008f1a:	4618      	mov	r0, r3
 8008f1c:	e7ec      	b.n	8008ef8 <strstr+0x6>
	...

08008f20 <_sbrk_r>:
 8008f20:	b538      	push	{r3, r4, r5, lr}
 8008f22:	4d06      	ldr	r5, [pc, #24]	; (8008f3c <_sbrk_r+0x1c>)
 8008f24:	2300      	movs	r3, #0
 8008f26:	4604      	mov	r4, r0
 8008f28:	4608      	mov	r0, r1
 8008f2a:	602b      	str	r3, [r5, #0]
 8008f2c:	f7f8 fd70 	bl	8001a10 <_sbrk>
 8008f30:	1c43      	adds	r3, r0, #1
 8008f32:	d102      	bne.n	8008f3a <_sbrk_r+0x1a>
 8008f34:	682b      	ldr	r3, [r5, #0]
 8008f36:	b103      	cbz	r3, 8008f3a <_sbrk_r+0x1a>
 8008f38:	6023      	str	r3, [r4, #0]
 8008f3a:	bd38      	pop	{r3, r4, r5, pc}
 8008f3c:	20002f1c 	.word	0x20002f1c

08008f40 <__errno>:
 8008f40:	4b01      	ldr	r3, [pc, #4]	; (8008f48 <__errno+0x8>)
 8008f42:	6818      	ldr	r0, [r3, #0]
 8008f44:	4770      	bx	lr
 8008f46:	bf00      	nop
 8008f48:	200000f8 	.word	0x200000f8

08008f4c <__libc_init_array>:
 8008f4c:	b570      	push	{r4, r5, r6, lr}
 8008f4e:	4d0d      	ldr	r5, [pc, #52]	; (8008f84 <__libc_init_array+0x38>)
 8008f50:	4c0d      	ldr	r4, [pc, #52]	; (8008f88 <__libc_init_array+0x3c>)
 8008f52:	1b64      	subs	r4, r4, r5
 8008f54:	10a4      	asrs	r4, r4, #2
 8008f56:	2600      	movs	r6, #0
 8008f58:	42a6      	cmp	r6, r4
 8008f5a:	d109      	bne.n	8008f70 <__libc_init_array+0x24>
 8008f5c:	4d0b      	ldr	r5, [pc, #44]	; (8008f8c <__libc_init_array+0x40>)
 8008f5e:	4c0c      	ldr	r4, [pc, #48]	; (8008f90 <__libc_init_array+0x44>)
 8008f60:	f000 f866 	bl	8009030 <_init>
 8008f64:	1b64      	subs	r4, r4, r5
 8008f66:	10a4      	asrs	r4, r4, #2
 8008f68:	2600      	movs	r6, #0
 8008f6a:	42a6      	cmp	r6, r4
 8008f6c:	d105      	bne.n	8008f7a <__libc_init_array+0x2e>
 8008f6e:	bd70      	pop	{r4, r5, r6, pc}
 8008f70:	f855 3b04 	ldr.w	r3, [r5], #4
 8008f74:	4798      	blx	r3
 8008f76:	3601      	adds	r6, #1
 8008f78:	e7ee      	b.n	8008f58 <__libc_init_array+0xc>
 8008f7a:	f855 3b04 	ldr.w	r3, [r5], #4
 8008f7e:	4798      	blx	r3
 8008f80:	3601      	adds	r6, #1
 8008f82:	e7f2      	b.n	8008f6a <__libc_init_array+0x1e>
 8008f84:	0800aafc 	.word	0x0800aafc
 8008f88:	0800aafc 	.word	0x0800aafc
 8008f8c:	0800aafc 	.word	0x0800aafc
 8008f90:	0800ab00 	.word	0x0800ab00

08008f94 <__retarget_lock_acquire_recursive>:
 8008f94:	4770      	bx	lr

08008f96 <__retarget_lock_release_recursive>:
 8008f96:	4770      	bx	lr

08008f98 <_free_r>:
 8008f98:	b537      	push	{r0, r1, r2, r4, r5, lr}
 8008f9a:	2900      	cmp	r1, #0
 8008f9c:	d044      	beq.n	8009028 <_free_r+0x90>
 8008f9e:	f851 3c04 	ldr.w	r3, [r1, #-4]
 8008fa2:	9001      	str	r0, [sp, #4]
 8008fa4:	2b00      	cmp	r3, #0
 8008fa6:	f1a1 0404 	sub.w	r4, r1, #4
 8008faa:	bfb8      	it	lt
 8008fac:	18e4      	addlt	r4, r4, r3
 8008fae:	f7ff ff79 	bl	8008ea4 <__malloc_lock>
 8008fb2:	4a1e      	ldr	r2, [pc, #120]	; (800902c <_free_r+0x94>)
 8008fb4:	9801      	ldr	r0, [sp, #4]
 8008fb6:	6813      	ldr	r3, [r2, #0]
 8008fb8:	b933      	cbnz	r3, 8008fc8 <_free_r+0x30>
 8008fba:	6063      	str	r3, [r4, #4]
 8008fbc:	6014      	str	r4, [r2, #0]
 8008fbe:	b003      	add	sp, #12
 8008fc0:	e8bd 4030 	ldmia.w	sp!, {r4, r5, lr}
 8008fc4:	f7ff bf74 	b.w	8008eb0 <__malloc_unlock>
 8008fc8:	42a3      	cmp	r3, r4
 8008fca:	d908      	bls.n	8008fde <_free_r+0x46>
 8008fcc:	6825      	ldr	r5, [r4, #0]
 8008fce:	1961      	adds	r1, r4, r5
 8008fd0:	428b      	cmp	r3, r1
 8008fd2:	bf01      	itttt	eq
 8008fd4:	6819      	ldreq	r1, [r3, #0]
 8008fd6:	685b      	ldreq	r3, [r3, #4]
 8008fd8:	1949      	addeq	r1, r1, r5
 8008fda:	6021      	streq	r1, [r4, #0]
 8008fdc:	e7ed      	b.n	8008fba <_free_r+0x22>
 8008fde:	461a      	mov	r2, r3
 8008fe0:	685b      	ldr	r3, [r3, #4]
 8008fe2:	b10b      	cbz	r3, 8008fe8 <_free_r+0x50>
 8008fe4:	42a3      	cmp	r3, r4
 8008fe6:	d9fa      	bls.n	8008fde <_free_r+0x46>
 8008fe8:	6811      	ldr	r1, [r2, #0]
 8008fea:	1855      	adds	r5, r2, r1
 8008fec:	42a5      	cmp	r5, r4
 8008fee:	d10b      	bne.n	8009008 <_free_r+0x70>
 8008ff0:	6824      	ldr	r4, [r4, #0]
 8008ff2:	4421      	add	r1, r4
 8008ff4:	1854      	adds	r4, r2, r1
 8008ff6:	42a3      	cmp	r3, r4
 8008ff8:	6011      	str	r1, [r2, #0]
 8008ffa:	d1e0      	bne.n	8008fbe <_free_r+0x26>
 8008ffc:	681c      	ldr	r4, [r3, #0]
 8008ffe:	685b      	ldr	r3, [r3, #4]
 8009000:	6053      	str	r3, [r2, #4]
 8009002:	440c      	add	r4, r1
 8009004:	6014      	str	r4, [r2, #0]
 8009006:	e7da      	b.n	8008fbe <_free_r+0x26>
 8009008:	d902      	bls.n	8009010 <_free_r+0x78>
 800900a:	230c      	movs	r3, #12
 800900c:	6003      	str	r3, [r0, #0]
 800900e:	e7d6      	b.n	8008fbe <_free_r+0x26>
 8009010:	6825      	ldr	r5, [r4, #0]
 8009012:	1961      	adds	r1, r4, r5
 8009014:	428b      	cmp	r3, r1
 8009016:	bf04      	itt	eq
 8009018:	6819      	ldreq	r1, [r3, #0]
 800901a:	685b      	ldreq	r3, [r3, #4]
 800901c:	6063      	str	r3, [r4, #4]
 800901e:	bf04      	itt	eq
 8009020:	1949      	addeq	r1, r1, r5
 8009022:	6021      	streq	r1, [r4, #0]
 8009024:	6054      	str	r4, [r2, #4]
 8009026:	e7ca      	b.n	8008fbe <_free_r+0x26>
 8009028:	b003      	add	sp, #12
 800902a:	bd30      	pop	{r4, r5, pc}
 800902c:	20002ddc 	.word	0x20002ddc

08009030 <_init>:
 8009030:	b5f8      	push	{r3, r4, r5, r6, r7, lr}
 8009032:	bf00      	nop
 8009034:	bcf8      	pop	{r3, r4, r5, r6, r7}
 8009036:	bc08      	pop	{r3}
 8009038:	469e      	mov	lr, r3
 800903a:	4770      	bx	lr

0800903c <_fini>:
 800903c:	b5f8      	push	{r3, r4, r5, r6, r7, lr}
 800903e:	bf00      	nop
 8009040:	bcf8      	pop	{r3, r4, r5, r6, r7}
 8009042:	bc08      	pop	{r3}
 8009044:	469e      	mov	lr, r3
 8009046:	4770      	bx	lr
